
main.elf:     file format elf32-avr

Sections:
Idx Name          Size      VMA       LMA       File off  Algn
  0 .data         00000286  00800100  00009d46  00009dda  2**0
                  CONTENTS, ALLOC, LOAD, DATA
  1 .text         00009d46  00000000  00000000  00000094  2**1
                  CONTENTS, ALLOC, LOAD, READONLY, CODE
  2 .bss          00000529  00800386  00800386  0000a060  2**0
                  ALLOC
  3 .stab         00000210  00000000  00000000  0000a060  2**2
                  CONTENTS, READONLY, DEBUGGING
  4 .stabstr      00000050  00000000  00000000  0000a270  2**0
                  CONTENTS, READONLY, DEBUGGING
  5 .debug_aranges 00000400  00000000  00000000  0000a2c0  2**0
                  CONTENTS, READONLY, DEBUGGING
  6 .debug_pubnames 0000389d  00000000  00000000  0000a6c0  2**0
                  CONTENTS, READONLY, DEBUGGING
  7 .debug_info   00009a96  00000000  00000000  0000df5d  2**0
                  CONTENTS, READONLY, DEBUGGING
  8 .debug_abbrev 00002882  00000000  00000000  000179f3  2**0
                  CONTENTS, READONLY, DEBUGGING
  9 .debug_line   00007455  00000000  00000000  0001a275  2**0
                  CONTENTS, READONLY, DEBUGGING
 10 .debug_frame  000015e0  00000000  00000000  000216cc  2**2
                  CONTENTS, READONLY, DEBUGGING
 11 .debug_str    00002d20  00000000  00000000  00022cac  2**0
                  CONTENTS, READONLY, DEBUGGING
 12 .debug_loc    00003fb5  00000000  00000000  000259cc  2**0
                  CONTENTS, READONLY, DEBUGGING
 13 .debug_ranges 00000048  00000000  00000000  00029981  2**0
                  CONTENTS, READONLY, DEBUGGING

Disassembly of section .text:

00000000 <__vectors>:
       0:	0c 94 38 05 	jmp	0xa70	; 0xa70 <__ctors_end>
       4:	0c 94 c3 2f 	jmp	0x5f86	; 0x5f86 <__vector_1>
       8:	0c 94 57 05 	jmp	0xaae	; 0xaae <__bad_interrupt>
       c:	0c 94 57 05 	jmp	0xaae	; 0xaae <__bad_interrupt>
      10:	0c 94 57 05 	jmp	0xaae	; 0xaae <__bad_interrupt>
      14:	0c 94 57 05 	jmp	0xaae	; 0xaae <__bad_interrupt>
      18:	0c 94 57 05 	jmp	0xaae	; 0xaae <__bad_interrupt>
      1c:	0c 94 57 05 	jmp	0xaae	; 0xaae <__bad_interrupt>
      20:	0c 94 57 05 	jmp	0xaae	; 0xaae <__bad_interrupt>
      24:	0c 94 3d 2f 	jmp	0x5e7a	; 0x5e7a <__vector_9>
      28:	0c 94 57 05 	jmp	0xaae	; 0xaae <__bad_interrupt>
      2c:	0c 94 57 05 	jmp	0xaae	; 0xaae <__bad_interrupt>
      30:	0c 94 57 05 	jmp	0xaae	; 0xaae <__bad_interrupt>
      34:	0c 94 57 05 	jmp	0xaae	; 0xaae <__bad_interrupt>
      38:	0c 94 57 05 	jmp	0xaae	; 0xaae <__bad_interrupt>
      3c:	0c 94 b8 2e 	jmp	0x5d70	; 0x5d70 <__vector_15>
      40:	0c 94 b8 2e 	jmp	0x5d70	; 0x5d70 <__vector_15>
      44:	0c 94 57 05 	jmp	0xaae	; 0xaae <__bad_interrupt>
      48:	0c 94 57 05 	jmp	0xaae	; 0xaae <__bad_interrupt>
      4c:	0c 94 57 05 	jmp	0xaae	; 0xaae <__bad_interrupt>
      50:	0c 94 57 05 	jmp	0xaae	; 0xaae <__bad_interrupt>
      54:	0c 94 57 05 	jmp	0xaae	; 0xaae <__bad_interrupt>
      58:	0c 94 57 05 	jmp	0xaae	; 0xaae <__bad_interrupt>
      5c:	0c 94 57 05 	jmp	0xaae	; 0xaae <__bad_interrupt>
      60:	0c 94 57 05 	jmp	0xaae	; 0xaae <__bad_interrupt>
      64:	0c 94 57 05 	jmp	0xaae	; 0xaae <__bad_interrupt>
      68:	0c 94 57 05 	jmp	0xaae	; 0xaae <__bad_interrupt>
      6c:	0c 94 57 05 	jmp	0xaae	; 0xaae <__bad_interrupt>
      70:	0c 94 57 05 	jmp	0xaae	; 0xaae <__bad_interrupt>
      74:	0c 94 57 05 	jmp	0xaae	; 0xaae <__bad_interrupt>
      78:	0c 94 57 05 	jmp	0xaae	; 0xaae <__bad_interrupt>
      7c:	0c 94 57 05 	jmp	0xaae	; 0xaae <__bad_interrupt>
      80:	0c 94 57 05 	jmp	0xaae	; 0xaae <__bad_interrupt>
      84:	0c 94 57 05 	jmp	0xaae	; 0xaae <__bad_interrupt>
      88:	0c 94 57 05 	jmp	0xaae	; 0xaae <__bad_interrupt>
      8c:	5d 1e       	adc	r5, r29
      8e:	63 1e       	adc	r6, r19
      90:	66 1e       	adc	r6, r22
      92:	69 1e       	adc	r6, r25
      94:	6c 1e       	adc	r6, r28
      96:	6f 1e       	adc	r6, r31
      98:	75 1e       	adc	r7, r21
      9a:	72 1e       	adc	r7, r18
      9c:	78 1e       	adc	r7, r24
      9e:	7b 1e       	adc	r7, r27
      a0:	7e 1e       	adc	r7, r30
      a2:	87 1e       	adc	r8, r23
      a4:	8a 1e       	adc	r8, r26
      a6:	8d 1e       	adc	r8, r29
      a8:	90 1e       	adc	r9, r16
      aa:	84 1e       	adc	r8, r20
      ac:	5a 1e       	adc	r5, r26
      ae:	60 1e       	adc	r6, r16
      b0:	93 1e       	adc	r9, r19
      b2:	96 1e       	adc	r9, r22
      b4:	81 1e       	adc	r8, r17
      b6:	57 1e       	adc	r5, r23
      b8:	08 00       	.word	0x0008	; ????
      ba:	00 00       	nop
      bc:	be 92       	st	-X, r11
      be:	24 49       	sbci	r18, 0x94	; 148
      c0:	12 3e       	cpi	r17, 0xE2	; 226
      c2:	ab aa       	std	Y+51, r10	; 0x33
      c4:	aa 2a       	or	r10, r26
      c6:	be cd       	rjmp	.-1156   	; 0xfffffc44 <__eeprom_end+0xff7efc44>
      c8:	cc cc       	rjmp	.-1640   	; 0xfffffa62 <__eeprom_end+0xff7efa62>
      ca:	4c 3e       	cpi	r20, 0xEC	; 236
      cc:	00 00       	nop
      ce:	00 80       	ld	r0, Z
      d0:	be ab       	std	Y+54, r27	; 0x36
      d2:	aa aa       	std	Y+50, r10	; 0x32
      d4:	aa 3e       	cpi	r26, 0xEA	; 234
      d6:	00 00       	nop
      d8:	00 00       	nop
      da:	bf 00       	.word	0x00bf	; ????
      dc:	00 00       	nop
      de:	80 3f       	cpi	r24, 0xF0	; 240
      e0:	00 00       	nop
      e2:	00 00       	nop
      e4:	00 08       	sbc	r0, r0
      e6:	41 78       	andi	r20, 0x81	; 129
      e8:	d3 bb       	out	0x13, r29	; 19
      ea:	43 87       	std	Z+11, r20	; 0x0b
      ec:	d1 13       	cpse	r29, r17
      ee:	3d 19       	sub	r19, r13
      f0:	0e 3c       	cpi	r16, 0xCE	; 206
      f2:	c3 bd       	out	0x23, r28	; 35
      f4:	42 82       	std	Z+2, r4	; 0x02
      f6:	ad 2b       	or	r26, r29
      f8:	3e 68       	ori	r19, 0x8E	; 142
      fa:	ec 82       	std	Y+4, r14	; 0x04
      fc:	76 be       	out	0x36, r7	; 54
      fe:	d9 8f       	std	Y+25, r29	; 0x19
     100:	e1 a9       	ldd	r30, Z+49	; 0x31
     102:	3e 4c       	sbci	r19, 0xCE	; 206
     104:	80 ef       	ldi	r24, 0xF0	; 240
     106:	ff be       	out	0x3f, r15	; 63
     108:	01 c4       	rjmp	.+2050   	; 0x90c <font5x7+0x49f>
     10a:	ff 7f       	andi	r31, 0xFF	; 255
     10c:	3f 00       	.word	0x003f	; ????
     10e:	00 00       	nop
     110:	00 00       	nop
     112:	07 63       	ori	r16, 0x37	; 55
     114:	42 36       	cpi	r20, 0x62	; 98
     116:	b7 9b       	sbis	0x16, 7	; 22
     118:	d8 a7       	std	Y+40, r29	; 0x28
     11a:	1a 39       	cpi	r17, 0x9A	; 154
     11c:	68 56       	subi	r22, 0x68	; 104
     11e:	18 ae       	std	Y+56, r1	; 0x38
     120:	ba ab       	std	Y+50, r27	; 0x32
     122:	55 8c       	ldd	r5, Z+29	; 0x1d
     124:	1d 3c       	cpi	r17, 0xCD	; 205
     126:	b7 cc       	rjmp	.-1682   	; 0xfffffa96 <__eeprom_end+0xff7efa96>
     128:	57 63       	ori	r21, 0x37	; 55
     12a:	bd 6d       	ori	r27, 0xDD	; 221
     12c:	ed fd       	.word	0xfded	; ????
     12e:	75 3e       	cpi	r23, 0xE5	; 229
     130:	f6 17       	cp	r31, r22
     132:	72 31       	cpi	r23, 0x12	; 18
     134:	bf 00       	.word	0x00bf	; ????
     136:	00 00       	nop
     138:	80 3f       	cpi	r24, 0xF0	; 240

0000013a <__c.2136>:
     13a:	0d 0a 4e 61 6e 6f 2d 52 4b 20 54 61 73 6b 20 53     ..Nano-RK Task S
     14a:	74 61 74 69 73 74 69 63 73 3a 0d 0a 00              tatistics:...

00000157 <__c.2114>:
     157:	0d 0a 00                                            ...

0000015a <__c.2112>:
     15a:	0d 0a 20 20 20 4f 76 65 72 66 6c 6f 77 20 45 72     ..   Overflow Er
     16a:	72 6f 72 20 53 74 61 74 75 73 3a 20 00              ror Status: .

00000177 <__c.2110>:
     177:	0d 0a 20 20 20 4b 65 72 6e 65 6c 20 56 69 6f 6c     ..   Kernel Viol
     187:	61 74 69 6f 6e 73 3a 20 00                          ations: .

00000190 <__c.2108>:
     190:	0d 0a 20 20 20 50 72 65 65 6d 70 74 69 6f 6e 73     ..   Preemptions
     1a0:	3a 20 00                                            : .

000001a3 <__c.2106>:
     1a3:	0d 0a 20 20 20 53 77 61 70 2d 69 6e 73 3a 20 00     ..   Swap-ins: .

000001b3 <__c.2104>:
     1b3:	0d 0a 20 20 20 54 69 6d 65 20 5b 4d 69 6e 2c 4c     ..   Time [Min,L
     1c3:	61 73 74 2c 4d 61 78 5d 3a 20 00                    ast,Max]: .

000001ce <__c.2102>:
     1ce:	0d 0a 20 20 20 54 6f 74 61 6c 20 43 50 55 3a 20     ..   Total CPU: 
	...

000001df <__c.2100>:
     1df:	0d 0a 20 20 20 49 64 6c 65 20 54 61 73 6b 20 44     ..   Idle Task D
     1ef:	65 65 70 20 53 6c 65 65 70 20 54 69 6d 65 3a 20     eep Sleep Time: 
	...

00000200 <__c.2098>:
     200:	0d 0a 20 20 20 54 6f 74 61 6c 20 53 79 73 74 65     ..   Total Syste
     210:	6d 20 55 70 74 69 6d 65 3a 20 00                    m Uptime: .

0000021b <__c.2096>:
     21b:	20 54 61 73 6b 20 49 44 3a 20 00                     Task ID: .

00000226 <__c.2187>:
     226:	55 4e 4b 4f 57 4e 00                                UNKOWN.

0000022d <__c.2184>:
     22d:	45 78 74 65 72 6e 61 6c 20 52 65 73 65 74 00        External Reset.

0000023c <__c.2181>:
     23c:	42 72 6f 77 6e 20 4f 75 74 20 44 65 74 65 63 74     Brown Out Detect
	...

0000024d <__c.2178>:
     24d:	46 61 69 6c 65 64 20 74 6f 20 63 72 65 61 74 65     Failed to create
     25d:	20 53 65 6d 61 70 68 6f 72 65 00                     Semaphore.

00000268 <__c.2175>:
     268:	46 61 69 6c 65 64 20 74 6f 20 63 72 65 61 74 65     Failed to create
     278:	20 53 69 67 6e 61 6c 00                              Signal.

00000280 <__c.2172>:
     280:	4b 65 72 6e 65 6c 20 66 75 6e 63 74 69 6f 6e 20     Kernel function 
     290:	6e 6f 74 20 69 6d 70 6c 65 6d 65 6e 74 65 64 00     not implemented.

000002a0 <__c.2169>:
     2a0:	44 65 76 69 63 65 20 44 72 69 76 65 72 20 45 72     Device Driver Er
     2b0:	72 6f 72 00                                         ror.

000002b4 <__c.2166>:
     2b4:	57 61 74 63 68 64 6f 67 20 52 65 73 74 61 72 74     Watchdog Restart
	...

000002c5 <__c.2163>:
     2c5:	53 57 20 57 61 74 63 68 64 6f 67 20 52 65 73 74     SW Watchdog Rest
     2d5:	61 72 74 00                                         art.

000002d9 <__c.2160>:
     2d9:	54 69 6d 65 72 20 4f 76 65 72 66 6c 6f 77 00        Timer Overflow.

000002e8 <__c.2157>:
     2e8:	55 6e 68 61 6e 64 6c 65 64 20 49 6e 74 65 72 72     Unhandled Interr
     2f8:	75 70 74 20 56 65 63 74 6f 72 00                    upt Vector.

00000303 <__c.2154>:
     303:	4c 6f 77 20 56 6f 6c 74 61 67 65 00                 Low Voltage.

0000030f <__c.2151>:
     30f:	45 78 74 72 61 20 54 61 73 6b 20 73 74 61 72 74     Extra Task start
     31f:	65 64 2c 20 69 73 20 6e 72 6b 5f 63 66 67 2e 68     ed, is nrk_cfg.h
     32f:	20 6f 6b 3f 00                                       ok?.

00000334 <__c.2148>:
     334:	49 64 6c 65 20 6f 72 20 4b 65 72 6e 65 6c 20 53     Idle or Kernel S
     344:	74 61 63 6b 20 4f 76 65 72 66 6c 6f 77 00           tack Overflow.

00000352 <__c.2145>:
     352:	55 6e 65 78 70 65 63 74 65 64 20 52 65 73 74 61     Unexpected Resta
     362:	72 74 00                                            rt.

00000365 <__c.2142>:
     365:	44 75 70 6c 69 63 61 74 65 64 20 54 61 73 6b 20     Duplicated Task 
     375:	49 44 00                                            ID.

00000378 <__c.2139>:
     378:	53 63 68 65 64 75 6c 65 72 20 4d 69 73 73 65 64     Scheduler Missed
     388:	20 57 61 6b 65 75 70 00                              Wakeup.

00000390 <__c.2136>:
     390:	54 61 73 6b 20 52 65 73 65 72 76 65 20 56 69 6f     Task Reserve Vio
     3a0:	6c 61 74 65 64 00                                   lated.

000003a6 <__c.2133>:
     3a6:	52 65 73 65 72 76 65 20 45 72 72 6f 72 20 69 6e     Reserve Error in
     3b6:	20 53 63 68 65 64 75 6c 65 72 00                     Scheduler.

000003c1 <__c.2130>:
     3c1:	49 6e 76 61 6c 69 64 20 53 74 61 63 6b 20 50 6f     Invalid Stack Po
     3d1:	69 6e 74 65 72 00                                   inter.

000003d7 <__c.2127>:
     3d7:	54 61 73 6b 20 53 74 61 63 6b 20 4f 76 65 72 66     Task Stack Overf
     3e7:	6c 6f 77 00                                         low.

000003eb <__c.2124>:
     3eb:	53 74 61 63 6b 20 77 61 73 20 6e 6f 74 20 64 65     Stack was not de
     3fb:	66 69 6e 65 64 20 61 73 20 6c 61 72 67 65 20 65     fined as large e
     40b:	6e 6f 75 67 68 21 00                                nough!.

00000412 <__c.2120>:
     412:	54 61 73 6b 20 70 65 72 69 6f 64 20 74 6f 6f 20     Task period too 
     422:	6c 61 72 67 65 2e 20 50 65 72 69 6f 64 20 6d 75     large. Period mu
     432:	73 74 20 62 65 20 6c 65 73 73 20 74 68 61 6e 20     st be less than 
     442:	36 31 20 73 65 63 6f 6e 64 73 2e 00                 61 seconds..

0000044e <__c.2117>:
     44e:	29 3a 20 00                                         ): .

00000452 <__c.2115>:
     452:	2a 4e 52 4b 20 45 52 52 4f 52 28 00                 *NRK ERROR(.

0000045e <__c.1990>:
     45e:	0d 0a 53 54 41 43 4b 20 44 55 4d 50 0d 0a 00        ..STACK DUMP...

0000046d <font5x7>:
     46d:	08 08 2a 1c 08 08 1c 2a 08 08 40 44 4a 51 40 40     ..*....*..@DJQ@@
     47d:	51 4a 44 40 14 74 1c 17 14 10 20 7f 01 01 00 00     QJD@.t.... .....
	...
     495:	08 1c 2c 08 08 7f 01 01 01 01 01 01 01 01 7f 7f     ..,.............
     4a5:	40 40 40 40 40 40 40 40 7f 00 00 00 00 00 00 00     @@@@@@@@........
	...
     4bd:	79 11 27 11 79 00 00 00 00 00 00 00 00 00 00 00     y.'.y...........
     4cd:	00 00 00 00 7f 01 01 01 03 60 50 48 44 7e 3e 49     .........`PHD~>I
     4dd:	49 49 3e 70 0c 03 0c 70 63 49 49 49 63 01 7f 01     II>p...pcIIIc...
     4ed:	7f 01 63 55 49 41 41 06 01 7e 01 06 08 55 7f 55     ..cUIAA..~...U.U
     4fd:	08 0f 10 7f 10 0f 4e 71 01 71 4e 38 44 44 38 44     ......Nq.qN8DD8D
     50d:	00 00 00 00 00 00 00 5f 00 00 03 00 03 00 00 14     ......._........
     51d:	3e 14 3e 14 26 49 7f 49 32 62 15 2a 54 23 36 49     >.>.&I.I2b.*T#6I
     52d:	56 20 50 00 03 00 00 00 00 1c 22 41 00 00 41 22     V P......."A..A"
     53d:	1c 00 00 14 0e 14 00 08 08 3e 08 08 00 60 00 00     .........>...`..
     54d:	00 08 08 08 08 00 00 40 00 00 00 60 10 08 04 03     .......@...`....
     55d:	3e 41 41 41 3e 04 02 7f 00 00 62 51 49 45 42 22     >AAA>.....bQIEB"
     56d:	41 49 49 36 0c 0b 08 7e 08 4f 49 49 49 31 3e 49     AII6...~.OIII1>I
     57d:	49 49 32 61 11 09 05 03 36 49 49 49 36 26 49 49     II2a....6III6&II
     58d:	49 3e 00 22 00 00 00 00 61 00 00 00 08 14 14 22     I>."....a......"
     59d:	22 14 14 14 14 14 22 22 14 14 08 06 01 59 05 02     "....."".....Y..
     5ad:	3e 41 5d 55 5e 7e 09 09 09 7e 7f 49 49 49 36 3e     >A]U^~...~.III6>
     5bd:	41 41 41 22 7f 41 41 41 3e 7f 49 49 49 41 7f 09     AAA".AAA>.IIIA..
     5cd:	09 09 01 3e 41 49 49 32 7f 08 08 08 7f 00 00 7f     ...>AII2........
     5dd:	00 00 20 40 40 40 3f 7f 08 14 22 41 7f 40 40 40     .. @@@?..."A.@@@
     5ed:	00 7f 02 04 02 7f 7f 02 1c 20 7f 3e 41 41 41 3e     ......... .>AAA>
     5fd:	7f 09 09 09 06 3e 41 51 61 7e 7f 09 19 29 46 26     .....>AQa~...)F&
     60d:	49 49 49 32 01 01 7f 01 01 3f 40 40 40 3f 1f 20     III2.....?@@@?. 
     61d:	40 20 1f 3f 40 30 40 3f 63 14 08 14 63 03 04 78     @ .?@0@?c...c..x
     62d:	04 03 61 51 49 45 43 7f 41 00 00 00 00 00 00 00     ..aQIEC.A.......
     63d:	00 00 00 00 41 7f 06 01 06 00 00 40 40 40 40 40     ....A......@@@@@
     64d:	01 02 00 00 00 20 54 54 54 78 7f 48 48 48 30 38     ..... TTTx.HHH08
     65d:	44 44 44 28 38 44 44 44 7f 38 54 54 54 18 08 7e     DDD(8DDD.8TTT..~
     66d:	09 09 01 0c 52 52 52 3e 7f 04 04 04 78 04 7d 40     ....RRR>....x.}@
     67d:	40 20 20 40 40 44 3d 00 7f 10 28 44 20 3e 51 49     @  @@D=...(D >QI
     68d:	46 7c 04 7c 04 78 7c 08 04 04 78 38 44 44 44 38     F|.|.x|...x8DDD8
     69d:	7e 12 12 12 0c 0c 12 12 12 7e 04 78 04 04 08 48     ~........~.x...H
     6ad:	54 54 54 24 04 3f 44 44 40 3c 40 40 3c 40 1c 20     TTT$.?DD@<@@<@. 
     6bd:	40 20 1c 3c 40 30 40 3c 44 28 10 28 44 26 48 48     @ .<@0@<D(.(D&HH
     6cd:	48 3e 44 64 54 4c 44 00 08 3e 41 00 00 00 7f 00     H>DdTLD..>A.....
     6dd:	00 00 41 3e 08 00 00 00 00 00 00 00 00 00 00 00     ..A>............
	...
     6f9:	00 00 00 20 48 3e 09 02 00 00 00 00 00 00 00 00     ... H>..........
     709:	00 00 04 04 7f 04 04 00 00 00 00 00 00 00 00 00     ................
	...
     749:	00 00 00 02 04 01 02 00 00 00 00 00 00 00 18 18     ................
	...
     791:	00 00 00 79 00 00 00 00 00 00 00 48 7e 49 49 42     ...y.......H~IIB
     7a1:	00 00 00 00 00 15 16 7c 16 15 00 00 00 00 00 0a     .......|........
     7b1:	55 55 55 28 00 01 00 01 00 3e 63 5d 6b 3e 00 00     UUU(.....>c]k>..
     7c1:	00 00 00 08 14 2a 14 22 00 00 00 00 00 00 00 00     .....*."........
     7d1:	00 00 3e 41 75 4b 3e 01 01 01 01 01 00 02 05 02     ..>AuK>.........
	...
     7f9:	00 00 06 0f 7f 01 7f 00 00 00 00 00 00 00 00 00     ................
     809:	00 00 00 00 00 00 07 05 07 00 00 22 14 2a 14 08     ...........".*..
     819:	0f 00 3c 20 78 0f 00 48 64 58 00 00 00 00 00 30     ..< x..HdX.....0
     829:	48 45 40 20 00 00 00 00 00 00 00 00 00 00 00 00     HE@ ............
     839:	00 00 00 72 29 29 2a 71 78 25 24 25 78 70 2a 25     ...r))*qx%$%xp*%
     849:	2a 70 7e 09 7f 49 49 0e 51 51 71 11 00 00 00 00     *p~..II.QQq.....
     859:	00 7c 54 56 55 44 00 00 00 00 00 00 00 00 00 00     .|TVUD..........
	...
     881:	00 7a 09 11 22 79 00 00 00 00 00 00 00 00 00 00     .z.."y..........
     891:	00 00 00 00 00 3a 45 45 46 39 3d 42 42 42 3d 22     .....:EEF9=BBB="
     8a1:	14 08 14 22 5c 32 2a 26 1d 00 00 00 00 00 00 00     ..."\2*&........
	...
     8b9:	3c 41 40 41 3c 00 00 00 00 00 00 00 00 00 00 00     <A@A<...........
     8c9:	00 00 00 00 20 55 56 54 78 20 54 56 55 78 20 56     .... UVTx TVUx V
     8d9:	55 56 78 22 51 55 56 79 20 55 54 55 78 00 00 00     UVx"QUVy UTUx...
     8e9:	00 00 24 54 78 54 58 0c 52 52 72 12 38 55 56 54     ..$TxTX.RRr.8UVT
     8f9:	18 38 54 56 55 18 38 56 55 56 18 38 55 54 55 18     .8TVU.8VUV.8UTU.
     909:	00 49 7a 40 00 00 48 7a 41 00 00 4a 79 42 00 00     .Iz@..HzA..JyB..
     919:	4a 78 42 00 00 00 00 00 00 7a 11 09 0a 71 30 49     JxB......z...q0I
     929:	4a 48 30 30 48 4a 49 30 30 4a 49 4a 30 32 49 49     JH00HJI00JIJ02II
     939:	4a 31 30 4a 48 4a 30 08 08 2a 08 08 18 64 3c 26     J10JHJ0..*...d<&
     949:	18 38 41 42 20 78 38 40 42 21 78 38 42 41 22 78     .8AB x8@B!x8BA"x
     959:	38 42 40 22 78 00 00 00 00 00 00 00 00 00 00 0c     8B@"x...........
     969:	51 50 51 3c                                         QPQ<

0000096d <__c.1790>:
     96d:	6e 61 6e 00                                         nan.

00000971 <__c.1788>:
     971:	69 6e 66 00 00 40 7a 10 f3 5a 00 a0 72 4e 18 09     inf..@z..Z..rN..
     981:	00 10 a5 d4 e8 00 00 e8 76 48 17 00 00 e4 0b 54     ........vH.....T
     991:	02 00 00 ca 9a 3b 00 00 00 e1 f5 05 00 00 80 96     .....;..........
     9a1:	98 00 00 00 40 42 0f 00 00 00 a0 86 01 00 00 00     ....@B..........
     9b1:	10 27 00 00 00 00 e8 03 00 00 00 00 64 00 00 00     .'..........d...
     9c1:	00 00 0a 00 00 00 00 00 01 00 00 00 00 00 2c 76     ..............,v
     9d1:	d8 88 dc 67 4f 08 23 df c1 df ae 59 e1 b1 b7 96     ...gO.#....Y....
     9e1:	e5 e3 e4 53 c6 3a e6 51 99 76 96 e8 e6 c2 84 26     ...S.:.Q.v.....&
     9f1:	eb 89 8c 9b 62 ed 40 7c 6f fc ef bc 9c 9f 40 f2     ....b.@|o.....@.
     a01:	ba a5 6f a5 f4 90 05 5a 2a f7 5c 93 6b 6c f9 67     ..o....Z*.\.kl.g
     a11:	6d c1 1b fc e0 e4 0d 47 fe f5 20 e6 b5 00 d0 ed     m......G.. .....
     a21:	90 2e 03 00 94 35 77 05 00 80 84 1e 08 00 00 20     .....5w........ 
     a31:	4e 0a 00 00 00 c8 0c 33 33 33 33 0f 98 6e 12 83     N......3333..n..
     a41:	11 41 ef 8d 21 14 89 3b e6 55 16 cf fe e6 db 18     .A..!..;.U......
     a51:	d1 84 4b 38 1b f7 7c 1d 90 1d a4 bb e4 24 20 32     ..K8..|......$ 2
     a61:	84 72 5e 22 81 00 c9 f1 24 ec a1 e5 3d 27 00        .r^"....$...='.

00000a70 <__ctors_end>:
     a70:	11 24       	eor	r1, r1
     a72:	1f be       	out	0x3f, r1	; 63
     a74:	cf ef       	ldi	r28, 0xFF	; 255
     a76:	d0 e1       	ldi	r29, 0x10	; 16
     a78:	de bf       	out	0x3e, r29	; 62
     a7a:	cd bf       	out	0x3d, r28	; 61

00000a7c <__do_copy_data>:
     a7c:	13 e0       	ldi	r17, 0x03	; 3
     a7e:	a0 e0       	ldi	r26, 0x00	; 0
     a80:	b1 e0       	ldi	r27, 0x01	; 1
     a82:	e6 e4       	ldi	r30, 0x46	; 70
     a84:	fd e9       	ldi	r31, 0x9D	; 157
     a86:	00 e0       	ldi	r16, 0x00	; 0
     a88:	0b bf       	out	0x3b, r16	; 59
     a8a:	02 c0       	rjmp	.+4      	; 0xa90 <__do_copy_data+0x14>
     a8c:	07 90       	elpm	r0, Z+
     a8e:	0d 92       	st	X+, r0
     a90:	a6 38       	cpi	r26, 0x86	; 134
     a92:	b1 07       	cpc	r27, r17
     a94:	d9 f7       	brne	.-10     	; 0xa8c <__do_copy_data+0x10>

00000a96 <__do_clear_bss>:
     a96:	18 e0       	ldi	r17, 0x08	; 8
     a98:	a6 e8       	ldi	r26, 0x86	; 134
     a9a:	b3 e0       	ldi	r27, 0x03	; 3
     a9c:	01 c0       	rjmp	.+2      	; 0xaa0 <.do_clear_bss_start>

00000a9e <.do_clear_bss_loop>:
     a9e:	1d 92       	st	X+, r1

00000aa0 <.do_clear_bss_start>:
     aa0:	af 3a       	cpi	r26, 0xAF	; 175
     aa2:	b1 07       	cpc	r27, r17
     aa4:	e1 f7       	brne	.-8      	; 0xa9e <.do_clear_bss_loop>
     aa6:	0e 94 f3 07 	call	0xfe6	; 0xfe6 <main>
     aaa:	0c 94 a1 4e 	jmp	0x9d42	; 0x9d42 <_exit>

00000aae <__bad_interrupt>:
     aae:	0c 94 6f 2f 	jmp	0x5ede	; 0x5ede <__vector_default>

00000ab2 <kill_stack>:
   TaskFour.offset.nano_secs= 0; 
   nrk_activate_task (&TaskFour); 
}

uint8_t kill_stack(uint8_t val)
{	
     ab2:	af 92       	push	r10
     ab4:	bf 92       	push	r11
     ab6:	df 92       	push	r13
     ab8:	ef 92       	push	r14
     aba:	ff 92       	push	r15
     abc:	0f 93       	push	r16
     abe:	1f 93       	push	r17
     ac0:	df 93       	push	r29
     ac2:	cf 93       	push	r28
     ac4:	cd b7       	in	r28, 0x3d	; 61
     ac6:	de b7       	in	r29, 0x3e	; 62
     ac8:	2a 97       	sbiw	r28, 0x0a	; 10
     aca:	0f b6       	in	r0, 0x3f	; 63
     acc:	f8 94       	cli
     ace:	de bf       	out	0x3e, r29	; 62
     ad0:	0f be       	out	0x3f, r0	; 63
     ad2:	cd bf       	out	0x3d, r28	; 61
     ad4:	d8 2e       	mov	r13, r24
     ad6:	7e 01       	movw	r14, r28
     ad8:	08 94       	sec
     ada:	e1 1c       	adc	r14, r1
     adc:	f1 1c       	adc	r15, r1
     ade:	87 01       	movw	r16, r14
char bad_memory[10];
uint8_t i;
for(i=0; i<10; i++ ) bad_memory[i]=i;
     ae0:	9e 01       	movw	r18, r28
     ae2:	25 5f       	subi	r18, 0xF5	; 245
     ae4:	3f 4f       	sbci	r19, 0xFF	; 255
     ae6:	80 2f       	mov	r24, r16
     ae8:	8e 19       	sub	r24, r14
     aea:	d8 01       	movw	r26, r16
     aec:	8d 93       	st	X+, r24
     aee:	8d 01       	movw	r16, r26
     af0:	a2 17       	cp	r26, r18
     af2:	b3 07       	cpc	r27, r19
     af4:	c1 f7       	brne	.-16     	; 0xae6 <kill_stack+0x34>
for(i=0; i<10; i++ ) printf( "%d ", bad_memory[i]);
     af6:	80 e0       	ldi	r24, 0x00	; 0
     af8:	a8 2e       	mov	r10, r24
     afa:	81 e0       	ldi	r24, 0x01	; 1
     afc:	b8 2e       	mov	r11, r24
     afe:	00 d0       	rcall	.+0      	; 0xb00 <kill_stack+0x4e>
     b00:	00 d0       	rcall	.+0      	; 0xb02 <kill_stack+0x50>
     b02:	ed b7       	in	r30, 0x3d	; 61
     b04:	fe b7       	in	r31, 0x3e	; 62
     b06:	31 96       	adiw	r30, 0x01	; 1
     b08:	ad b7       	in	r26, 0x3d	; 61
     b0a:	be b7       	in	r27, 0x3e	; 62
     b0c:	12 96       	adiw	r26, 0x02	; 2
     b0e:	bc 92       	st	X, r11
     b10:	ae 92       	st	-X, r10
     b12:	11 97       	sbiw	r26, 0x01	; 1
     b14:	d7 01       	movw	r26, r14
     b16:	8d 91       	ld	r24, X+
     b18:	7d 01       	movw	r14, r26
     b1a:	82 83       	std	Z+2, r24	; 0x02
     b1c:	13 82       	std	Z+3, r1	; 0x03
     b1e:	0e 94 c3 4c 	call	0x9986	; 0x9986 <printf>
     b22:	0f 90       	pop	r0
     b24:	0f 90       	pop	r0
     b26:	0f 90       	pop	r0
     b28:	0f 90       	pop	r0
     b2a:	e0 16       	cp	r14, r16
     b2c:	f1 06       	cpc	r15, r17
     b2e:	39 f7       	brne	.-50     	; 0xafe <kill_stack+0x4c>
   printf( "Die Stack %d\r\n",val );
     b30:	00 d0       	rcall	.+0      	; 0xb32 <kill_stack+0x80>
     b32:	00 d0       	rcall	.+0      	; 0xb34 <kill_stack+0x82>
     b34:	ed b7       	in	r30, 0x3d	; 61
     b36:	fe b7       	in	r31, 0x3e	; 62
     b38:	31 96       	adiw	r30, 0x01	; 1
     b3a:	84 e0       	ldi	r24, 0x04	; 4
     b3c:	91 e0       	ldi	r25, 0x01	; 1
     b3e:	ad b7       	in	r26, 0x3d	; 61
     b40:	be b7       	in	r27, 0x3e	; 62
     b42:	12 96       	adiw	r26, 0x02	; 2
     b44:	9c 93       	st	X, r25
     b46:	8e 93       	st	-X, r24
     b48:	11 97       	sbiw	r26, 0x01	; 1
     b4a:	d2 82       	std	Z+2, r13	; 0x02
     b4c:	13 82       	std	Z+3, r1	; 0x03
     b4e:	0e 94 c3 4c 	call	0x9986	; 0x9986 <printf>
if(val>1) kill_stack(val-1);
     b52:	0f 90       	pop	r0
     b54:	0f 90       	pop	r0
     b56:	0f 90       	pop	r0
     b58:	0f 90       	pop	r0
     b5a:	b1 e0       	ldi	r27, 0x01	; 1
     b5c:	bd 15       	cp	r27, r13
     b5e:	20 f4       	brcc	.+8      	; 0xb68 <kill_stack+0xb6>
     b60:	8d 2d       	mov	r24, r13
     b62:	81 50       	subi	r24, 0x01	; 1
     b64:	0e 94 59 05 	call	0xab2	; 0xab2 <kill_stack>
return 0;
}
     b68:	80 e0       	ldi	r24, 0x00	; 0
     b6a:	2a 96       	adiw	r28, 0x0a	; 10
     b6c:	0f b6       	in	r0, 0x3f	; 63
     b6e:	f8 94       	cli
     b70:	de bf       	out	0x3e, r29	; 62
     b72:	0f be       	out	0x3f, r0	; 63
     b74:	cd bf       	out	0x3d, r28	; 61
     b76:	cf 91       	pop	r28
     b78:	df 91       	pop	r29
     b7a:	1f 91       	pop	r17
     b7c:	0f 91       	pop	r16
     b7e:	ff 90       	pop	r15
     b80:	ef 90       	pop	r14
     b82:	df 90       	pop	r13
     b84:	bf 90       	pop	r11
     b86:	af 90       	pop	r10
     b88:	08 95       	ret

00000b8a <nrk_create_taskset>:

}

void
nrk_create_taskset()
{
     b8a:	2f 92       	push	r2
     b8c:	3f 92       	push	r3
     b8e:	4f 92       	push	r4
     b90:	5f 92       	push	r5
     b92:	6f 92       	push	r6
     b94:	7f 92       	push	r7
     b96:	8f 92       	push	r8
     b98:	9f 92       	push	r9
     b9a:	af 92       	push	r10
     b9c:	bf 92       	push	r11
     b9e:	cf 92       	push	r12
     ba0:	df 92       	push	r13
     ba2:	ef 92       	push	r14
     ba4:	ff 92       	push	r15
     ba6:	0f 93       	push	r16
     ba8:	1f 93       	push	r17
  nrk_task_set_entry_function( &TaskOne, Task1);
     baa:	01 e4       	ldi	r16, 0x41	; 65
     bac:	14 e0       	ldi	r17, 0x04	; 4
     bae:	c8 01       	movw	r24, r16
     bb0:	63 ea       	ldi	r22, 0xA3	; 163
     bb2:	77 e0       	ldi	r23, 0x07	; 7
     bb4:	0e 94 12 30 	call	0x6024	; 0x6024 <nrk_task_set_entry_function>
  nrk_task_set_stk( &TaskOne, Stack1, NRK_APP_STACKSIZE);
     bb8:	c8 01       	movw	r24, r16
     bba:	67 e1       	ldi	r22, 0x17	; 23
     bbc:	75 e0       	ldi	r23, 0x05	; 5
     bbe:	40 e8       	ldi	r20, 0x80	; 128
     bc0:	50 e0       	ldi	r21, 0x00	; 0
     bc2:	0e 94 73 30 	call	0x60e6	; 0x60e6 <nrk_task_set_stk>
  TaskOne.prio = 3;
     bc6:	43 e0       	ldi	r20, 0x03	; 3
     bc8:	a4 2e       	mov	r10, r20
     bca:	a0 92 49 04 	sts	0x0449, r10
  TaskOne.FirstActivation = TRUE;
     bce:	bb 24       	eor	r11, r11
     bd0:	b3 94       	inc	r11
     bd2:	b0 92 48 04 	sts	0x0448, r11
  TaskOne.Type = BASIC_TASK;
     bd6:	b0 92 4a 04 	sts	0x044A, r11
  TaskOne.SchType = PREEMPTIVE;
     bda:	b0 92 4b 04 	sts	0x044B, r11
  TaskOne.period.secs = 6;
     bde:	86 e0       	ldi	r24, 0x06	; 6
     be0:	90 e0       	ldi	r25, 0x00	; 0
     be2:	a0 e0       	ldi	r26, 0x00	; 0
     be4:	b0 e0       	ldi	r27, 0x00	; 0
     be6:	80 93 4c 04 	sts	0x044C, r24
     bea:	90 93 4d 04 	sts	0x044D, r25
     bee:	a0 93 4e 04 	sts	0x044E, r26
     bf2:	b0 93 4f 04 	sts	0x044F, r27
  TaskOne.period.nano_secs = 0*NANOS_PER_MS;
     bf6:	10 92 50 04 	sts	0x0450, r1
     bfa:	10 92 51 04 	sts	0x0451, r1
     bfe:	10 92 52 04 	sts	0x0452, r1
     c02:	10 92 53 04 	sts	0x0453, r1
  TaskOne.prelevel=1;
     c06:	b0 92 64 04 	sts	0x0464, r11
  TaskOne.cpu_reserve.secs = 1;
     c0a:	31 e0       	ldi	r19, 0x01	; 1
     c0c:	c3 2e       	mov	r12, r19
     c0e:	d1 2c       	mov	r13, r1
     c10:	e1 2c       	mov	r14, r1
     c12:	f1 2c       	mov	r15, r1
     c14:	c0 92 54 04 	sts	0x0454, r12
     c18:	d0 92 55 04 	sts	0x0455, r13
     c1c:	e0 92 56 04 	sts	0x0456, r14
     c20:	f0 92 57 04 	sts	0x0457, r15
  TaskOne.cpu_reserve.nano_secs = 100*NANOS_PER_MS;
     c24:	80 e0       	ldi	r24, 0x00	; 0
     c26:	91 ee       	ldi	r25, 0xE1	; 225
     c28:	a5 ef       	ldi	r26, 0xF5	; 245
     c2a:	b5 e0       	ldi	r27, 0x05	; 5
     c2c:	80 93 58 04 	sts	0x0458, r24
     c30:	90 93 59 04 	sts	0x0459, r25
     c34:	a0 93 5a 04 	sts	0x045A, r26
     c38:	b0 93 5b 04 	sts	0x045B, r27
  TaskOne.offset.secs = 0;
     c3c:	10 92 5c 04 	sts	0x045C, r1
     c40:	10 92 5d 04 	sts	0x045D, r1
     c44:	10 92 5e 04 	sts	0x045E, r1
     c48:	10 92 5f 04 	sts	0x045F, r1
  TaskOne.offset.nano_secs= 0;
     c4c:	10 92 60 04 	sts	0x0460, r1
     c50:	10 92 61 04 	sts	0x0461, r1
     c54:	10 92 62 04 	sts	0x0462, r1
     c58:	10 92 63 04 	sts	0x0463, r1
  nrk_activate_task (&TaskOne);
     c5c:	c8 01       	movw	r24, r16
     c5e:	0e 94 ad 26 	call	0x4d5a	; 0x4d5a <nrk_activate_task>
   // TaskTwo.cpu_reserve.nano_secs = 100*NANOS_PER_MS; 
   // TaskTwo.offset.secs = 0;
   // TaskTwo.offset.nano_secs= 0; 
   // nrk_activate_task (&TaskTwo); 
  
  nrk_task_set_entry_function( &TaskThree, Task3); 
     c62:	03 ef       	ldi	r16, 0xF3	; 243
     c64:	14 e0       	ldi	r17, 0x04	; 4
     c66:	c8 01       	movw	r24, r16
     c68:	6a e2       	ldi	r22, 0x2A	; 42
     c6a:	77 e0       	ldi	r23, 0x07	; 7
     c6c:	0e 94 12 30 	call	0x6024	; 0x6024 <nrk_task_set_entry_function>
   nrk_task_set_stk( &TaskThree, Stack3, NRK_APP_STACKSIZE); 
     c70:	c8 01       	movw	r24, r16
     c72:	6f eb       	ldi	r22, 0xBF	; 191
     c74:	73 e0       	ldi	r23, 0x03	; 3
     c76:	40 e8       	ldi	r20, 0x80	; 128
     c78:	50 e0       	ldi	r21, 0x00	; 0
     c7a:	0e 94 73 30 	call	0x60e6	; 0x60e6 <nrk_task_set_stk>
   TaskThree.prio = 1; 
     c7e:	b0 92 fb 04 	sts	0x04FB, r11
   TaskThree.FirstActivation = TRUE; 
     c82:	b0 92 fa 04 	sts	0x04FA, r11
   TaskThree.Type = CBS_TASK; 
     c86:	a0 92 fc 04 	sts	0x04FC, r10
   TaskThree.SchType = PREEMPTIVE; 
     c8a:	b0 92 fd 04 	sts	0x04FD, r11
   TaskThree.period.secs = 1; 
     c8e:	c0 92 fe 04 	sts	0x04FE, r12
     c92:	d0 92 ff 04 	sts	0x04FF, r13
     c96:	e0 92 00 05 	sts	0x0500, r14
     c9a:	f0 92 01 05 	sts	0x0501, r15
   TaskThree.period.nano_secs = 0;
     c9e:	10 92 02 05 	sts	0x0502, r1
     ca2:	10 92 03 05 	sts	0x0503, r1
     ca6:	10 92 04 05 	sts	0x0504, r1
     caa:	10 92 05 05 	sts	0x0505, r1
   TaskThree.prelevel=2;
     cae:	82 e0       	ldi	r24, 0x02	; 2
     cb0:	80 93 16 05 	sts	0x0516, r24
   TaskThree.cpu_reserve.secs = 3; 
     cb4:	23 e0       	ldi	r18, 0x03	; 3
     cb6:	22 2e       	mov	r2, r18
     cb8:	31 2c       	mov	r3, r1
     cba:	41 2c       	mov	r4, r1
     cbc:	51 2c       	mov	r5, r1
     cbe:	20 92 06 05 	sts	0x0506, r2
     cc2:	30 92 07 05 	sts	0x0507, r3
     cc6:	40 92 08 05 	sts	0x0508, r4
     cca:	50 92 09 05 	sts	0x0509, r5
   TaskThree.cpu_reserve.nano_secs = 50*NANOS_PER_MS; 
     cce:	90 e8       	ldi	r25, 0x80	; 128
     cd0:	69 2e       	mov	r6, r25
     cd2:	90 ef       	ldi	r25, 0xF0	; 240
     cd4:	79 2e       	mov	r7, r25
     cd6:	9a ef       	ldi	r25, 0xFA	; 250
     cd8:	89 2e       	mov	r8, r25
     cda:	92 e0       	ldi	r25, 0x02	; 2
     cdc:	99 2e       	mov	r9, r25
     cde:	60 92 0a 05 	sts	0x050A, r6
     ce2:	70 92 0b 05 	sts	0x050B, r7
     ce6:	80 92 0c 05 	sts	0x050C, r8
     cea:	90 92 0d 05 	sts	0x050D, r9
   TaskThree.offset.secs = 0; 
     cee:	10 92 0e 05 	sts	0x050E, r1
     cf2:	10 92 0f 05 	sts	0x050F, r1
     cf6:	10 92 10 05 	sts	0x0510, r1
     cfa:	10 92 11 05 	sts	0x0511, r1
   TaskThree.offset.nano_secs= 0; 
     cfe:	10 92 12 05 	sts	0x0512, r1
     d02:	10 92 13 05 	sts	0x0513, r1
     d06:	10 92 14 05 	sts	0x0514, r1
     d0a:	10 92 15 05 	sts	0x0515, r1
    nrk_activate_task (&TaskThree);
     d0e:	c8 01       	movw	r24, r16
     d10:	0e 94 ad 26 	call	0x4d5a	; 0x4d5a <nrk_activate_task>
   
   nrk_activate_task (&TaskThree); 
     d14:	c8 01       	movw	r24, r16
     d16:	0e 94 ad 26 	call	0x4d5a	; 0x4d5a <nrk_activate_task>
   nrk_task_set_entry_function( &TaskFour, Task4); 
     d1a:	07 e9       	ldi	r16, 0x97	; 151
     d1c:	13 e0       	ldi	r17, 0x03	; 3
     d1e:	c8 01       	movw	r24, r16
     d20:	6a ee       	ldi	r22, 0xEA	; 234
     d22:	76 e0       	ldi	r23, 0x06	; 6
     d24:	0e 94 12 30 	call	0x6024	; 0x6024 <nrk_task_set_entry_function>
   nrk_task_set_stk( &TaskFour, Stack4, NRK_APP_STACKSIZE); 
     d28:	c8 01       	movw	r24, r16
     d2a:	68 eb       	ldi	r22, 0xB8	; 184
     d2c:	76 e0       	ldi	r23, 0x06	; 6
     d2e:	40 e8       	ldi	r20, 0x80	; 128
     d30:	50 e0       	ldi	r21, 0x00	; 0
     d32:	0e 94 73 30 	call	0x60e6	; 0x60e6 <nrk_task_set_stk>
   TaskFour.prio = 1; 
     d36:	b0 92 9f 03 	sts	0x039F, r11
   TaskFour.FirstActivation = TRUE; 
     d3a:	b0 92 9e 03 	sts	0x039E, r11
   TaskFour.Type = CBS_TASK; 
     d3e:	a0 92 a0 03 	sts	0x03A0, r10
   TaskFour.SchType = PREEMPTIVE; 
     d42:	b0 92 a1 03 	sts	0x03A1, r11
   TaskFour.period.secs = 1; 
     d46:	c0 92 a2 03 	sts	0x03A2, r12
     d4a:	d0 92 a3 03 	sts	0x03A3, r13
     d4e:	e0 92 a4 03 	sts	0x03A4, r14
     d52:	f0 92 a5 03 	sts	0x03A5, r15
   TaskFour.period.nano_secs = 0; 
     d56:	10 92 a6 03 	sts	0x03A6, r1
     d5a:	10 92 a7 03 	sts	0x03A7, r1
     d5e:	10 92 a8 03 	sts	0x03A8, r1
     d62:	10 92 a9 03 	sts	0x03A9, r1
   TaskFour.prelevel=2;
     d66:	82 e0       	ldi	r24, 0x02	; 2
     d68:	80 93 ba 03 	sts	0x03BA, r24
   TaskFour.cpu_reserve.secs = 3; 
     d6c:	20 92 aa 03 	sts	0x03AA, r2
     d70:	30 92 ab 03 	sts	0x03AB, r3
     d74:	40 92 ac 03 	sts	0x03AC, r4
     d78:	50 92 ad 03 	sts	0x03AD, r5
   TaskFour.cpu_reserve.nano_secs = 50*NANOS_PER_MS; 
     d7c:	60 92 ae 03 	sts	0x03AE, r6
     d80:	70 92 af 03 	sts	0x03AF, r7
     d84:	80 92 b0 03 	sts	0x03B0, r8
     d88:	90 92 b1 03 	sts	0x03B1, r9
   TaskFour.offset.secs = 0; 
     d8c:	10 92 b2 03 	sts	0x03B2, r1
     d90:	10 92 b3 03 	sts	0x03B3, r1
     d94:	10 92 b4 03 	sts	0x03B4, r1
     d98:	10 92 b5 03 	sts	0x03B5, r1
   TaskFour.offset.nano_secs= 0; 
     d9c:	10 92 b6 03 	sts	0x03B6, r1
     da0:	10 92 b7 03 	sts	0x03B7, r1
     da4:	10 92 b8 03 	sts	0x03B8, r1
     da8:	10 92 b9 03 	sts	0x03B9, r1
   nrk_activate_task (&TaskFour); 
     dac:	c8 01       	movw	r24, r16
     dae:	0e 94 ad 26 	call	0x4d5a	; 0x4d5a <nrk_activate_task>
}
     db2:	1f 91       	pop	r17
     db4:	0f 91       	pop	r16
     db6:	ff 90       	pop	r15
     db8:	ef 90       	pop	r14
     dba:	df 90       	pop	r13
     dbc:	cf 90       	pop	r12
     dbe:	bf 90       	pop	r11
     dc0:	af 90       	pop	r10
     dc2:	9f 90       	pop	r9
     dc4:	8f 90       	pop	r8
     dc6:	7f 90       	pop	r7
     dc8:	6f 90       	pop	r6
     dca:	5f 90       	pop	r5
     dcc:	4f 90       	pop	r4
     dce:	3f 90       	pop	r3
     dd0:	2f 90       	pop	r2
     dd2:	08 95       	ret

00000dd4 <Task4>:

}

// To create Task4 with the utilization of semaphore1
void Task4()
{
     dd4:	0f 93       	push	r16
     dd6:	1f 93       	push	r17
     dd8:	cf 93       	push	r28
     dda:	df 93       	push	r29
  uint8_t counter;
  uint8_t waitCount=0;

  printf( "Task4 PID=%d\r\n",nrk_get_pid());
     ddc:	0e 94 e9 23 	call	0x47d2	; 0x47d2 <nrk_get_pid>
     de0:	00 d0       	rcall	.+0      	; 0xde2 <Task4+0xe>
     de2:	00 d0       	rcall	.+0      	; 0xde4 <Task4+0x10>
     de4:	ed b7       	in	r30, 0x3d	; 61
     de6:	fe b7       	in	r31, 0x3e	; 62
     de8:	31 96       	adiw	r30, 0x01	; 1
     dea:	23 e1       	ldi	r18, 0x13	; 19
     dec:	31 e0       	ldi	r19, 0x01	; 1
     dee:	ad b7       	in	r26, 0x3d	; 61
     df0:	be b7       	in	r27, 0x3e	; 62
     df2:	12 96       	adiw	r26, 0x02	; 2
     df4:	3c 93       	st	X, r19
     df6:	2e 93       	st	-X, r18
     df8:	11 97       	sbiw	r26, 0x01	; 1
     dfa:	82 83       	std	Z+2, r24	; 0x02
     dfc:	13 82       	std	Z+3, r1	; 0x03
     dfe:	0e 94 c3 4c 	call	0x9986	; 0x9986 <printf>
     e02:	00 e0       	ldi	r16, 0x00	; 0
     e04:	10 e0       	ldi	r17, 0x00	; 0
     e06:	0f 90       	pop	r0
     e08:	0f 90       	pop	r0
     e0a:	0f 90       	pop	r0
     e0c:	0f 90       	pop	r0
  {
        nrk_led_toggle(RED_LED);
//        printf( "Task4 counter=%d\r\n",counter );
		if(0==waitCount)
		{
			printf("Task4 CBS_TASK counter %d \r\n",counter);
     e0e:	c2 e2       	ldi	r28, 0x22	; 34
     e10:	d1 e0       	ldi	r29, 0x01	; 1

  printf( "Task4 PID=%d\r\n",nrk_get_pid());
  counter=0;
   while(1) 
  {
        nrk_led_toggle(RED_LED);
     e12:	82 e0       	ldi	r24, 0x02	; 2
     e14:	90 e0       	ldi	r25, 0x00	; 0
     e16:	0e 94 e6 12 	call	0x25cc	; 0x25cc <nrk_led_toggle>
//        printf( "Task4 counter=%d\r\n",counter );
		if(0==waitCount)
     e1a:	11 23       	and	r17, r17
     e1c:	a1 f4       	brne	.+40     	; 0xe46 <Task4+0x72>
		{
			printf("Task4 CBS_TASK counter %d \r\n",counter);
     e1e:	00 d0       	rcall	.+0      	; 0xe20 <Task4+0x4c>
     e20:	00 d0       	rcall	.+0      	; 0xe22 <Task4+0x4e>
     e22:	ed b7       	in	r30, 0x3d	; 61
     e24:	fe b7       	in	r31, 0x3e	; 62
     e26:	31 96       	adiw	r30, 0x01	; 1
     e28:	ad b7       	in	r26, 0x3d	; 61
     e2a:	be b7       	in	r27, 0x3e	; 62
     e2c:	12 96       	adiw	r26, 0x02	; 2
     e2e:	dc 93       	st	X, r29
     e30:	ce 93       	st	-X, r28
     e32:	11 97       	sbiw	r26, 0x01	; 1
     e34:	02 83       	std	Z+2, r16	; 0x02
     e36:	13 82       	std	Z+3, r1	; 0x03
     e38:	0e 94 c3 4c 	call	0x9986	; 0x9986 <printf>
			counter++;
     e3c:	0f 5f       	subi	r16, 0xFF	; 255
     e3e:	0f 90       	pop	r0
     e40:	0f 90       	pop	r0
     e42:	0f 90       	pop	r0
     e44:	0f 90       	pop	r0
		}
	   	 waitCount++;
     e46:	1f 5f       	subi	r17, 0xFF	; 255
	   if(3==waitCount)
     e48:	13 30       	cpi	r17, 0x03	; 3
     e4a:	09 f4       	brne	.+2      	; 0xe4e <Task4+0x7a>
     e4c:	10 e0       	ldi	r17, 0x00	; 0
	   {
			waitCount=0;
		}
        nrk_wait_until_next_period();
     e4e:	0e 94 91 25 	call	0x4b22	; 0x4b22 <nrk_wait_until_next_period>
     e52:	df cf       	rjmp	.-66     	; 0xe12 <Task4+0x3e>

00000e54 <Task3>:
  }
}

// To create Task3 with the utilization of semaphore1
void Task3()
{
     e54:	0f 93       	push	r16
     e56:	1f 93       	push	r17
     e58:	cf 93       	push	r28
     e5a:	df 93       	push	r29
  uint8_t counter = 0;
  printf( "Task3 PID=%d\r\n",nrk_get_pid());
     e5c:	0e 94 e9 23 	call	0x47d2	; 0x47d2 <nrk_get_pid>
     e60:	00 d0       	rcall	.+0      	; 0xe62 <Task3+0xe>
     e62:	00 d0       	rcall	.+0      	; 0xe64 <Task3+0x10>
     e64:	ed b7       	in	r30, 0x3d	; 61
     e66:	fe b7       	in	r31, 0x3e	; 62
     e68:	31 96       	adiw	r30, 0x01	; 1
     e6a:	2f e3       	ldi	r18, 0x3F	; 63
     e6c:	31 e0       	ldi	r19, 0x01	; 1
     e6e:	ad b7       	in	r26, 0x3d	; 61
     e70:	be b7       	in	r27, 0x3e	; 62
     e72:	12 96       	adiw	r26, 0x02	; 2
     e74:	3c 93       	st	X, r19
     e76:	2e 93       	st	-X, r18
     e78:	11 97       	sbiw	r26, 0x01	; 1
     e7a:	82 83       	std	Z+2, r24	; 0x02
     e7c:	13 82       	std	Z+3, r1	; 0x03
     e7e:	0e 94 c3 4c 	call	0x9986	; 0x9986 <printf>
     e82:	00 e0       	ldi	r16, 0x00	; 0
     e84:	10 e0       	ldi	r17, 0x00	; 0
     e86:	0f 90       	pop	r0
     e88:	0f 90       	pop	r0
     e8a:	0f 90       	pop	r0
     e8c:	0f 90       	pop	r0
  {
        nrk_led_toggle(GREEN_LED);
//        printf( "Task3 counter=%d\r\n",counter );
		if(0==waitCount)
		{
			printf("Task3 CBS_TASK counter %d \r\n",counter);
     e8e:	ce e4       	ldi	r28, 0x4E	; 78
     e90:	d1 e0       	ldi	r29, 0x01	; 1
  uint8_t count = 0;
  uint8_t waitCount=0;
  
 while(1) 
  {
        nrk_led_toggle(GREEN_LED);
     e92:	81 e0       	ldi	r24, 0x01	; 1
     e94:	90 e0       	ldi	r25, 0x00	; 0
     e96:	0e 94 e6 12 	call	0x25cc	; 0x25cc <nrk_led_toggle>
//        printf( "Task3 counter=%d\r\n",counter );
		if(0==waitCount)
     e9a:	11 23       	and	r17, r17
     e9c:	a1 f4       	brne	.+40     	; 0xec6 <Task3+0x72>
		{
			printf("Task3 CBS_TASK counter %d \r\n",counter);
     e9e:	00 d0       	rcall	.+0      	; 0xea0 <Task3+0x4c>
     ea0:	00 d0       	rcall	.+0      	; 0xea2 <Task3+0x4e>
     ea2:	ed b7       	in	r30, 0x3d	; 61
     ea4:	fe b7       	in	r31, 0x3e	; 62
     ea6:	31 96       	adiw	r30, 0x01	; 1
     ea8:	ad b7       	in	r26, 0x3d	; 61
     eaa:	be b7       	in	r27, 0x3e	; 62
     eac:	12 96       	adiw	r26, 0x02	; 2
     eae:	dc 93       	st	X, r29
     eb0:	ce 93       	st	-X, r28
     eb2:	11 97       	sbiw	r26, 0x01	; 1
     eb4:	02 83       	std	Z+2, r16	; 0x02
     eb6:	13 82       	std	Z+3, r1	; 0x03
     eb8:	0e 94 c3 4c 	call	0x9986	; 0x9986 <printf>
			counter++;
     ebc:	0f 5f       	subi	r16, 0xFF	; 255
     ebe:	0f 90       	pop	r0
     ec0:	0f 90       	pop	r0
     ec2:	0f 90       	pop	r0
     ec4:	0f 90       	pop	r0
		}
	   	 waitCount++;
     ec6:	1f 5f       	subi	r17, 0xFF	; 255
	   if(7==waitCount)
     ec8:	17 30       	cpi	r17, 0x07	; 7
     eca:	09 f4       	brne	.+2      	; 0xece <Task3+0x7a>
     ecc:	10 e0       	ldi	r17, 0x00	; 0
	   {
			waitCount=0;
		}
        nrk_wait_until_next_period();
     ece:	0e 94 91 25 	call	0x4b22	; 0x4b22 <nrk_wait_until_next_period>
     ed2:	df cf       	rjmp	.-66     	; 0xe92 <Task3+0x3e>

00000ed4 <Task2>:
	 }
}

// To create Task2
void Task2()
{
     ed4:	0f 93       	push	r16
     ed6:	1f 93       	push	r17
     ed8:	cf 93       	push	r28
     eda:	df 93       	push	r29
  int16_t counter;
  printf( "Task2 PID=%u\r\n",nrk_get_pid());
     edc:	0e 94 e9 23 	call	0x47d2	; 0x47d2 <nrk_get_pid>
     ee0:	00 d0       	rcall	.+0      	; 0xee2 <Task2+0xe>
     ee2:	00 d0       	rcall	.+0      	; 0xee4 <Task2+0x10>
     ee4:	ed b7       	in	r30, 0x3d	; 61
     ee6:	fe b7       	in	r31, 0x3e	; 62
     ee8:	31 96       	adiw	r30, 0x01	; 1
     eea:	2b e6       	ldi	r18, 0x6B	; 107
     eec:	31 e0       	ldi	r19, 0x01	; 1
     eee:	ad b7       	in	r26, 0x3d	; 61
     ef0:	be b7       	in	r27, 0x3e	; 62
     ef2:	12 96       	adiw	r26, 0x02	; 2
     ef4:	3c 93       	st	X, r19
     ef6:	2e 93       	st	-X, r18
     ef8:	11 97       	sbiw	r26, 0x01	; 1
     efa:	82 83       	std	Z+2, r24	; 0x02
     efc:	13 82       	std	Z+3, r1	; 0x03
     efe:	0e 94 c3 4c 	call	0x9986	; 0x9986 <printf>
     f02:	c0 e0       	ldi	r28, 0x00	; 0
     f04:	d0 e0       	ldi	r29, 0x00	; 0
     f06:	0f 90       	pop	r0
     f08:	0f 90       	pop	r0
     f0a:	0f 90       	pop	r0
     f0c:	0f 90       	pop	r0
  counter=0;
  while(1) 
  {
    nrk_led_toggle(BLUE_LED);
    printf( "Task2 signed counter=%d\r\n",counter );
     f0e:	0a e7       	ldi	r16, 0x7A	; 122
     f10:	11 e0       	ldi	r17, 0x01	; 1
  int16_t counter;
  printf( "Task2 PID=%u\r\n",nrk_get_pid());
  counter=0;
  while(1) 
  {
    nrk_led_toggle(BLUE_LED);
     f12:	8f ef       	ldi	r24, 0xFF	; 255
     f14:	90 e0       	ldi	r25, 0x00	; 0
     f16:	0e 94 e6 12 	call	0x25cc	; 0x25cc <nrk_led_toggle>
    printf( "Task2 signed counter=%d\r\n",counter );
     f1a:	00 d0       	rcall	.+0      	; 0xf1c <Task2+0x48>
     f1c:	00 d0       	rcall	.+0      	; 0xf1e <Task2+0x4a>
     f1e:	ed b7       	in	r30, 0x3d	; 61
     f20:	fe b7       	in	r31, 0x3e	; 62
     f22:	12 83       	std	Z+2, r17	; 0x02
     f24:	01 83       	std	Z+1, r16	; 0x01
     f26:	d4 83       	std	Z+4, r29	; 0x04
     f28:	c3 83       	std	Z+3, r28	; 0x03
     f2a:	0e 94 c3 4c 	call	0x9986	; 0x9986 <printf>
    nrk_stats_display_pid(nrk_get_pid());
     f2e:	0f 90       	pop	r0
     f30:	0f 90       	pop	r0
     f32:	0f 90       	pop	r0
     f34:	0f 90       	pop	r0
     f36:	0e 94 e9 23 	call	0x47d2	; 0x47d2 <nrk_get_pid>
     f3a:	0e 94 04 1a 	call	0x3408	; 0x3408 <nrk_stats_display_pid>
    nrk_wait_until_next_period();
     f3e:	0e 94 91 25 	call	0x4b22	; 0x4b22 <nrk_wait_until_next_period>
    counter--;
     f42:	21 97       	sbiw	r28, 0x01	; 1
     f44:	e6 cf       	rjmp	.-52     	; 0xf12 <Task2+0x3e>

00000f46 <Task1>:
  return 0;
}

//To create Task1 and uses the semaphore1
void Task1()
{
     f46:	0f 93       	push	r16
     f48:	1f 93       	push	r17
     f4a:	cf 93       	push	r28
     f4c:	df 93       	push	r29
  uint16_t counter;
  counter=0;

  printf( "My node's address is %u\r\n",NODE_ADDR );  
     f4e:	00 d0       	rcall	.+0      	; 0xf50 <Task1+0xa>
     f50:	00 d0       	rcall	.+0      	; 0xf52 <Task1+0xc>
     f52:	84 e9       	ldi	r24, 0x94	; 148
     f54:	91 e0       	ldi	r25, 0x01	; 1
     f56:	ad b7       	in	r26, 0x3d	; 61
     f58:	be b7       	in	r27, 0x3e	; 62
     f5a:	12 96       	adiw	r26, 0x02	; 2
     f5c:	9c 93       	st	X, r25
     f5e:	8e 93       	st	-X, r24
     f60:	11 97       	sbiw	r26, 0x01	; 1
     f62:	14 96       	adiw	r26, 0x04	; 4
     f64:	1c 92       	st	X, r1
     f66:	1e 92       	st	-X, r1
     f68:	13 97       	sbiw	r26, 0x03	; 3
     f6a:	0e 94 c3 4c 	call	0x9986	; 0x9986 <printf>
  printf( "Task1 PID=%u\r\n",nrk_get_pid());
     f6e:	0f 90       	pop	r0
     f70:	0f 90       	pop	r0
     f72:	0f 90       	pop	r0
     f74:	0f 90       	pop	r0
     f76:	0e 94 e9 23 	call	0x47d2	; 0x47d2 <nrk_get_pid>
     f7a:	00 d0       	rcall	.+0      	; 0xf7c <Task1+0x36>
     f7c:	00 d0       	rcall	.+0      	; 0xf7e <Task1+0x38>
     f7e:	ed b7       	in	r30, 0x3d	; 61
     f80:	fe b7       	in	r31, 0x3e	; 62
     f82:	31 96       	adiw	r30, 0x01	; 1
     f84:	2e ea       	ldi	r18, 0xAE	; 174
     f86:	31 e0       	ldi	r19, 0x01	; 1
     f88:	ad b7       	in	r26, 0x3d	; 61
     f8a:	be b7       	in	r27, 0x3e	; 62
     f8c:	12 96       	adiw	r26, 0x02	; 2
     f8e:	3c 93       	st	X, r19
     f90:	2e 93       	st	-X, r18
     f92:	11 97       	sbiw	r26, 0x01	; 1
     f94:	82 83       	std	Z+2, r24	; 0x02
     f96:	13 82       	std	Z+3, r1	; 0x03
     f98:	0e 94 c3 4c 	call	0x9986	; 0x9986 <printf>
     f9c:	c0 e0       	ldi	r28, 0x00	; 0
     f9e:	d0 e0       	ldi	r29, 0x00	; 0
     fa0:	0f 90       	pop	r0
     fa2:	0f 90       	pop	r0
     fa4:	0f 90       	pop	r0
     fa6:	0f 90       	pop	r0

	 while(1) 
	 {
		nrk_led_toggle(ORANGE_LED);
		printf( "Task1 counter=%u\r\n",counter );
     fa8:	0d eb       	ldi	r16, 0xBD	; 189
     faa:	11 e0       	ldi	r17, 0x01	; 1
  printf( "My node's address is %u\r\n",NODE_ADDR );  
  printf( "Task1 PID=%u\r\n",nrk_get_pid());

	 while(1) 
	 {
		nrk_led_toggle(ORANGE_LED);
     fac:	80 e0       	ldi	r24, 0x00	; 0
     fae:	90 e0       	ldi	r25, 0x00	; 0
     fb0:	0e 94 e6 12 	call	0x25cc	; 0x25cc <nrk_led_toggle>
		printf( "Task1 counter=%u\r\n",counter );
     fb4:	00 d0       	rcall	.+0      	; 0xfb6 <Task1+0x70>
     fb6:	00 d0       	rcall	.+0      	; 0xfb8 <Task1+0x72>
     fb8:	ed b7       	in	r30, 0x3d	; 61
     fba:	fe b7       	in	r31, 0x3e	; 62
     fbc:	12 83       	std	Z+2, r17	; 0x02
     fbe:	01 83       	std	Z+1, r16	; 0x01
     fc0:	d4 83       	std	Z+4, r29	; 0x04
     fc2:	c3 83       	std	Z+3, r28	; 0x03
     fc4:	0e 94 c3 4c 	call	0x9986	; 0x9986 <printf>
		nrk_wait_until_next_period();
     fc8:	0f 90       	pop	r0
     fca:	0f 90       	pop	r0
     fcc:	0f 90       	pop	r0
     fce:	0f 90       	pop	r0
     fd0:	0e 94 91 25 	call	0x4b22	; 0x4b22 <nrk_wait_until_next_period>
// To halt at 50 and show the stats
  if(counter==50) 
     fd4:	c2 33       	cpi	r28, 0x32	; 50
     fd6:	d1 05       	cpc	r29, r1
     fd8:	21 f4       	brne	.+8      	; 0xfe2 <Task1+0x9c>
    {
     nrk_stats_display_all();
     fda:	0e 94 ee 1c 	call	0x39dc	; 0x39dc <nrk_stats_display_all>
     nrk_halt();
     fde:	0e 94 64 14 	call	0x28c8	; 0x28c8 <nrk_halt>
   }
		counter++;
     fe2:	21 96       	adiw	r28, 0x01	; 1
     fe4:	e3 cf       	rjmp	.-58     	; 0xfac <Task1+0x66>

00000fe6 <main>:
nrk_sem_t *semaphore3;

int
main ()
{
  nrk_setup_ports();
     fe6:	0e 94 10 13 	call	0x2620	; 0x2620 <nrk_setup_ports>
  nrk_setup_uart(UART_BAUDRATE_115K2);
     fea:	87 e0       	ldi	r24, 0x07	; 7
     fec:	90 e0       	ldi	r25, 0x00	; 0
     fee:	0e 94 88 13 	call	0x2710	; 0x2710 <nrk_setup_uart>
  
  nrk_init();
     ff2:	0e 94 f6 15 	call	0x2bec	; 0x2bec <nrk_init>
  
  nrk_led_clr(ORANGE_LED);
     ff6:	80 e0       	ldi	r24, 0x00	; 0
     ff8:	90 e0       	ldi	r25, 0x00	; 0
     ffa:	0e 94 fb 12 	call	0x25f6	; 0x25f6 <nrk_led_clr>
  nrk_led_clr(BLUE_LED);
     ffe:	8f ef       	ldi	r24, 0xFF	; 255
    1000:	90 e0       	ldi	r25, 0x00	; 0
    1002:	0e 94 fb 12 	call	0x25f6	; 0x25f6 <nrk_led_clr>
  nrk_led_clr(GREEN_LED);
    1006:	81 e0       	ldi	r24, 0x01	; 1
    1008:	90 e0       	ldi	r25, 0x00	; 0
    100a:	0e 94 fb 12 	call	0x25f6	; 0x25f6 <nrk_led_clr>
  nrk_led_clr(RED_LED);
    100e:	82 e0       	ldi	r24, 0x02	; 2
    1010:	90 e0       	ldi	r25, 0x00	; 0
    1012:	0e 94 fb 12 	call	0x25f6	; 0x25f6 <nrk_led_clr>
  
  nrk_time_set(0,0);
    1016:	60 e0       	ldi	r22, 0x00	; 0
    1018:	70 e0       	ldi	r23, 0x00	; 0
    101a:	80 e0       	ldi	r24, 0x00	; 0
    101c:	90 e0       	ldi	r25, 0x00	; 0
    101e:	20 e0       	ldi	r18, 0x00	; 0
    1020:	30 e0       	ldi	r19, 0x00	; 0
    1022:	40 e0       	ldi	r20, 0x00	; 0
    1024:	50 e0       	ldi	r21, 0x00	; 0
    1026:	0e 94 2a 28 	call	0x5054	; 0x5054 <nrk_time_set>
  nrk_create_taskset();
    102a:	0e 94 c5 05 	call	0xb8a	; 0xb8a <nrk_create_taskset>
  
// Semaphore initialization
  semaphore1 = nrk_sem_create(1,3);  
    102e:	81 e0       	ldi	r24, 0x01	; 1
    1030:	63 e0       	ldi	r22, 0x03	; 3
    1032:	0e 94 3b 21 	call	0x4276	; 0x4276 <nrk_sem_create>
    1036:	90 93 ee 04 	sts	0x04EE, r25
    103a:	80 93 ed 04 	sts	0x04ED, r24
  semaphore2 = nrk_sem_create(1,5);
    103e:	81 e0       	ldi	r24, 0x01	; 1
    1040:	65 e0       	ldi	r22, 0x05	; 5
    1042:	0e 94 3b 21 	call	0x4276	; 0x4276 <nrk_sem_create>
    1046:	90 93 98 05 	sts	0x0598, r25
    104a:	80 93 97 05 	sts	0x0597, r24
  semaphore3 = nrk_sem_create(1,1);
    104e:	81 e0       	ldi	r24, 0x01	; 1
    1050:	61 e0       	ldi	r22, 0x01	; 1
    1052:	0e 94 3b 21 	call	0x4276	; 0x4276 <nrk_sem_create>
    1056:	90 93 be 03 	sts	0x03BE, r25
    105a:	80 93 bd 03 	sts	0x03BD, r24

  nrk_start();
    105e:	0e 94 98 15 	call	0x2b30	; 0x2b30 <nrk_start>
  
  return 0;
}
    1062:	80 e0       	ldi	r24, 0x00	; 0
    1064:	90 e0       	ldi	r25, 0x00	; 0
    1066:	08 95       	ret

00001068 <halRfSetChannel>:
void halRfSetChannel(uint8_t channel)
{
    uint16_t f;

    // Derive frequency programming from the given channel number
    f = (uint16_t) (channel - 11); // Subtract the base channel
    1068:	90 e0       	ldi	r25, 0x00	; 0
    106a:	0b 97       	sbiw	r24, 0x0b	; 11
    f = f + (f << 2);    		 // Multiply with 5, which is the channel spacing
    106c:	9c 01       	movw	r18, r24
    106e:	2b 59       	subi	r18, 0x9B	; 155
    1070:	3e 4b       	sbci	r19, 0xBE	; 190
    1072:	88 0f       	add	r24, r24
    1074:	99 1f       	adc	r25, r25
    1076:	88 0f       	add	r24, r24
    1078:	99 1f       	adc	r25, r25
    f = f + 357 + 0x4000;		 // 357 is 2405-2048, 0x4000 is LOCK_THR = 1
    107a:	28 0f       	add	r18, r24
    107c:	39 1f       	adc	r19, r25

    // Write it to the CC2420
    DISABLE_GLOBAL_INT();
    107e:	f8 94       	cli
    FASTSPI_SETREG(CC2420_FSCTRL, f);
    1080:	c0 98       	cbi	0x18, 0	; 24
    1082:	88 e1       	ldi	r24, 0x18	; 24
    1084:	8f b9       	out	0x0f, r24	; 15
    1086:	77 9b       	sbis	0x0e, 7	; 14
    1088:	fe cf       	rjmp	.-4      	; 0x1086 <halRfSetChannel+0x1e>
    108a:	3f b9       	out	0x0f, r19	; 15
    108c:	77 9b       	sbis	0x0e, 7	; 14
    108e:	fe cf       	rjmp	.-4      	; 0x108c <halRfSetChannel+0x24>
    1090:	2f b9       	out	0x0f, r18	; 15
    1092:	77 9b       	sbis	0x0e, 7	; 14
    1094:	fe cf       	rjmp	.-4      	; 0x1092 <halRfSetChannel+0x2a>
    1096:	c0 9a       	sbi	0x18, 0	; 24
    ENABLE_GLOBAL_INT();
    1098:	78 94       	sei

} // rfSetChannel
    109a:	08 95       	ret

0000109c <halRfWaitForCrystalOscillator>:
    uint8_t spiStatusByte;

    // Poll the SPI status byte until the crystal oscillator is stable
    do
    {
        DISABLE_GLOBAL_INT();
    109c:	f8 94       	cli
        FASTSPI_UPD_STATUS(spiStatusByte);
    109e:	c0 98       	cbi	0x18, 0	; 24
    10a0:	1f b8       	out	0x0f, r1	; 15
    10a2:	77 9b       	sbis	0x0e, 7	; 14
    10a4:	fe cf       	rjmp	.-4      	; 0x10a2 <halRfWaitForCrystalOscillator+0x6>
    10a6:	8f b1       	in	r24, 0x0f	; 15
    10a8:	c0 9a       	sbi	0x18, 0	; 24
        ENABLE_GLOBAL_INT();
    10aa:	78 94       	sei
    }
    while (!(spiStatusByte & (BM(CC2420_XOSC16M_STABLE))));
    10ac:	86 ff       	sbrs	r24, 6
    10ae:	f6 cf       	rjmp	.-20     	; 0x109c <halRfWaitForCrystalOscillator>

} // halRfWaitForCrystalOscillator
    10b0:	08 95       	ret

000010b2 <rf_power_down>:
uint8_t tx_ctr[4];
uint8_t rx_ctr[4];

void rf_power_down()
{
    DISABLE_GLOBAL_INT();
    10b2:	f8 94       	cli
    FASTSPI_STROBE(CC2420_SXOSCOFF);
    10b4:	c0 98       	cbi	0x18, 0	; 24
    10b6:	87 e0       	ldi	r24, 0x07	; 7
    10b8:	8f b9       	out	0x0f, r24	; 15
    10ba:	77 9b       	sbis	0x0e, 7	; 14
    10bc:	fe cf       	rjmp	.-4      	; 0x10ba <rf_power_down+0x8>
    10be:	c0 9a       	sbi	0x18, 0	; 24
    FASTSPI_STROBE(CC2420_SRFOFF);  // shut off radio
    10c0:	c0 98       	cbi	0x18, 0	; 24
    10c2:	86 e0       	ldi	r24, 0x06	; 6
    10c4:	8f b9       	out	0x0f, r24	; 15
    10c6:	77 9b       	sbis	0x0e, 7	; 14
    10c8:	fe cf       	rjmp	.-4      	; 0x10c6 <rf_power_down+0x14>
    10ca:	c0 9a       	sbi	0x18, 0	; 24
    ENABLE_GLOBAL_INT();
    10cc:	78 94       	sei
}
    10ce:	08 95       	ret

000010d0 <rf_security_last_pkt_status>:

// Returns 1 if the last packet was encrypted, 0 otherwise
uint8_t rf_security_last_pkt_status()
{
    return last_pkt_encrypted;
}
    10d0:	80 91 71 07 	lds	r24, 0x0771
    10d4:	08 95       	ret

000010d6 <rf_security_set_ctr_counter>:


void rf_security_set_ctr_counter(uint8_t *counter)
{
    10d6:	dc 01       	movw	r26, r24
    uint8_t n;
// CTR counter value
    FASTSPI_WRITE_RAM(&counter[0],(CC2420RAM_TXNONCE+9),2,n);
    10d8:	c0 98       	cbi	0x18, 0	; 24
    10da:	89 ec       	ldi	r24, 0xC9	; 201
    10dc:	8f b9       	out	0x0f, r24	; 15
    10de:	77 9b       	sbis	0x0e, 7	; 14
    10e0:	fe cf       	rjmp	.-4      	; 0x10de <rf_security_set_ctr_counter+0x8>
    10e2:	80 e8       	ldi	r24, 0x80	; 128
    10e4:	8f b9       	out	0x0f, r24	; 15
    10e6:	77 9b       	sbis	0x0e, 7	; 14
    10e8:	fe cf       	rjmp	.-4      	; 0x10e6 <rf_security_set_ctr_counter+0x10>
    10ea:	92 e0       	ldi	r25, 0x02	; 2
    10ec:	91 50       	subi	r25, 0x01	; 1
    10ee:	fd 01       	movw	r30, r26
    10f0:	e9 0f       	add	r30, r25
    10f2:	f1 1d       	adc	r31, r1
    10f4:	80 81       	ld	r24, Z
    10f6:	8f b9       	out	0x0f, r24	; 15
    10f8:	77 9b       	sbis	0x0e, 7	; 14
    10fa:	fe cf       	rjmp	.-4      	; 0x10f8 <rf_security_set_ctr_counter+0x22>
    10fc:	99 23       	and	r25, r25
    10fe:	b1 f7       	brne	.-20     	; 0x10ec <rf_security_set_ctr_counter+0x16>
    1100:	c0 9a       	sbi	0x18, 0	; 24
    FASTSPI_WRITE_RAM(&counter[2],(CC2420RAM_TXNONCE+11),2,n);
    1102:	c0 98       	cbi	0x18, 0	; 24
    1104:	8b ec       	ldi	r24, 0xCB	; 203
    1106:	8f b9       	out	0x0f, r24	; 15
    1108:	77 9b       	sbis	0x0e, 7	; 14
    110a:	fe cf       	rjmp	.-4      	; 0x1108 <__stack+0x9>
    110c:	80 e8       	ldi	r24, 0x80	; 128
    110e:	8f b9       	out	0x0f, r24	; 15
    1110:	77 9b       	sbis	0x0e, 7	; 14
    1112:	fe cf       	rjmp	.-4      	; 0x1110 <__stack+0x11>
    1114:	92 e0       	ldi	r25, 0x02	; 2
    1116:	91 50       	subi	r25, 0x01	; 1
    1118:	fd 01       	movw	r30, r26
    111a:	e9 0f       	add	r30, r25
    111c:	f1 1d       	adc	r31, r1
    111e:	82 81       	ldd	r24, Z+2	; 0x02
    1120:	8f b9       	out	0x0f, r24	; 15
    1122:	77 9b       	sbis	0x0e, 7	; 14
    1124:	fe cf       	rjmp	.-4      	; 0x1122 <__stack+0x23>
    1126:	99 23       	and	r25, r25
    1128:	b1 f7       	brne	.-20     	; 0x1116 <__stack+0x17>
    112a:	c0 9a       	sbi	0x18, 0	; 24
    tx_ctr[0]=counter[0];
    112c:	8c 91       	ld	r24, X
    112e:	80 93 72 07 	sts	0x0772, r24
    tx_ctr[1]=counter[1];
    1132:	11 96       	adiw	r26, 0x01	; 1
    1134:	8c 91       	ld	r24, X
    1136:	11 97       	sbiw	r26, 0x01	; 1
    1138:	80 93 73 07 	sts	0x0773, r24
    tx_ctr[2]=counter[2];
    113c:	12 96       	adiw	r26, 0x02	; 2
    113e:	8c 91       	ld	r24, X
    1140:	12 97       	sbiw	r26, 0x02	; 2
    1142:	80 93 74 07 	sts	0x0774, r24
    tx_ctr[3]=counter[3];
    1146:	13 96       	adiw	r26, 0x03	; 3
    1148:	8c 91       	ld	r24, X
    114a:	80 93 75 07 	sts	0x0775, r24
}
    114e:	08 95       	ret

00001150 <rf_security_enable>:
    FASTSPI_WRITE_RAM_LE(&key_buf,(CC2420RAM_RXNONCE+14),2,n);
}

void rf_security_enable(uint8_t *key)
{
    FASTSPI_SETREG(CC2420_SECCTRL0, 0x0306); // Enable CTR encryption with key 0
    1150:	c0 98       	cbi	0x18, 0	; 24
    1152:	89 e1       	ldi	r24, 0x19	; 25
    1154:	8f b9       	out	0x0f, r24	; 15
    1156:	77 9b       	sbis	0x0e, 7	; 14
    1158:	fe cf       	rjmp	.-4      	; 0x1156 <rf_security_enable+0x6>
    115a:	83 e0       	ldi	r24, 0x03	; 3
    115c:	8f b9       	out	0x0f, r24	; 15
    115e:	77 9b       	sbis	0x0e, 7	; 14
    1160:	fe cf       	rjmp	.-4      	; 0x115e <rf_security_enable+0xe>
    1162:	86 e0       	ldi	r24, 0x06	; 6
    1164:	8f b9       	out	0x0f, r24	; 15
    1166:	77 9b       	sbis	0x0e, 7	; 14
    1168:	fe cf       	rjmp	.-4      	; 0x1166 <rf_security_enable+0x16>
    116a:	c0 9a       	sbi	0x18, 0	; 24
    FASTSPI_SETREG(CC2420_SECCTRL1, 0x0e0e); // Encrypt / Decrypt 18 bytes into header
    116c:	c0 98       	cbi	0x18, 0	; 24
    116e:	8a e1       	ldi	r24, 0x1A	; 26
    1170:	8f b9       	out	0x0f, r24	; 15
    1172:	77 9b       	sbis	0x0e, 7	; 14
    1174:	fe cf       	rjmp	.-4      	; 0x1172 <rf_security_enable+0x22>
    1176:	8e e0       	ldi	r24, 0x0E	; 14
    1178:	8f b9       	out	0x0f, r24	; 15
    117a:	77 9b       	sbis	0x0e, 7	; 14
    117c:	fe cf       	rjmp	.-4      	; 0x117a <rf_security_enable+0x2a>
    117e:	8e e0       	ldi	r24, 0x0E	; 14
    1180:	8f b9       	out	0x0f, r24	; 15
    1182:	77 9b       	sbis	0x0e, 7	; 14
    1184:	fe cf       	rjmp	.-4      	; 0x1182 <rf_security_enable+0x32>
    1186:	c0 9a       	sbi	0x18, 0	; 24

    security_enable=1;
    1188:	81 e0       	ldi	r24, 0x01	; 1
    118a:	80 93 62 07 	sts	0x0762, r24
}
    118e:	08 95       	ret

00001190 <rf_security_disable>:



void rf_security_disable()
{
    FASTSPI_SETREG(CC2420_SECCTRL0, 0x01C4); // Turn off "Security enable"
    1190:	c0 98       	cbi	0x18, 0	; 24
    1192:	89 e1       	ldi	r24, 0x19	; 25
    1194:	8f b9       	out	0x0f, r24	; 15
    1196:	77 9b       	sbis	0x0e, 7	; 14
    1198:	fe cf       	rjmp	.-4      	; 0x1196 <rf_security_disable+0x6>
    119a:	81 e0       	ldi	r24, 0x01	; 1
    119c:	8f b9       	out	0x0f, r24	; 15
    119e:	77 9b       	sbis	0x0e, 7	; 14
    11a0:	fe cf       	rjmp	.-4      	; 0x119e <rf_security_disable+0xe>
    11a2:	84 ec       	ldi	r24, 0xC4	; 196
    11a4:	8f b9       	out	0x0f, r24	; 15
    11a6:	77 9b       	sbis	0x0e, 7	; 14
    11a8:	fe cf       	rjmp	.-4      	; 0x11a6 <rf_security_disable+0x16>
    11aa:	c0 9a       	sbi	0x18, 0	; 24
    security_enable=0;
    11ac:	10 92 62 07 	sts	0x0762, r1
}
    11b0:	08 95       	ret

000011b2 <rf_get_sem>:
volatile uint8_t rx_ready;
//-------------------------------------------------------------------------------------------------------
nrk_sem_t* rf_get_sem()
{
    return radio_sem;
}
    11b2:	80 91 60 07 	lds	r24, 0x0760
    11b6:	90 91 61 07 	lds	r25, 0x0761
    11ba:	08 95       	ret

000011bc <rf_tx_power>:
    //tmp=0x5070;
#ifdef RADIO_PRIORITY_CEILING
    nrk_sem_pend (radio_sem);
#endif
    tmp=0xA0E0;
    tmp=tmp | (pwr&0x1F);
    11bc:	28 2f       	mov	r18, r24
    11be:	30 e0       	ldi	r19, 0x00	; 0
    11c0:	2f 71       	andi	r18, 0x1F	; 31
    11c2:	30 70       	andi	r19, 0x00	; 0
    11c4:	20 6e       	ori	r18, 0xE0	; 224
    11c6:	30 6a       	ori	r19, 0xA0	; 160
    FASTSPI_SETREG(CC2420_TXCTRL, tmp);   // Set the FIFOP threshold to maximum
    11c8:	c0 98       	cbi	0x18, 0	; 24
    11ca:	85 e1       	ldi	r24, 0x15	; 21
    11cc:	8f b9       	out	0x0f, r24	; 15
    11ce:	77 9b       	sbis	0x0e, 7	; 14
    11d0:	fe cf       	rjmp	.-4      	; 0x11ce <rf_tx_power+0x12>
    11d2:	3f b9       	out	0x0f, r19	; 15
    11d4:	77 9b       	sbis	0x0e, 7	; 14
    11d6:	fe cf       	rjmp	.-4      	; 0x11d4 <rf_tx_power+0x18>
    11d8:	2f b9       	out	0x0f, r18	; 15
    11da:	77 9b       	sbis	0x0e, 7	; 14
    11dc:	fe cf       	rjmp	.-4      	; 0x11da <rf_tx_power+0x1e>
    11de:	c0 9a       	sbi	0x18, 0	; 24
#ifdef RADIO_PRIORITY_CEILING
    nrk_sem_post(radio_sem);
#endif
}
    11e0:	08 95       	ret

000011e2 <rf_addr_decode_enable>:
}


void rf_addr_decode_enable()
{
    mdmctrl0 |= 0x0800;
    11e2:	20 91 63 07 	lds	r18, 0x0763
    11e6:	30 91 64 07 	lds	r19, 0x0764
    11ea:	38 60       	ori	r19, 0x08	; 8
    11ec:	30 93 64 07 	sts	0x0764, r19
    11f0:	20 93 63 07 	sts	0x0763, r18
    FASTSPI_SETREG(CC2420_MDMCTRL0, mdmctrl0);
    11f4:	c0 98       	cbi	0x18, 0	; 24
    11f6:	81 e1       	ldi	r24, 0x11	; 17
    11f8:	8f b9       	out	0x0f, r24	; 15
    11fa:	77 9b       	sbis	0x0e, 7	; 14
    11fc:	fe cf       	rjmp	.-4      	; 0x11fa <rf_addr_decode_enable+0x18>
    11fe:	3f b9       	out	0x0f, r19	; 15
    1200:	77 9b       	sbis	0x0e, 7	; 14
    1202:	fe cf       	rjmp	.-4      	; 0x1200 <rf_addr_decode_enable+0x1e>
    1204:	2f b9       	out	0x0f, r18	; 15
    1206:	77 9b       	sbis	0x0e, 7	; 14
    1208:	fe cf       	rjmp	.-4      	; 0x1206 <rf_addr_decode_enable+0x24>
    120a:	c0 9a       	sbi	0x18, 0	; 24
}
    120c:	08 95       	ret

0000120e <rf_addr_decode_disable>:

void rf_addr_decode_disable()
{
    mdmctrl0 &= (~0x0800);
    120e:	20 91 63 07 	lds	r18, 0x0763
    1212:	30 91 64 07 	lds	r19, 0x0764
    1216:	37 7f       	andi	r19, 0xF7	; 247
    1218:	30 93 64 07 	sts	0x0764, r19
    121c:	20 93 63 07 	sts	0x0763, r18
    FASTSPI_SETREG(CC2420_MDMCTRL0, mdmctrl0);
    1220:	c0 98       	cbi	0x18, 0	; 24
    1222:	81 e1       	ldi	r24, 0x11	; 17
    1224:	8f b9       	out	0x0f, r24	; 15
    1226:	77 9b       	sbis	0x0e, 7	; 14
    1228:	fe cf       	rjmp	.-4      	; 0x1226 <rf_addr_decode_disable+0x18>
    122a:	3f b9       	out	0x0f, r19	; 15
    122c:	77 9b       	sbis	0x0e, 7	; 14
    122e:	fe cf       	rjmp	.-4      	; 0x122c <rf_addr_decode_disable+0x1e>
    1230:	2f b9       	out	0x0f, r18	; 15
    1232:	77 9b       	sbis	0x0e, 7	; 14
    1234:	fe cf       	rjmp	.-4      	; 0x1232 <rf_addr_decode_disable+0x24>
    1236:	c0 9a       	sbi	0x18, 0	; 24
}
    1238:	08 95       	ret

0000123a <rf_auto_ack_enable>:


void rf_auto_ack_enable()
{
    auto_ack_enable=1;
    123a:	81 e0       	ldi	r24, 0x01	; 1
    123c:	80 93 70 07 	sts	0x0770, r24
    mdmctrl0 |= 0x0010;
    1240:	20 91 63 07 	lds	r18, 0x0763
    1244:	30 91 64 07 	lds	r19, 0x0764
    1248:	20 61       	ori	r18, 0x10	; 16
    124a:	30 93 64 07 	sts	0x0764, r19
    124e:	20 93 63 07 	sts	0x0763, r18
    FASTSPI_SETREG(CC2420_MDMCTRL0, mdmctrl0);
    1252:	c0 98       	cbi	0x18, 0	; 24
    1254:	81 e1       	ldi	r24, 0x11	; 17
    1256:	8f b9       	out	0x0f, r24	; 15
    1258:	77 9b       	sbis	0x0e, 7	; 14
    125a:	fe cf       	rjmp	.-4      	; 0x1258 <rf_auto_ack_enable+0x1e>
    125c:	3f b9       	out	0x0f, r19	; 15
    125e:	77 9b       	sbis	0x0e, 7	; 14
    1260:	fe cf       	rjmp	.-4      	; 0x125e <rf_auto_ack_enable+0x24>
    1262:	2f b9       	out	0x0f, r18	; 15
    1264:	77 9b       	sbis	0x0e, 7	; 14
    1266:	fe cf       	rjmp	.-4      	; 0x1264 <rf_auto_ack_enable+0x2a>
    1268:	c0 9a       	sbi	0x18, 0	; 24
}
    126a:	08 95       	ret

0000126c <rf_auto_ack_disable>:

void rf_auto_ack_disable()
{
    auto_ack_enable=0;
    126c:	10 92 70 07 	sts	0x0770, r1
    mdmctrl0 &= (~0x0010);
    1270:	20 91 63 07 	lds	r18, 0x0763
    1274:	30 91 64 07 	lds	r19, 0x0764
    1278:	2f 7e       	andi	r18, 0xEF	; 239
    127a:	30 93 64 07 	sts	0x0764, r19
    127e:	20 93 63 07 	sts	0x0763, r18
    FASTSPI_SETREG(CC2420_MDMCTRL0, mdmctrl0);
    1282:	c0 98       	cbi	0x18, 0	; 24
    1284:	81 e1       	ldi	r24, 0x11	; 17
    1286:	8f b9       	out	0x0f, r24	; 15
    1288:	77 9b       	sbis	0x0e, 7	; 14
    128a:	fe cf       	rjmp	.-4      	; 0x1288 <rf_auto_ack_disable+0x1c>
    128c:	3f b9       	out	0x0f, r19	; 15
    128e:	77 9b       	sbis	0x0e, 7	; 14
    1290:	fe cf       	rjmp	.-4      	; 0x128e <rf_auto_ack_disable+0x22>
    1292:	2f b9       	out	0x0f, r18	; 15
    1294:	77 9b       	sbis	0x0e, 7	; 14
    1296:	fe cf       	rjmp	.-4      	; 0x1294 <rf_auto_ack_disable+0x28>
    1298:	c0 9a       	sbi	0x18, 0	; 24
}
    129a:	08 95       	ret

0000129c <rf_rx_on>:
void rf_rx_on(void)
{
#ifdef RADIO_PRIORITY_CEILING
    nrk_sem_pend (radio_sem);
#endif
    rfSettings.receiveOn = TRUE;
    129c:	81 e0       	ldi	r24, 0x01	; 1
    129e:	80 93 6d 07 	sts	0x076D, r24

#ifdef CC2420_OSC_OPT
    FASTSPI_STROBE(CC2420_SXOSCON);
    nrk_spin_wait_us(OSC_STARTUP_DELAY);
#endif
    FASTSPI_STROBE(CC2420_SRXON);
    12a2:	c0 98       	cbi	0x18, 0	; 24
    12a4:	83 e0       	ldi	r24, 0x03	; 3
    12a6:	8f b9       	out	0x0f, r24	; 15
    12a8:	77 9b       	sbis	0x0e, 7	; 14
    12aa:	fe cf       	rjmp	.-4      	; 0x12a8 <rf_rx_on+0xc>
    12ac:	c0 9a       	sbi	0x18, 0	; 24
    FASTSPI_STROBE(CC2420_SFLUSHRX);
    12ae:	c0 98       	cbi	0x18, 0	; 24
    12b0:	88 e0       	ldi	r24, 0x08	; 8
    12b2:	8f b9       	out	0x0f, r24	; 15
    12b4:	77 9b       	sbis	0x0e, 7	; 14
    12b6:	fe cf       	rjmp	.-4      	; 0x12b4 <rf_rx_on+0x18>
    12b8:	c0 9a       	sbi	0x18, 0	; 24
    rx_ready=0;
    12ba:	10 92 76 07 	sts	0x0776, r1
#ifdef RADIO_PRIORITY_CEILING
    nrk_sem_post(radio_sem);
#endif
    //	ENABLE_FIFOP_INT();
} // rf_rx_on()
    12be:	08 95       	ret

000012c0 <rf_polling_rx_on>:
void rf_polling_rx_on(void)
{
#ifdef RADIO_PRIORITY_CEILING
    nrk_sem_pend (radio_sem);
#endif
    rfSettings.receiveOn = TRUE;
    12c0:	81 e0       	ldi	r24, 0x01	; 1
    12c2:	80 93 6d 07 	sts	0x076D, r24
#ifdef CC2420_OSC_OPT
    FASTSPI_STROBE(CC2420_SXOSCON);
    nrk_spin_wait_us(OSC_STARTUP_DELAY);
#endif
    FASTSPI_STROBE(CC2420_SRXON);
    12c6:	c0 98       	cbi	0x18, 0	; 24
    12c8:	83 e0       	ldi	r24, 0x03	; 3
    12ca:	8f b9       	out	0x0f, r24	; 15
    12cc:	77 9b       	sbis	0x0e, 7	; 14
    12ce:	fe cf       	rjmp	.-4      	; 0x12cc <rf_polling_rx_on+0xc>
    12d0:	c0 9a       	sbi	0x18, 0	; 24
    FASTSPI_STROBE(CC2420_SFLUSHRX);
    12d2:	c0 98       	cbi	0x18, 0	; 24
    12d4:	88 e0       	ldi	r24, 0x08	; 8
    12d6:	8f b9       	out	0x0f, r24	; 15
    12d8:	77 9b       	sbis	0x0e, 7	; 14
    12da:	fe cf       	rjmp	.-4      	; 0x12d8 <rf_polling_rx_on+0x18>
    12dc:	c0 9a       	sbi	0x18, 0	; 24
    rx_ready=0;
    12de:	10 92 76 07 	sts	0x0776, r1
#ifdef RADIO_PRIORITY_CEILING
    nrk_sem_post(radio_sem);
#endif
} // rf_rx_on()
    12e2:	08 95       	ret

000012e4 <rf_rx_off>:
#ifdef RADIO_PRIORITY_CEILING
    nrk_sem_pend (radio_sem);
#endif
    // XXX
    //SET_VREG_INACTIVE();
    rfSettings.receiveOn = FALSE;
    12e4:	10 92 6d 07 	sts	0x076D, r1
    FASTSPI_STROBE(CC2420_SRFOFF);
    12e8:	c0 98       	cbi	0x18, 0	; 24
    12ea:	86 e0       	ldi	r24, 0x06	; 6
    12ec:	8f b9       	out	0x0f, r24	; 15
    12ee:	77 9b       	sbis	0x0e, 7	; 14
    12f0:	fe cf       	rjmp	.-4      	; 0x12ee <rf_rx_off+0xa>
    12f2:	c0 9a       	sbi	0x18, 0	; 24
#ifdef CC2420_OSC_OPT
    FASTSPI_STROBE(CC2420_SXOSCOFF);
#endif
    rx_ready=0;
    12f4:	10 92 76 07 	sts	0x0776, r1
#ifdef RADIO_PRIORITY_CEILING
    nrk_sem_post(radio_sem);
#endif
    //	DISABLE_FIFOP_INT();
} // rf_rx_off()
    12f8:	08 95       	ret

000012fa <rf_busy>:

}

uint8_t rf_busy()
{
    return SFD_IS_1;
    12fa:	80 b3       	in	r24, 0x10	; 16
    12fc:	90 e0       	ldi	r25, 0x00	; 0
    12fe:	24 e0       	ldi	r18, 0x04	; 4
    1300:	96 95       	lsr	r25
    1302:	87 95       	ror	r24
    1304:	2a 95       	dec	r18
    1306:	e1 f7       	brne	.-8      	; 0x1300 <rf_busy+0x6>
}
    1308:	81 70       	andi	r24, 0x01	; 1
    130a:	08 95       	ret

0000130c <rf_rx_check_fifop>:

uint8_t rf_rx_check_fifop()
{
    return FIFOP_IS_1;
    130c:	81 b1       	in	r24, 0x01	; 1
    130e:	90 e0       	ldi	r25, 0x00	; 0
    1310:	36 e0       	ldi	r19, 0x06	; 6
    1312:	96 95       	lsr	r25
    1314:	87 95       	ror	r24
    1316:	3a 95       	dec	r19
    1318:	e1 f7       	brne	.-8      	; 0x1312 <rf_rx_check_fifop+0x6>
}
    131a:	81 70       	andi	r24, 0x01	; 1
    131c:	08 95       	ret

0000131e <rf_rx_check_sfd>:


uint8_t rf_rx_check_sfd()
{
    return SFD_IS_1;
    131e:	80 b3       	in	r24, 0x10	; 16
    1320:	90 e0       	ldi	r25, 0x00	; 0
    1322:	44 e0       	ldi	r20, 0x04	; 4
    1324:	96 95       	lsr	r25
    1326:	87 95       	ror	r24
    1328:	4a 95       	dec	r20
    132a:	e1 f7       	brne	.-8      	; 0x1324 <rf_rx_check_sfd+0x6>
}
    132c:	81 70       	andi	r24, 0x01	; 1
    132e:	08 95       	ret

00001330 <rf_polling_rx_packet>:
uint16_t tmp_blah;

int8_t rf_polling_rx_packet()
{
    1330:	df 93       	push	r29
    1332:	cf 93       	push	r28
    1334:	00 d0       	rcall	.+0      	; 0x1336 <rf_polling_rx_packet+0x6>
    1336:	00 d0       	rcall	.+0      	; 0x1338 <rf_polling_rx_packet+0x8>
    1338:	0f 92       	push	r0
    133a:	cd b7       	in	r28, 0x3d	; 61
    133c:	de b7       	in	r29, 0x3e	; 62

#ifdef RADIO_PRIORITY_CEILING
    nrk_sem_pend(radio_sem);
#endif

    if(FIFOP_IS_1 )
    133e:	0e 99       	sbic	0x01, 6	; 1
    1340:	02 c0       	rjmp	.+4      	; 0x1346 <rf_polling_rx_packet+0x16>
    1342:	80 e0       	ldi	r24, 0x00	; 0
    1344:	d1 c1       	rjmp	.+930    	; 0x16e8 <rf_polling_rx_packet+0x3b8>
        uint16_t frameControlField;
        int8_t length;
        uint8_t pFooter[2];
        uint8_t checksum,rx_checksum,i;

        last_pkt_encrypted=0;
    1346:	10 92 71 07 	sts	0x0771, r1

//	while(!SFD_IS_1);
//  XXX Need to make sure SFD has gone down to be sure packet finished!
//	while(SFD_IS_1);
        // Clean up and exit in case of FIFO overflow, which is indicated by FIFOP = 1 and FIFO = 0
        if((FIFOP_IS_1) && (!(FIFO_IS_1)))
    134a:	0e 9b       	sbis	0x01, 6	; 1
    134c:	1a c0       	rjmp	.+52     	; 0x1382 <rf_polling_rx_packet+0x52>
    134e:	b7 99       	sbic	0x16, 7	; 22
    1350:	18 c0       	rjmp	.+48     	; 0x1382 <rf_polling_rx_packet+0x52>
        {
            // always read 1 byte before flush (data sheet pg 62)
            FASTSPI_READ_FIFO_BYTE(tmp);
    1352:	c0 98       	cbi	0x18, 0	; 24
    1354:	8f e7       	ldi	r24, 0x7F	; 127
    1356:	8f b9       	out	0x0f, r24	; 15
    1358:	77 9b       	sbis	0x0e, 7	; 14
    135a:	fe cf       	rjmp	.-4      	; 0x1358 <rf_polling_rx_packet+0x28>
    135c:	1f b8       	out	0x0f, r1	; 15
    135e:	77 9b       	sbis	0x0e, 7	; 14
    1360:	fe cf       	rjmp	.-4      	; 0x135e <rf_polling_rx_packet+0x2e>
    1362:	8f b1       	in	r24, 0x0f	; 15
    1364:	c0 9a       	sbi	0x18, 0	; 24
            FASTSPI_STROBE(CC2420_SFLUSHRX);
    1366:	c0 98       	cbi	0x18, 0	; 24
    1368:	88 e0       	ldi	r24, 0x08	; 8
    136a:	8f b9       	out	0x0f, r24	; 15
    136c:	77 9b       	sbis	0x0e, 7	; 14
    136e:	fe cf       	rjmp	.-4      	; 0x136c <rf_polling_rx_packet+0x3c>
    1370:	c0 9a       	sbi	0x18, 0	; 24
            FASTSPI_STROBE(CC2420_SFLUSHRX);
    1372:	c0 98       	cbi	0x18, 0	; 24
    1374:	88 e0       	ldi	r24, 0x08	; 8
    1376:	8f b9       	out	0x0f, r24	; 15
    1378:	77 9b       	sbis	0x0e, 7	; 14
    137a:	fe cf       	rjmp	.-4      	; 0x1378 <rf_polling_rx_packet+0x48>
    137c:	c0 9a       	sbi	0x18, 0	; 24
    137e:	8f ef       	ldi	r24, 0xFF	; 255
    1380:	b3 c1       	rjmp	.+870    	; 0x16e8 <rf_polling_rx_packet+0x3b8>
#endif
            return -1;
        }

        // Payload length
        FASTSPI_READ_FIFO_BYTE(length);
    1382:	c0 98       	cbi	0x18, 0	; 24
    1384:	8f e7       	ldi	r24, 0x7F	; 127
    1386:	8f b9       	out	0x0f, r24	; 15
    1388:	77 9b       	sbis	0x0e, 7	; 14
    138a:	fe cf       	rjmp	.-4      	; 0x1388 <rf_polling_rx_packet+0x58>
    138c:	1f b8       	out	0x0f, r1	; 15
    138e:	77 9b       	sbis	0x0e, 7	; 14
    1390:	fe cf       	rjmp	.-4      	; 0x138e <rf_polling_rx_packet+0x5e>
    1392:	4f b1       	in	r20, 0x0f	; 15
    1394:	c0 9a       	sbi	0x18, 0	; 24
        length &= RF_LENGTH_MASK; // Ignore MSB
    1396:	4f 77       	andi	r20, 0x7F	; 127
        // Ignore the packet if the length is too short
        if(length<=0)
    1398:	c1 f4       	brne	.+48     	; 0x13ca <rf_polling_rx_packet+0x9a>
        {
            // always read 1 byte before flush (data sheet pg 62)
            FASTSPI_READ_FIFO_BYTE(tmp);
    139a:	c0 98       	cbi	0x18, 0	; 24
    139c:	8f e7       	ldi	r24, 0x7F	; 127
    139e:	8f b9       	out	0x0f, r24	; 15
    13a0:	77 9b       	sbis	0x0e, 7	; 14
    13a2:	fe cf       	rjmp	.-4      	; 0x13a0 <rf_polling_rx_packet+0x70>
    13a4:	1f b8       	out	0x0f, r1	; 15
    13a6:	77 9b       	sbis	0x0e, 7	; 14
    13a8:	fe cf       	rjmp	.-4      	; 0x13a6 <rf_polling_rx_packet+0x76>
    13aa:	8f b1       	in	r24, 0x0f	; 15
    13ac:	c0 9a       	sbi	0x18, 0	; 24
            FASTSPI_STROBE(CC2420_SFLUSHRX);
    13ae:	c0 98       	cbi	0x18, 0	; 24
    13b0:	88 e0       	ldi	r24, 0x08	; 8
    13b2:	8f b9       	out	0x0f, r24	; 15
    13b4:	77 9b       	sbis	0x0e, 7	; 14
    13b6:	fe cf       	rjmp	.-4      	; 0x13b4 <rf_polling_rx_packet+0x84>
    13b8:	c0 9a       	sbi	0x18, 0	; 24
            FASTSPI_STROBE(CC2420_SFLUSHRX);
    13ba:	c0 98       	cbi	0x18, 0	; 24
    13bc:	88 e0       	ldi	r24, 0x08	; 8
    13be:	8f b9       	out	0x0f, r24	; 15
    13c0:	77 9b       	sbis	0x0e, 7	; 14
    13c2:	fe cf       	rjmp	.-4      	; 0x13c0 <rf_polling_rx_packet+0x90>
    13c4:	c0 9a       	sbi	0x18, 0	; 24
    13c6:	8e ef       	ldi	r24, 0xFE	; 254
    13c8:	8f c1       	rjmp	.+798    	; 0x16e8 <rf_polling_rx_packet+0x3b8>
#ifdef RADIO_PRIORITY_CEILING
            nrk_sem_post(radio_sem);
#endif
            return -2;
        }
        if (length < (RF_PACKET_OVERHEAD_SIZE + CHECKSUM_OVERHEAD)/*RF_ACK_PACKET_SIZE*/ || (length-RF_PACKET_OVERHEAD_SIZE)> rfSettings.pRxInfo->max_length)
    13ca:	4c 30       	cpi	r20, 0x0C	; 12
    13cc:	8c f0       	brlt	.+34     	; 0x13f0 <rf_polling_rx_packet+0xc0>
    13ce:	e0 91 65 07 	lds	r30, 0x0765
    13d2:	f0 91 66 07 	lds	r31, 0x0766
    13d6:	24 2f       	mov	r18, r20
    13d8:	33 27       	eor	r19, r19
    13da:	27 fd       	sbrc	r18, 7
    13dc:	30 95       	com	r19
    13de:	2b 50       	subi	r18, 0x0B	; 11
    13e0:	30 40       	sbci	r19, 0x00	; 0
    13e2:	84 81       	ldd	r24, Z+4	; 0x04
    13e4:	99 27       	eor	r25, r25
    13e6:	87 fd       	sbrc	r24, 7
    13e8:	90 95       	com	r25
    13ea:	82 17       	cp	r24, r18
    13ec:	93 07       	cpc	r25, r19
    13ee:	7c f5       	brge	.+94     	; 0x144e <rf_polling_rx_packet+0x11e>
        {
            FASTSPI_READ_FIFO_GARBAGE(length);
    13f0:	c0 98       	cbi	0x18, 0	; 24
    13f2:	8f e7       	ldi	r24, 0x7F	; 127
    13f4:	8f b9       	out	0x0f, r24	; 15
    13f6:	77 9b       	sbis	0x0e, 7	; 14
    13f8:	fe cf       	rjmp	.-4      	; 0x13f6 <rf_polling_rx_packet+0xc6>
    13fa:	50 e0       	ldi	r21, 0x00	; 0
    13fc:	24 2f       	mov	r18, r20
    13fe:	33 27       	eor	r19, r19
    1400:	27 fd       	sbrc	r18, 7
    1402:	30 95       	com	r19
    1404:	04 c0       	rjmp	.+8      	; 0x140e <rf_polling_rx_packet+0xde>
    1406:	1f b8       	out	0x0f, r1	; 15
    1408:	77 9b       	sbis	0x0e, 7	; 14
    140a:	fe cf       	rjmp	.-4      	; 0x1408 <rf_polling_rx_packet+0xd8>
    140c:	5f 5f       	subi	r21, 0xFF	; 255
    140e:	85 2f       	mov	r24, r21
    1410:	90 e0       	ldi	r25, 0x00	; 0
    1412:	82 17       	cp	r24, r18
    1414:	93 07       	cpc	r25, r19
    1416:	14 f4       	brge	.+4      	; 0x141c <rf_polling_rx_packet+0xec>
    1418:	b7 99       	sbic	0x16, 7	; 22
    141a:	f5 cf       	rjmp	.-22     	; 0x1406 <rf_polling_rx_packet+0xd6>
    141c:	c0 9a       	sbi	0x18, 0	; 24
            FASTSPI_READ_FIFO_BYTE(tmp);
    141e:	c0 98       	cbi	0x18, 0	; 24
    1420:	8f e7       	ldi	r24, 0x7F	; 127
    1422:	8f b9       	out	0x0f, r24	; 15
    1424:	77 9b       	sbis	0x0e, 7	; 14
    1426:	fe cf       	rjmp	.-4      	; 0x1424 <rf_polling_rx_packet+0xf4>
    1428:	1f b8       	out	0x0f, r1	; 15
    142a:	77 9b       	sbis	0x0e, 7	; 14
    142c:	fe cf       	rjmp	.-4      	; 0x142a <rf_polling_rx_packet+0xfa>
    142e:	8f b1       	in	r24, 0x0f	; 15
    1430:	c0 9a       	sbi	0x18, 0	; 24
            FASTSPI_STROBE(CC2420_SFLUSHRX);
    1432:	c0 98       	cbi	0x18, 0	; 24
    1434:	88 e0       	ldi	r24, 0x08	; 8
    1436:	8f b9       	out	0x0f, r24	; 15
    1438:	77 9b       	sbis	0x0e, 7	; 14
    143a:	fe cf       	rjmp	.-4      	; 0x1438 <rf_polling_rx_packet+0x108>
    143c:	c0 9a       	sbi	0x18, 0	; 24
            FASTSPI_STROBE(CC2420_SFLUSHRX);
    143e:	c0 98       	cbi	0x18, 0	; 24
    1440:	88 e0       	ldi	r24, 0x08	; 8
    1442:	8f b9       	out	0x0f, r24	; 15
    1444:	77 9b       	sbis	0x0e, 7	; 14
    1446:	fe cf       	rjmp	.-4      	; 0x1444 <rf_polling_rx_packet+0x114>
    1448:	c0 9a       	sbi	0x18, 0	; 24
    144a:	8d ef       	ldi	r24, 0xFD	; 253
    144c:	4d c1       	rjmp	.+666    	; 0x16e8 <rf_polling_rx_packet+0x3b8>
            // Otherwise, if the length is valid, then proceed with the rest of the packet
        }
        else
        {
            // Register the payload length
            rfSettings.pRxInfo->length = length - RF_PACKET_OVERHEAD_SIZE - CHECKSUM_OVERHEAD;
    144e:	e0 91 65 07 	lds	r30, 0x0765
    1452:	f0 91 66 07 	lds	r31, 0x0766
    1456:	4c 50       	subi	r20, 0x0C	; 12
    1458:	43 83       	std	Z+3, r20	; 0x03
            // Read the frame control field and the data sequence number
            FASTSPI_READ_FIFO_NO_WAIT((uint8_t*) &frameControlField, 2);
    145a:	c0 98       	cbi	0x18, 0	; 24
    145c:	8f e7       	ldi	r24, 0x7F	; 127
    145e:	8f b9       	out	0x0f, r24	; 15
    1460:	77 9b       	sbis	0x0e, 7	; 14
    1462:	fe cf       	rjmp	.-4      	; 0x1460 <rf_polling_rx_packet+0x130>
    1464:	fe 01       	movw	r30, r28
    1466:	32 96       	adiw	r30, 0x02	; 2
    1468:	9f 01       	movw	r18, r30
    146a:	2e 5f       	subi	r18, 0xFE	; 254
    146c:	3f 4f       	sbci	r19, 0xFF	; 255
    146e:	1f b8       	out	0x0f, r1	; 15
    1470:	77 9b       	sbis	0x0e, 7	; 14
    1472:	fe cf       	rjmp	.-4      	; 0x1470 <rf_polling_rx_packet+0x140>
    1474:	8f b1       	in	r24, 0x0f	; 15
    1476:	81 93       	st	Z+, r24
    1478:	e2 17       	cp	r30, r18
    147a:	f3 07       	cpc	r31, r19
    147c:	c1 f7       	brne	.-16     	; 0x146e <rf_polling_rx_packet+0x13e>
    147e:	c0 9a       	sbi	0x18, 0	; 24
            rfSettings.pRxInfo->ackRequest = !!(frameControlField & RF_FCF_ACK_BM);
    1480:	e0 91 65 07 	lds	r30, 0x0765
    1484:	f0 91 66 07 	lds	r31, 0x0766
    1488:	8a 81       	ldd	r24, Y+2	; 0x02
    148a:	9b 81       	ldd	r25, Y+3	; 0x03
    148c:	55 e0       	ldi	r21, 0x05	; 5
    148e:	96 95       	lsr	r25
    1490:	87 95       	ror	r24
    1492:	5a 95       	dec	r21
    1494:	e1 f7       	brne	.-8      	; 0x148e <rf_polling_rx_packet+0x15e>
    1496:	81 70       	andi	r24, 0x01	; 1
    1498:	87 83       	std	Z+7, r24	; 0x07
            FASTSPI_READ_FIFO_BYTE(rfSettings.pRxInfo->seqNumber);
    149a:	c0 98       	cbi	0x18, 0	; 24
    149c:	8f e7       	ldi	r24, 0x7F	; 127
    149e:	8f b9       	out	0x0f, r24	; 15
    14a0:	77 9b       	sbis	0x0e, 7	; 14
    14a2:	fe cf       	rjmp	.-4      	; 0x14a0 <rf_polling_rx_packet+0x170>
    14a4:	1f b8       	out	0x0f, r1	; 15
    14a6:	77 9b       	sbis	0x0e, 7	; 14
    14a8:	fe cf       	rjmp	.-4      	; 0x14a6 <rf_polling_rx_packet+0x176>
    14aa:	e0 91 65 07 	lds	r30, 0x0765
    14ae:	f0 91 66 07 	lds	r31, 0x0766
    14b2:	8f b1       	in	r24, 0x0f	; 15
    14b4:	80 83       	st	Z, r24
    14b6:	c0 9a       	sbi	0x18, 0	; 24

            		// Receive the rest of the packet
            		} else {
            */
            // Skip the destination PAN and address (that's taken care of by harware address recognition!)
            FASTSPI_READ_FIFO_GARBAGE(4);
    14b8:	c0 98       	cbi	0x18, 0	; 24
    14ba:	8f e7       	ldi	r24, 0x7F	; 127
    14bc:	8f b9       	out	0x0f, r24	; 15
    14be:	77 9b       	sbis	0x0e, 7	; 14
    14c0:	fe cf       	rjmp	.-4      	; 0x14be <rf_polling_rx_packet+0x18e>
    14c2:	80 e0       	ldi	r24, 0x00	; 0
    14c4:	06 c0       	rjmp	.+12     	; 0x14d2 <rf_polling_rx_packet+0x1a2>
    14c6:	1f b8       	out	0x0f, r1	; 15
    14c8:	77 9b       	sbis	0x0e, 7	; 14
    14ca:	fe cf       	rjmp	.-4      	; 0x14c8 <rf_polling_rx_packet+0x198>
    14cc:	8f 5f       	subi	r24, 0xFF	; 255
    14ce:	84 30       	cpi	r24, 0x04	; 4
    14d0:	11 f0       	breq	.+4      	; 0x14d6 <rf_polling_rx_packet+0x1a6>
    14d2:	b7 99       	sbic	0x16, 7	; 22
    14d4:	f8 cf       	rjmp	.-16     	; 0x14c6 <rf_polling_rx_packet+0x196>
    14d6:	c0 9a       	sbi	0x18, 0	; 24

            // Read the source address
            FASTSPI_READ_FIFO_NO_WAIT((uint8_t*) &rfSettings.pRxInfo->srcAddr, 2);
    14d8:	c0 98       	cbi	0x18, 0	; 24
    14da:	8f e7       	ldi	r24, 0x7F	; 127
    14dc:	8f b9       	out	0x0f, r24	; 15
    14de:	77 9b       	sbis	0x0e, 7	; 14
    14e0:	fe cf       	rjmp	.-4      	; 0x14de <rf_polling_rx_packet+0x1ae>
    14e2:	20 e0       	ldi	r18, 0x00	; 0
    14e4:	30 e0       	ldi	r19, 0x00	; 0
    14e6:	1f b8       	out	0x0f, r1	; 15
    14e8:	77 9b       	sbis	0x0e, 7	; 14
    14ea:	fe cf       	rjmp	.-4      	; 0x14e8 <rf_polling_rx_packet+0x1b8>
    14ec:	e0 91 65 07 	lds	r30, 0x0765
    14f0:	f0 91 66 07 	lds	r31, 0x0766
    14f4:	8f b1       	in	r24, 0x0f	; 15
    14f6:	e2 0f       	add	r30, r18
    14f8:	f3 1f       	adc	r31, r19
    14fa:	81 83       	std	Z+1, r24	; 0x01
    14fc:	2f 5f       	subi	r18, 0xFF	; 255
    14fe:	3f 4f       	sbci	r19, 0xFF	; 255
    1500:	22 30       	cpi	r18, 0x02	; 2
    1502:	31 05       	cpc	r19, r1
    1504:	81 f7       	brne	.-32     	; 0x14e6 <rf_polling_rx_packet+0x1b6>
    1506:	c0 9a       	sbi	0x18, 0	; 24

            if(frameControlField & RF_SEC_BM)
    1508:	8a 81       	ldd	r24, Y+2	; 0x02
    150a:	83 ff       	sbrs	r24, 3
    150c:	4d c0       	rjmp	.+154    	; 0x15a8 <rf_polling_rx_packet+0x278>
            {
                uint8_t n;
                // READ rx_ctr and set it
                FASTSPI_READ_FIFO_NO_WAIT((uint8_t*) &rx_ctr, 4);
    150e:	c0 98       	cbi	0x18, 0	; 24
    1510:	8f e7       	ldi	r24, 0x7F	; 127
    1512:	8f b9       	out	0x0f, r24	; 15
    1514:	77 9b       	sbis	0x0e, 7	; 14
    1516:	fe cf       	rjmp	.-4      	; 0x1514 <rf_polling_rx_packet+0x1e4>
    1518:	ec e5       	ldi	r30, 0x5C	; 92
    151a:	f7 e0       	ldi	r31, 0x07	; 7
    151c:	1f b8       	out	0x0f, r1	; 15
    151e:	77 9b       	sbis	0x0e, 7	; 14
    1520:	fe cf       	rjmp	.-4      	; 0x151e <rf_polling_rx_packet+0x1ee>
    1522:	8f b1       	in	r24, 0x0f	; 15
    1524:	81 93       	st	Z+, r24
    1526:	87 e0       	ldi	r24, 0x07	; 7
    1528:	e0 36       	cpi	r30, 0x60	; 96
    152a:	f8 07       	cpc	r31, r24
    152c:	b9 f7       	brne	.-18     	; 0x151c <rf_polling_rx_packet+0x1ec>
    152e:	c0 9a       	sbi	0x18, 0	; 24
                FASTSPI_WRITE_RAM(&rx_ctr[0],(CC2420RAM_RXNONCE+9),2,n);
    1530:	c0 98       	cbi	0x18, 0	; 24
    1532:	89 e9       	ldi	r24, 0x99	; 153
    1534:	8f b9       	out	0x0f, r24	; 15
    1536:	77 9b       	sbis	0x0e, 7	; 14
    1538:	fe cf       	rjmp	.-4      	; 0x1536 <rf_polling_rx_packet+0x206>
    153a:	80 e8       	ldi	r24, 0x80	; 128
    153c:	8f b9       	out	0x0f, r24	; 15
    153e:	77 9b       	sbis	0x0e, 7	; 14
    1540:	fe cf       	rjmp	.-4      	; 0x153e <rf_polling_rx_packet+0x20e>
    1542:	92 e0       	ldi	r25, 0x02	; 2
    1544:	91 50       	subi	r25, 0x01	; 1
    1546:	e9 2f       	mov	r30, r25
    1548:	f0 e0       	ldi	r31, 0x00	; 0
    154a:	e4 5a       	subi	r30, 0xA4	; 164
    154c:	f8 4f       	sbci	r31, 0xF8	; 248
    154e:	80 81       	ld	r24, Z
    1550:	8f b9       	out	0x0f, r24	; 15
    1552:	77 9b       	sbis	0x0e, 7	; 14
    1554:	fe cf       	rjmp	.-4      	; 0x1552 <rf_polling_rx_packet+0x222>
    1556:	99 23       	and	r25, r25
    1558:	a9 f7       	brne	.-22     	; 0x1544 <rf_polling_rx_packet+0x214>
    155a:	c0 9a       	sbi	0x18, 0	; 24
                FASTSPI_WRITE_RAM(&rx_ctr[2],(CC2420RAM_RXNONCE+11),2,n);
    155c:	c0 98       	cbi	0x18, 0	; 24
    155e:	8b e9       	ldi	r24, 0x9B	; 155
    1560:	8f b9       	out	0x0f, r24	; 15
    1562:	77 9b       	sbis	0x0e, 7	; 14
    1564:	fe cf       	rjmp	.-4      	; 0x1562 <rf_polling_rx_packet+0x232>
    1566:	80 e8       	ldi	r24, 0x80	; 128
    1568:	8f b9       	out	0x0f, r24	; 15
    156a:	77 9b       	sbis	0x0e, 7	; 14
    156c:	fe cf       	rjmp	.-4      	; 0x156a <rf_polling_rx_packet+0x23a>
    156e:	92 e0       	ldi	r25, 0x02	; 2
    1570:	91 50       	subi	r25, 0x01	; 1
    1572:	e9 2f       	mov	r30, r25
    1574:	f0 e0       	ldi	r31, 0x00	; 0
    1576:	e2 5a       	subi	r30, 0xA2	; 162
    1578:	f8 4f       	sbci	r31, 0xF8	; 248
    157a:	80 81       	ld	r24, Z
    157c:	8f b9       	out	0x0f, r24	; 15
    157e:	77 9b       	sbis	0x0e, 7	; 14
    1580:	fe cf       	rjmp	.-4      	; 0x157e <rf_polling_rx_packet+0x24e>
    1582:	99 23       	and	r25, r25
    1584:	a9 f7       	brne	.-22     	; 0x1570 <rf_polling_rx_packet+0x240>
    1586:	c0 9a       	sbi	0x18, 0	; 24
                FASTSPI_STROBE(CC2420_SRXDEC);  // if packet is encrypted then decrypt
    1588:	c0 98       	cbi	0x18, 0	; 24
    158a:	8c e0       	ldi	r24, 0x0C	; 12
    158c:	8f b9       	out	0x0f, r24	; 15
    158e:	77 9b       	sbis	0x0e, 7	; 14
    1590:	fe cf       	rjmp	.-4      	; 0x158e <rf_polling_rx_packet+0x25e>
    1592:	c0 9a       	sbi	0x18, 0	; 24
                last_pkt_encrypted=1;
    1594:	81 e0       	ldi	r24, 0x01	; 1
    1596:	80 93 71 07 	sts	0x0771, r24
                rfSettings.pRxInfo->length -= 4;
    159a:	e0 91 65 07 	lds	r30, 0x0765
    159e:	f0 91 66 07 	lds	r31, 0x0766
    15a2:	83 81       	ldd	r24, Z+3	; 0x03
    15a4:	84 50       	subi	r24, 0x04	; 4
    15a6:	83 83       	std	Z+3, r24	; 0x03
            }

            // Read the packet payload
            FASTSPI_READ_FIFO_NO_WAIT(rfSettings.pRxInfo->pPayload, rfSettings.pRxInfo->length);
    15a8:	c0 98       	cbi	0x18, 0	; 24
    15aa:	8f e7       	ldi	r24, 0x7F	; 127
    15ac:	8f b9       	out	0x0f, r24	; 15
    15ae:	77 9b       	sbis	0x0e, 7	; 14
    15b0:	fe cf       	rjmp	.-4      	; 0x15ae <rf_polling_rx_packet+0x27e>
    15b2:	40 e0       	ldi	r20, 0x00	; 0
    15b4:	0f c0       	rjmp	.+30     	; 0x15d4 <rf_polling_rx_packet+0x2a4>
    15b6:	1f b8       	out	0x0f, r1	; 15
    15b8:	77 9b       	sbis	0x0e, 7	; 14
    15ba:	fe cf       	rjmp	.-4      	; 0x15b8 <rf_polling_rx_packet+0x288>
    15bc:	e0 91 65 07 	lds	r30, 0x0765
    15c0:	f0 91 66 07 	lds	r31, 0x0766
    15c4:	8f b1       	in	r24, 0x0f	; 15
    15c6:	05 80       	ldd	r0, Z+5	; 0x05
    15c8:	f6 81       	ldd	r31, Z+6	; 0x06
    15ca:	e0 2d       	mov	r30, r0
    15cc:	e4 0f       	add	r30, r20
    15ce:	f1 1d       	adc	r31, r1
    15d0:	80 83       	st	Z, r24
    15d2:	4f 5f       	subi	r20, 0xFF	; 255
    15d4:	e0 91 65 07 	lds	r30, 0x0765
    15d8:	f0 91 66 07 	lds	r31, 0x0766
    15dc:	24 2f       	mov	r18, r20
    15de:	30 e0       	ldi	r19, 0x00	; 0
    15e0:	83 81       	ldd	r24, Z+3	; 0x03
    15e2:	99 27       	eor	r25, r25
    15e4:	87 fd       	sbrc	r24, 7
    15e6:	90 95       	com	r25
    15e8:	28 17       	cp	r18, r24
    15ea:	39 07       	cpc	r19, r25
    15ec:	24 f3       	brlt	.-56     	; 0x15b6 <rf_polling_rx_packet+0x286>
    15ee:	c0 9a       	sbi	0x18, 0	; 24
            FASTSPI_READ_FIFO_NO_WAIT(&rx_checksum, 1 );
    15f0:	c0 98       	cbi	0x18, 0	; 24
    15f2:	8f e7       	ldi	r24, 0x7F	; 127
    15f4:	8f b9       	out	0x0f, r24	; 15
    15f6:	77 9b       	sbis	0x0e, 7	; 14
    15f8:	fe cf       	rjmp	.-4      	; 0x15f6 <rf_polling_rx_packet+0x2c6>
    15fa:	1f b8       	out	0x0f, r1	; 15
    15fc:	77 9b       	sbis	0x0e, 7	; 14
    15fe:	fe cf       	rjmp	.-4      	; 0x15fc <rf_polling_rx_packet+0x2cc>
    1600:	9f b1       	in	r25, 0x0f	; 15
    1602:	c0 9a       	sbi	0x18, 0	; 24

            // Read the footer to get the RSSI value
            FASTSPI_READ_FIFO_NO_WAIT((uint8_t*) pFooter, 2);
    1604:	c0 98       	cbi	0x18, 0	; 24
    1606:	8f e7       	ldi	r24, 0x7F	; 127
    1608:	8f b9       	out	0x0f, r24	; 15
    160a:	77 9b       	sbis	0x0e, 7	; 14
    160c:	fe cf       	rjmp	.-4      	; 0x160a <rf_polling_rx_packet+0x2da>
                rfSettings.pRxInfo->length -= 4;
            }

            // Read the packet payload
            FASTSPI_READ_FIFO_NO_WAIT(rfSettings.pRxInfo->pPayload, rfSettings.pRxInfo->length);
            FASTSPI_READ_FIFO_NO_WAIT(&rx_checksum, 1 );
    160e:	99 83       	std	Y+1, r25	; 0x01
    1610:	fe 01       	movw	r30, r28
    1612:	34 96       	adiw	r30, 0x04	; 4

            // Read the footer to get the RSSI value
            FASTSPI_READ_FIFO_NO_WAIT((uint8_t*) pFooter, 2);
    1614:	9e 01       	movw	r18, r28
    1616:	2a 5f       	subi	r18, 0xFA	; 250
    1618:	3f 4f       	sbci	r19, 0xFF	; 255
    161a:	1f b8       	out	0x0f, r1	; 15
    161c:	77 9b       	sbis	0x0e, 7	; 14
    161e:	fe cf       	rjmp	.-4      	; 0x161c <rf_polling_rx_packet+0x2ec>
    1620:	8f b1       	in	r24, 0x0f	; 15
    1622:	81 93       	st	Z+, r24
    1624:	e2 17       	cp	r30, r18
    1626:	f3 07       	cpc	r31, r19
    1628:	c1 f7       	brne	.-16     	; 0x161a <rf_polling_rx_packet+0x2ea>
    162a:	c0 9a       	sbi	0x18, 0	; 24
            rfSettings.pRxInfo->rssi = pFooter[0];
    162c:	e0 91 65 07 	lds	r30, 0x0765
    1630:	f0 91 66 07 	lds	r31, 0x0766
    1634:	8c 81       	ldd	r24, Y+4	; 0x04
    1636:	80 87       	std	Z+8, r24	; 0x08
    1638:	50 e0       	ldi	r21, 0x00	; 0
    163a:	40 e0       	ldi	r20, 0x00	; 0
    163c:	0c c0       	rjmp	.+24     	; 0x1656 <rf_polling_rx_packet+0x326>
            checksum=0;
            for(i=0; i<rfSettings.pRxInfo->length; i++ )
            {
                checksum+=rfSettings.pRxInfo->pPayload[i];
    163e:	e0 91 65 07 	lds	r30, 0x0765
    1642:	f0 91 66 07 	lds	r31, 0x0766
    1646:	05 80       	ldd	r0, Z+5	; 0x05
    1648:	f6 81       	ldd	r31, Z+6	; 0x06
    164a:	e0 2d       	mov	r30, r0
    164c:	e2 0f       	add	r30, r18
    164e:	f3 1f       	adc	r31, r19
    1650:	80 81       	ld	r24, Z
    1652:	58 0f       	add	r21, r24

            // Read the footer to get the RSSI value
            FASTSPI_READ_FIFO_NO_WAIT((uint8_t*) pFooter, 2);
            rfSettings.pRxInfo->rssi = pFooter[0];
            checksum=0;
            for(i=0; i<rfSettings.pRxInfo->length; i++ )
    1654:	4f 5f       	subi	r20, 0xFF	; 255
    1656:	e0 91 65 07 	lds	r30, 0x0765
    165a:	f0 91 66 07 	lds	r31, 0x0766
    165e:	24 2f       	mov	r18, r20
    1660:	30 e0       	ldi	r19, 0x00	; 0
    1662:	83 81       	ldd	r24, Z+3	; 0x03
    1664:	99 27       	eor	r25, r25
    1666:	87 fd       	sbrc	r24, 7
    1668:	90 95       	com	r25
    166a:	28 17       	cp	r18, r24
    166c:	39 07       	cpc	r19, r25
    166e:	3c f3       	brlt	.-50     	; 0x163e <rf_polling_rx_packet+0x30e>
            {
                checksum+=rfSettings.pRxInfo->pPayload[i];
                //printf( "%d ", rfSettings.pRxInfo->pPayload[i]);
            }

            if(checksum!=rx_checksum)
    1670:	89 81       	ldd	r24, Y+1	; 0x01
    1672:	58 17       	cp	r21, r24
    1674:	c1 f0       	breq	.+48     	; 0x16a6 <rf_polling_rx_packet+0x376>
            {
                //printf( "Checksum failed %d %d\r",rx_checksum, checksum );
                // always read 1 byte before flush (data sheet pg 62)
                FASTSPI_READ_FIFO_BYTE(tmp);
    1676:	c0 98       	cbi	0x18, 0	; 24
    1678:	8f e7       	ldi	r24, 0x7F	; 127
    167a:	8f b9       	out	0x0f, r24	; 15
    167c:	77 9b       	sbis	0x0e, 7	; 14
    167e:	fe cf       	rjmp	.-4      	; 0x167c <rf_polling_rx_packet+0x34c>
    1680:	1f b8       	out	0x0f, r1	; 15
    1682:	77 9b       	sbis	0x0e, 7	; 14
    1684:	fe cf       	rjmp	.-4      	; 0x1682 <rf_polling_rx_packet+0x352>
    1686:	8f b1       	in	r24, 0x0f	; 15
    1688:	c0 9a       	sbi	0x18, 0	; 24
                FASTSPI_STROBE(CC2420_SFLUSHRX);
    168a:	c0 98       	cbi	0x18, 0	; 24
    168c:	88 e0       	ldi	r24, 0x08	; 8
    168e:	8f b9       	out	0x0f, r24	; 15
    1690:	77 9b       	sbis	0x0e, 7	; 14
    1692:	fe cf       	rjmp	.-4      	; 0x1690 <rf_polling_rx_packet+0x360>
    1694:	c0 9a       	sbi	0x18, 0	; 24
                FASTSPI_STROBE(CC2420_SFLUSHRX);
    1696:	c0 98       	cbi	0x18, 0	; 24
    1698:	88 e0       	ldi	r24, 0x08	; 8
    169a:	8f b9       	out	0x0f, r24	; 15
    169c:	77 9b       	sbis	0x0e, 7	; 14
    169e:	fe cf       	rjmp	.-4      	; 0x169c <rf_polling_rx_packet+0x36c>
    16a0:	c0 9a       	sbi	0x18, 0	; 24
    16a2:	8c ef       	ldi	r24, 0xFC	; 252
    16a4:	21 c0       	rjmp	.+66     	; 0x16e8 <rf_polling_rx_packet+0x3b8>
#ifdef RADIO_PRIORITY_CEILING
                nrk_sem_post(radio_sem);
#endif
                return -4;
            }
            if (pFooter[1] & RF_CRC_OK_BM)
    16a6:	8d 81       	ldd	r24, Y+5	; 0x05
    16a8:	87 ff       	sbrs	r24, 7
    16aa:	07 c0       	rjmp	.+14     	; 0x16ba <rf_polling_rx_packet+0x38a>
            {
                //rfSettings.pRxInfo = rf_rx_callback(rfSettings.pRxInfo);
                rx_ready++;
    16ac:	80 91 76 07 	lds	r24, 0x0776
    16b0:	8f 5f       	subi	r24, 0xFF	; 255
    16b2:	80 93 76 07 	sts	0x0776, r24
    16b6:	81 e0       	ldi	r24, 0x01	; 1
    16b8:	17 c0       	rjmp	.+46     	; 0x16e8 <rf_polling_rx_packet+0x3b8>
                return 1;
            }
            else
            {
                // always read 1 byte before flush (data sheet pg 62)
                FASTSPI_READ_FIFO_BYTE(tmp);
    16ba:	c0 98       	cbi	0x18, 0	; 24
    16bc:	8f e7       	ldi	r24, 0x7F	; 127
    16be:	8f b9       	out	0x0f, r24	; 15
    16c0:	77 9b       	sbis	0x0e, 7	; 14
    16c2:	fe cf       	rjmp	.-4      	; 0x16c0 <rf_polling_rx_packet+0x390>
    16c4:	1f b8       	out	0x0f, r1	; 15
    16c6:	77 9b       	sbis	0x0e, 7	; 14
    16c8:	fe cf       	rjmp	.-4      	; 0x16c6 <rf_polling_rx_packet+0x396>
    16ca:	8f b1       	in	r24, 0x0f	; 15
    16cc:	c0 9a       	sbi	0x18, 0	; 24
                FASTSPI_STROBE(CC2420_SFLUSHRX);
    16ce:	c0 98       	cbi	0x18, 0	; 24
    16d0:	88 e0       	ldi	r24, 0x08	; 8
    16d2:	8f b9       	out	0x0f, r24	; 15
    16d4:	77 9b       	sbis	0x0e, 7	; 14
    16d6:	fe cf       	rjmp	.-4      	; 0x16d4 <rf_polling_rx_packet+0x3a4>
    16d8:	c0 9a       	sbi	0x18, 0	; 24
                FASTSPI_STROBE(CC2420_SFLUSHRX);
    16da:	c0 98       	cbi	0x18, 0	; 24
    16dc:	88 e0       	ldi	r24, 0x08	; 8
    16de:	8f b9       	out	0x0f, r24	; 15
    16e0:	77 9b       	sbis	0x0e, 7	; 14
    16e2:	fe cf       	rjmp	.-4      	; 0x16e0 <rf_polling_rx_packet+0x3b0>
    16e4:	c0 9a       	sbi	0x18, 0	; 24
    16e6:	8b ef       	ldi	r24, 0xFB	; 251
    }
#ifdef RADIO_PRIORITY_CEILING
    nrk_sem_post(radio_sem);
#endif
    return 0;
}
    16e8:	0f 90       	pop	r0
    16ea:	0f 90       	pop	r0
    16ec:	0f 90       	pop	r0
    16ee:	0f 90       	pop	r0
    16f0:	0f 90       	pop	r0
    16f2:	cf 91       	pop	r28
    16f4:	df 91       	pop	r29
    16f6:	08 95       	ret

000016f8 <rf_rx_packet>:

int8_t rf_rx_packet()
{
    int8_t tmp;
    if(rx_ready>0)
    16f8:	80 91 76 07 	lds	r24, 0x0776
    16fc:	88 23       	and	r24, r24
    16fe:	21 f0       	breq	.+8      	; 0x1708 <rf_rx_packet+0x10>
    {
        tmp=rx_ready;
    1700:	80 91 76 07 	lds	r24, 0x0776
        rx_ready=0;
    1704:	10 92 76 07 	sts	0x0776, r1
        return tmp;
    }
    return 0;
}
    1708:	08 95       	ret

0000170a <rf_flush_rx_fifo>:


inline void rf_flush_rx_fifo()
{
    FASTSPI_STROBE(CC2420_SFLUSHRX);
    170a:	c0 98       	cbi	0x18, 0	; 24
    170c:	88 e0       	ldi	r24, 0x08	; 8
    170e:	8f b9       	out	0x0f, r24	; 15
    1710:	77 9b       	sbis	0x0e, 7	; 14
    1712:	fe cf       	rjmp	.-4      	; 0x1710 <rf_flush_rx_fifo+0x6>
    1714:	c0 9a       	sbi	0x18, 0	; 24
    FASTSPI_STROBE(CC2420_SFLUSHRX);
    1716:	c0 98       	cbi	0x18, 0	; 24
    1718:	88 e0       	ldi	r24, 0x08	; 8
    171a:	8f b9       	out	0x0f, r24	; 15
    171c:	77 9b       	sbis	0x0e, 7	; 14
    171e:	fe cf       	rjmp	.-4      	; 0x171c <rf_flush_rx_fifo+0x12>
    1720:	c0 9a       	sbi	0x18, 0	; 24
}
    1722:	08 95       	ret

00001724 <rf_set_cca_thresh>:
    uint16_t val;
#ifdef RADIO_PRIORITY_CEILING
    nrk_sem_pend(radio_sem);
#endif

    val=(t<<8) | 0x80;
    1724:	99 27       	eor	r25, r25
    1726:	87 fd       	sbrc	r24, 7
    1728:	90 95       	com	r25
    172a:	38 2f       	mov	r19, r24
    172c:	22 27       	eor	r18, r18
    172e:	20 68       	ori	r18, 0x80	; 128
    FASTSPI_SETREG(CC2420_RSSI, val);
    1730:	c0 98       	cbi	0x18, 0	; 24
    1732:	83 e1       	ldi	r24, 0x13	; 19
    1734:	8f b9       	out	0x0f, r24	; 15
    1736:	77 9b       	sbis	0x0e, 7	; 14
    1738:	fe cf       	rjmp	.-4      	; 0x1736 <rf_set_cca_thresh+0x12>
    173a:	3f b9       	out	0x0f, r19	; 15
    173c:	77 9b       	sbis	0x0e, 7	; 14
    173e:	fe cf       	rjmp	.-4      	; 0x173c <rf_set_cca_thresh+0x18>
    1740:	2f b9       	out	0x0f, r18	; 15
    1742:	77 9b       	sbis	0x0e, 7	; 14
    1744:	fe cf       	rjmp	.-4      	; 0x1742 <rf_set_cca_thresh+0x1e>
    1746:	c0 9a       	sbi	0x18, 0	; 24

#ifdef RADIO_PRIORITY_CEILING
    nrk_sem_post(radio_sem);
#endif
}
    1748:	08 95       	ret

0000174a <rf_test_mode>:
{

#ifdef RADIO_PRIORITY_CEILING
    nrk_sem_pend(radio_sem);
#endif
    FASTSPI_STROBE(CC2420_SRFOFF); //stop radio
    174a:	c0 98       	cbi	0x18, 0	; 24
    174c:	86 e0       	ldi	r24, 0x06	; 6
    174e:	8f b9       	out	0x0f, r24	; 15
    1750:	77 9b       	sbis	0x0e, 7	; 14
    1752:	fe cf       	rjmp	.-4      	; 0x1750 <rf_test_mode+0x6>
    1754:	c0 9a       	sbi	0x18, 0	; 24
    // RF studio" uses TX_MODE=3 (CC2420_MDMCTRL1=0x050C)
    // to send an unmodulated carrier; data sheet says TX_MODE
    // can be 2 or 3. So it should not matter...
    // HOWEVER, using (TX_MODE=3) sometimes causes problems when
    // going back to "data" mode!
    FASTSPI_SETREG(CC2420_MDMCTRL1, 0x0508); // MDMCTRL1 with TX_MODE=2
    1756:	c0 98       	cbi	0x18, 0	; 24
    1758:	82 e1       	ldi	r24, 0x12	; 18
    175a:	8f b9       	out	0x0f, r24	; 15
    175c:	77 9b       	sbis	0x0e, 7	; 14
    175e:	fe cf       	rjmp	.-4      	; 0x175c <rf_test_mode+0x12>
    1760:	85 e0       	ldi	r24, 0x05	; 5
    1762:	8f b9       	out	0x0f, r24	; 15
    1764:	77 9b       	sbis	0x0e, 7	; 14
    1766:	fe cf       	rjmp	.-4      	; 0x1764 <rf_test_mode+0x1a>
    1768:	88 e0       	ldi	r24, 0x08	; 8
    176a:	8f b9       	out	0x0f, r24	; 15
    176c:	77 9b       	sbis	0x0e, 7	; 14
    176e:	fe cf       	rjmp	.-4      	; 0x176c <rf_test_mode+0x22>
    1770:	c0 9a       	sbi	0x18, 0	; 24
    FASTSPI_SETREG(CC2420_DACTST, 0x1800); // send unmodulated carrier
    1772:	c0 98       	cbi	0x18, 0	; 24
    1774:	8e e2       	ldi	r24, 0x2E	; 46
    1776:	8f b9       	out	0x0f, r24	; 15
    1778:	77 9b       	sbis	0x0e, 7	; 14
    177a:	fe cf       	rjmp	.-4      	; 0x1778 <rf_test_mode+0x2e>
    177c:	88 e1       	ldi	r24, 0x18	; 24
    177e:	8f b9       	out	0x0f, r24	; 15
    1780:	77 9b       	sbis	0x0e, 7	; 14
    1782:	fe cf       	rjmp	.-4      	; 0x1780 <rf_test_mode+0x36>
    1784:	1f b8       	out	0x0f, r1	; 15
    1786:	77 9b       	sbis	0x0e, 7	; 14
    1788:	fe cf       	rjmp	.-4      	; 0x1786 <rf_test_mode+0x3c>
    178a:	c0 9a       	sbi	0x18, 0	; 24
    rf_flush_rx_fifo();
    178c:	0e 94 85 0b 	call	0x170a	; 0x170a <rf_flush_rx_fifo>

#ifdef RADIO_PRIORITY_CEILING
    nrk_sem_post(radio_sem);
#endif
}
    1790:	08 95       	ret

00001792 <rf_data_mode>:
#ifdef RADIO_PRIORITY_CEILING
    nrk_sem_pend(radio_sem);
#endif


    FASTSPI_STROBE(CC2420_SRFOFF); //stop radio
    1792:	c0 98       	cbi	0x18, 0	; 24
    1794:	86 e0       	ldi	r24, 0x06	; 6
    1796:	8f b9       	out	0x0f, r24	; 15
    1798:	77 9b       	sbis	0x0e, 7	; 14
    179a:	fe cf       	rjmp	.-4      	; 0x1798 <rf_data_mode+0x6>
    179c:	c0 9a       	sbi	0x18, 0	; 24
    FASTSPI_SETREG(CC2420_MDMCTRL1, 0x0500); // default MDMCTRL1 value
    179e:	c0 98       	cbi	0x18, 0	; 24
    17a0:	82 e1       	ldi	r24, 0x12	; 18
    17a2:	8f b9       	out	0x0f, r24	; 15
    17a4:	77 9b       	sbis	0x0e, 7	; 14
    17a6:	fe cf       	rjmp	.-4      	; 0x17a4 <rf_data_mode+0x12>
    17a8:	85 e0       	ldi	r24, 0x05	; 5
    17aa:	8f b9       	out	0x0f, r24	; 15
    17ac:	77 9b       	sbis	0x0e, 7	; 14
    17ae:	fe cf       	rjmp	.-4      	; 0x17ac <rf_data_mode+0x1a>
    17b0:	1f b8       	out	0x0f, r1	; 15
    17b2:	77 9b       	sbis	0x0e, 7	; 14
    17b4:	fe cf       	rjmp	.-4      	; 0x17b2 <rf_data_mode+0x20>
    17b6:	c0 9a       	sbi	0x18, 0	; 24
    FASTSPI_SETREG(CC2420_DACTST, 0); // default value
    17b8:	c0 98       	cbi	0x18, 0	; 24
    17ba:	8e e2       	ldi	r24, 0x2E	; 46
    17bc:	8f b9       	out	0x0f, r24	; 15
    17be:	77 9b       	sbis	0x0e, 7	; 14
    17c0:	fe cf       	rjmp	.-4      	; 0x17be <rf_data_mode+0x2c>
    17c2:	1f b8       	out	0x0f, r1	; 15
    17c4:	77 9b       	sbis	0x0e, 7	; 14
    17c6:	fe cf       	rjmp	.-4      	; 0x17c4 <rf_data_mode+0x32>
    17c8:	1f b8       	out	0x0f, r1	; 15
    17ca:	77 9b       	sbis	0x0e, 7	; 14
    17cc:	fe cf       	rjmp	.-4      	; 0x17ca <rf_data_mode+0x38>
    17ce:	c0 9a       	sbi	0x18, 0	; 24
    rf_flush_rx_fifo();
    17d0:	0e 94 85 0b 	call	0x170a	; 0x170a <rf_flush_rx_fifo>
#ifdef RADIO_PRIORITY_CEILING
    nrk_sem_post(radio_sem);
#endif
}
    17d4:	08 95       	ret

000017d6 <rf_rx_set_serial>:
 * Use rf_rx_on() to start rcv, then wait for SFD / FIFOP. Sample during each high edge of FIFOP
 * This can be undone by using rf_data_mode()
 */
void rf_rx_set_serial()
{
    FASTSPI_STROBE(CC2420_SRFOFF);           // stop radio
    17d6:	c0 98       	cbi	0x18, 0	; 24
    17d8:	86 e0       	ldi	r24, 0x06	; 6
    17da:	8f b9       	out	0x0f, r24	; 15
    17dc:	77 9b       	sbis	0x0e, 7	; 14
    17de:	fe cf       	rjmp	.-4      	; 0x17dc <rf_rx_set_serial+0x6>
    17e0:	c0 9a       	sbi	0x18, 0	; 24
    FASTSPI_SETREG(CC2420_MDMCTRL1, 0x0501); // Set RX_MODE to 1
    17e2:	c0 98       	cbi	0x18, 0	; 24
    17e4:	82 e1       	ldi	r24, 0x12	; 18
    17e6:	8f b9       	out	0x0f, r24	; 15
    17e8:	77 9b       	sbis	0x0e, 7	; 14
    17ea:	fe cf       	rjmp	.-4      	; 0x17e8 <rf_rx_set_serial+0x12>
    17ec:	85 e0       	ldi	r24, 0x05	; 5
    17ee:	8f b9       	out	0x0f, r24	; 15
    17f0:	77 9b       	sbis	0x0e, 7	; 14
    17f2:	fe cf       	rjmp	.-4      	; 0x17f0 <rf_rx_set_serial+0x1a>
    17f4:	81 e0       	ldi	r24, 0x01	; 1
    17f6:	8f b9       	out	0x0f, r24	; 15
    17f8:	77 9b       	sbis	0x0e, 7	; 14
    17fa:	fe cf       	rjmp	.-4      	; 0x17f8 <rf_rx_set_serial+0x22>
    17fc:	c0 9a       	sbi	0x18, 0	; 24
    rf_flush_rx_fifo();
    17fe:	0e 94 85 0b 	call	0x170a	; 0x170a <rf_flush_rx_fifo>
}
    1802:	08 95       	ret

00001804 <rf_tx_set_serial>:
 * NOTE: You must set the FIFO pin to output mode in order to do this!
 * This can be undone by calling rf_data_mode()
 */
void rf_tx_set_serial()
{
    FASTSPI_SETREG(CC2420_MDMCTRL1, 0x0504); // set TXMODE to 1
    1804:	c0 98       	cbi	0x18, 0	; 24
    1806:	82 e1       	ldi	r24, 0x12	; 18
    1808:	8f b9       	out	0x0f, r24	; 15
    180a:	77 9b       	sbis	0x0e, 7	; 14
    180c:	fe cf       	rjmp	.-4      	; 0x180a <rf_tx_set_serial+0x6>
    180e:	85 e0       	ldi	r24, 0x05	; 5
    1810:	8f b9       	out	0x0f, r24	; 15
    1812:	77 9b       	sbis	0x0e, 7	; 14
    1814:	fe cf       	rjmp	.-4      	; 0x1812 <rf_tx_set_serial+0xe>
    1816:	84 e0       	ldi	r24, 0x04	; 4
    1818:	8f b9       	out	0x0f, r24	; 15
    181a:	77 9b       	sbis	0x0e, 7	; 14
    181c:	fe cf       	rjmp	.-4      	; 0x181a <rf_tx_set_serial+0x16>
    181e:	c0 9a       	sbi	0x18, 0	; 24
    rf_flush_rx_fifo();
    1820:	0e 94 85 0b 	call	0x170a	; 0x170a <rf_flush_rx_fifo>
}
    1824:	08 95       	ret

00001826 <rf_set_preamble_length>:
 * Length arg supports values 0 to 15. See the datasheet of course for more details
 */
void rf_set_preamble_length(uint8_t length)
{
    mdmctrl0 &= (0xFFF0);
    mdmctrl0 |= (length & 0x000F);
    1826:	28 2f       	mov	r18, r24
    1828:	30 e0       	ldi	r19, 0x00	; 0
    182a:	2f 70       	andi	r18, 0x0F	; 15
    182c:	30 70       	andi	r19, 0x00	; 0
    182e:	80 91 63 07 	lds	r24, 0x0763
    1832:	90 91 64 07 	lds	r25, 0x0764
    1836:	80 7f       	andi	r24, 0xF0	; 240
    1838:	28 2b       	or	r18, r24
    183a:	39 2b       	or	r19, r25
    183c:	30 93 64 07 	sts	0x0764, r19
    1840:	20 93 63 07 	sts	0x0763, r18
    FASTSPI_SETREG(CC2420_MDMCTRL0, mdmctrl0);
    1844:	c0 98       	cbi	0x18, 0	; 24
    1846:	81 e1       	ldi	r24, 0x11	; 17
    1848:	8f b9       	out	0x0f, r24	; 15
    184a:	77 9b       	sbis	0x0e, 7	; 14
    184c:	fe cf       	rjmp	.-4      	; 0x184a <rf_set_preamble_length+0x24>
    184e:	3f b9       	out	0x0f, r19	; 15
    1850:	77 9b       	sbis	0x0e, 7	; 14
    1852:	fe cf       	rjmp	.-4      	; 0x1850 <rf_set_preamble_length+0x2a>
    1854:	2f b9       	out	0x0f, r18	; 15
    1856:	77 9b       	sbis	0x0e, 7	; 14
    1858:	fe cf       	rjmp	.-4      	; 0x1856 <rf_set_preamble_length+0x30>
    185a:	c0 9a       	sbi	0x18, 0	; 24
}
    185c:	08 95       	ret

0000185e <rf_set_cca_mode>:
 * Accept 1-3 as argument
 */
void rf_set_cca_mode(uint8_t mode)
{
    mdmctrl0 &= (0xFF3F);
    mdmctrl0 |= ((mode & 0x3) << 6);
    185e:	28 2f       	mov	r18, r24
    1860:	30 e0       	ldi	r19, 0x00	; 0
    1862:	76 e0       	ldi	r23, 0x06	; 6
    1864:	22 0f       	add	r18, r18
    1866:	33 1f       	adc	r19, r19
    1868:	7a 95       	dec	r23
    186a:	e1 f7       	brne	.-8      	; 0x1864 <rf_set_cca_mode+0x6>
    186c:	30 70       	andi	r19, 0x00	; 0
    186e:	80 91 63 07 	lds	r24, 0x0763
    1872:	90 91 64 07 	lds	r25, 0x0764
    1876:	8f 73       	andi	r24, 0x3F	; 63
    1878:	28 2b       	or	r18, r24
    187a:	39 2b       	or	r19, r25
    187c:	30 93 64 07 	sts	0x0764, r19
    1880:	20 93 63 07 	sts	0x0763, r18
    FASTSPI_SETREG(CC2420_MDMCTRL0, mdmctrl0);
    1884:	c0 98       	cbi	0x18, 0	; 24
    1886:	81 e1       	ldi	r24, 0x11	; 17
    1888:	8f b9       	out	0x0f, r24	; 15
    188a:	77 9b       	sbis	0x0e, 7	; 14
    188c:	fe cf       	rjmp	.-4      	; 0x188a <rf_set_cca_mode+0x2c>
    188e:	3f b9       	out	0x0f, r19	; 15
    1890:	77 9b       	sbis	0x0e, 7	; 14
    1892:	fe cf       	rjmp	.-4      	; 0x1890 <rf_set_cca_mode+0x32>
    1894:	2f b9       	out	0x0f, r18	; 15
    1896:	77 9b       	sbis	0x0e, 7	; 14
    1898:	fe cf       	rjmp	.-4      	; 0x1896 <rf_set_cca_mode+0x38>
    189a:	c0 9a       	sbi	0x18, 0	; 24
}
    189c:	08 95       	ret

0000189e <rf_carrier_on>:
    nrk_spin_wait_us(OSC_STARTUP_DELAY);
#endif



    FASTSPI_STROBE(CC2420_STXON); // tell radio to start sending
    189e:	c0 98       	cbi	0x18, 0	; 24
    18a0:	84 e0       	ldi	r24, 0x04	; 4
    18a2:	8f b9       	out	0x0f, r24	; 15
    18a4:	77 9b       	sbis	0x0e, 7	; 14
    18a6:	fe cf       	rjmp	.-4      	; 0x18a4 <rf_carrier_on+0x6>
    18a8:	c0 9a       	sbi	0x18, 0	; 24
#ifdef RADIO_PRIORITY_CEILING
    nrk_sem_post(radio_sem);
#endif
}
    18aa:	08 95       	ret

000018ac <rf_carrier_off>:
#ifdef CC2420_OSC_OPT
    FASTSPI_STROBE(CC2420_SXOSCOFF);
#endif


    FASTSPI_STROBE(CC2420_SRFOFF); // stop radio
    18ac:	c0 98       	cbi	0x18, 0	; 24
    18ae:	86 e0       	ldi	r24, 0x06	; 6
    18b0:	8f b9       	out	0x0f, r24	; 15
    18b2:	77 9b       	sbis	0x0e, 7	; 14
    18b4:	fe cf       	rjmp	.-4      	; 0x18b2 <rf_carrier_off+0x6>
    18b6:	c0 9a       	sbi	0x18, 0	; 24
#ifdef RADIO_PRIORITY_CEILING
    nrk_sem_post(radio_sem);
#endif
}
    18b8:	08 95       	ret

000018ba <rf_tx_packet>:
//  RETURN VALUE:
//		uint8_t
//			Successful transmission (acknowledgment received)
//-------------------------------------------------------------------------------------------------------
uint8_t rf_tx_packet(RF_TX_INFO *pRTI)
{
    18ba:	ff 92       	push	r15
    18bc:	0f 93       	push	r16
    18be:	1f 93       	push	r17
    18c0:	df 93       	push	r29
    18c2:	cf 93       	push	r28
    18c4:	00 d0       	rcall	.+0      	; 0x18c6 <rf_tx_packet+0xc>
    18c6:	00 d0       	rcall	.+0      	; 0x18c8 <rf_tx_packet+0xe>
    18c8:	cd b7       	in	r28, 0x3d	; 61
    18ca:	de b7       	in	r29, 0x3e	; 62
    18cc:	dc 01       	movw	r26, r24

#ifdef CC2420_OSC_OPT
    FASTSPI_STROBE(CC2420_SXOSCON);
    nrk_spin_wait_us(OSC_STARTUP_DELAY);
#endif
    if(security_enable)
    18ce:	40 91 62 07 	lds	r20, 0x0762
    18d2:	44 23       	and	r20, r20
    18d4:	31 f0       	breq	.+12     	; 0x18e2 <rf_tx_packet+0x28>
        FASTSPI_STROBE(CC2420_STXENC);
    18d6:	c0 98       	cbi	0x18, 0	; 24
    18d8:	8d e0       	ldi	r24, 0x0D	; 13
    18da:	8f b9       	out	0x0f, r24	; 15
    18dc:	77 9b       	sbis	0x0e, 7	; 14
    18de:	fe cf       	rjmp	.-4      	; 0x18dc <rf_tx_packet+0x22>
    18e0:	c0 9a       	sbi	0x18, 0	; 24

    checksum=0;
    18e2:	1a 82       	std	Y+2, r1	; 0x02
    for(i=0; i<pRTI->length; i++ )
    18e4:	12 96       	adiw	r26, 0x02	; 2
    18e6:	2c 91       	ld	r18, X
    18e8:	12 97       	sbiw	r26, 0x02	; 2
    18ea:	62 2f       	mov	r22, r18
    18ec:	77 27       	eor	r23, r23
    18ee:	67 fd       	sbrc	r22, 7
    18f0:	70 95       	com	r23
    18f2:	30 e0       	ldi	r19, 0x00	; 0
    18f4:	0b c0       	rjmp	.+22     	; 0x190c <rf_tx_packet+0x52>
    {
        // lets do our own payload checksum because we don't trust the CRC
        checksum+=pRTI->pPayload[i];
    18f6:	13 96       	adiw	r26, 0x03	; 3
    18f8:	ed 91       	ld	r30, X+
    18fa:	fc 91       	ld	r31, X
    18fc:	14 97       	sbiw	r26, 0x04	; 4
    18fe:	e8 0f       	add	r30, r24
    1900:	f9 1f       	adc	r31, r25
    1902:	8a 81       	ldd	r24, Y+2	; 0x02
    1904:	90 81       	ld	r25, Z
    1906:	89 0f       	add	r24, r25
    1908:	8a 83       	std	Y+2, r24	; 0x02
#endif
    if(security_enable)
        FASTSPI_STROBE(CC2420_STXENC);

    checksum=0;
    for(i=0; i<pRTI->length; i++ )
    190a:	3f 5f       	subi	r19, 0xFF	; 255
    190c:	83 2f       	mov	r24, r19
    190e:	90 e0       	ldi	r25, 0x00	; 0
    1910:	86 17       	cp	r24, r22
    1912:	97 07       	cpc	r25, r23
    1914:	84 f3       	brlt	.-32     	; 0x18f6 <rf_tx_packet+0x3c>
    }
    // Write the packet to the TX FIFO (the FCS is appended automatically when AUTOCRC is enabled)

    // These are only the MAC AGNOSTIC parameters...
    // Slots for example are at a slighly higher later since they assume TDMA
    packetLength = pRTI->length + RF_PACKET_OVERHEAD_SIZE + CHECKSUM_OVERHEAD;
    1916:	24 5f       	subi	r18, 0xF4	; 244
    1918:	29 83       	std	Y+1, r18	; 0x01
    191a:	2c 50       	subi	r18, 0x0C	; 12
    if(security_enable) packetLength+=4;  // for CTR counter
    191c:	44 23       	and	r20, r20
    191e:	11 f0       	breq	.+4      	; 0x1924 <rf_tx_packet+0x6a>
    1920:	20 5f       	subi	r18, 0xF0	; 240
    1922:	29 83       	std	Y+1, r18	; 0x01


    // XXX 2 below are hacks...
    FASTSPI_STROBE(CC2420_SFLUSHRX);
    1924:	c0 98       	cbi	0x18, 0	; 24
    1926:	88 e0       	ldi	r24, 0x08	; 8
    1928:	8f b9       	out	0x0f, r24	; 15
    192a:	77 9b       	sbis	0x0e, 7	; 14
    192c:	fe cf       	rjmp	.-4      	; 0x192a <rf_tx_packet+0x70>
    192e:	c0 9a       	sbi	0x18, 0	; 24
    FASTSPI_STROBE(CC2420_SFLUSHRX);
    1930:	c0 98       	cbi	0x18, 0	; 24
    1932:	88 e0       	ldi	r24, 0x08	; 8
    1934:	8f b9       	out	0x0f, r24	; 15
    1936:	77 9b       	sbis	0x0e, 7	; 14
    1938:	fe cf       	rjmp	.-4      	; 0x1936 <rf_tx_packet+0x7c>
    193a:	c0 9a       	sbi	0x18, 0	; 24
    // Wait until the transceiver is idle
    while (FIFOP_IS_1 || SFD_IS_1);
    193c:	0e 99       	sbic	0x01, 6	; 1
    193e:	fe cf       	rjmp	.-4      	; 0x193c <rf_tx_packet+0x82>
    1940:	84 99       	sbic	0x10, 4	; 16
    1942:	fc cf       	rjmp	.-8      	; 0x193c <rf_tx_packet+0x82>
    // Turn off global interrupts to avoid interference on the SPI interface
    DISABLE_GLOBAL_INT();
    1944:	f8 94       	cli
    // Flush the TX FIFO just in case...
    FASTSPI_STROBE(CC2420_SFLUSHTX);
    1946:	c0 98       	cbi	0x18, 0	; 24
    1948:	89 e0       	ldi	r24, 0x09	; 9
    194a:	8f b9       	out	0x0f, r24	; 15
    194c:	77 9b       	sbis	0x0e, 7	; 14
    194e:	fe cf       	rjmp	.-4      	; 0x194c <rf_tx_packet+0x92>
    1950:	c0 9a       	sbi	0x18, 0	; 24
    FASTSPI_STROBE(CC2420_SFLUSHTX);
    1952:	c0 98       	cbi	0x18, 0	; 24
    1954:	89 e0       	ldi	r24, 0x09	; 9
    1956:	8f b9       	out	0x0f, r24	; 15
    1958:	77 9b       	sbis	0x0e, 7	; 14
    195a:	fe cf       	rjmp	.-4      	; 0x1958 <rf_tx_packet+0x9e>
    195c:	c0 9a       	sbi	0x18, 0	; 24
    		FASTSPI_STROBE(CC2420_STXONCCA);
    		FASTSPI_UPD_STATUS(spiStatusByte);
    		halWait(100);
        } while (!(spiStatusByte & BM(CC2420_TX_ACTIVE)));
    */
    FASTSPI_WRITE_FIFO((uint8_t*)&packetLength, 1);               // Packet length
    195e:	c0 98       	cbi	0x18, 0	; 24
    1960:	8e e3       	ldi	r24, 0x3E	; 62
    1962:	8f b9       	out	0x0f, r24	; 15
    1964:	77 9b       	sbis	0x0e, 7	; 14
    1966:	fe cf       	rjmp	.-4      	; 0x1964 <rf_tx_packet+0xaa>
    1968:	89 81       	ldd	r24, Y+1	; 0x01
    196a:	8f b9       	out	0x0f, r24	; 15
    196c:	77 9b       	sbis	0x0e, 7	; 14
    196e:	fe cf       	rjmp	.-4      	; 0x196c <rf_tx_packet+0xb2>
    1970:	c0 9a       	sbi	0x18, 0	; 24
    frameControlField = RF_FCF_NOACK;   // default
    1972:	81 e4       	ldi	r24, 0x41	; 65
    1974:	98 e8       	ldi	r25, 0x88	; 136
    1976:	9c 83       	std	Y+4, r25	; 0x04
    1978:	8b 83       	std	Y+3, r24	; 0x03
    if(auto_ack_enable) frameControlField |= RF_ACK_BM;
    197a:	80 91 70 07 	lds	r24, 0x0770
    197e:	88 23       	and	r24, r24
    1980:	21 f0       	breq	.+8      	; 0x198a <rf_tx_packet+0xd0>
    1982:	81 e6       	ldi	r24, 0x61	; 97
    1984:	98 e8       	ldi	r25, 0x88	; 136
    1986:	9c 83       	std	Y+4, r25	; 0x04
    1988:	8b 83       	std	Y+3, r24	; 0x03
    if(security_enable) frameControlField |= RF_SEC_BM;
    198a:	44 23       	and	r20, r20
    198c:	29 f0       	breq	.+10     	; 0x1998 <rf_tx_packet+0xde>
    198e:	8b 81       	ldd	r24, Y+3	; 0x03
    1990:	9c 81       	ldd	r25, Y+4	; 0x04
    1992:	88 60       	ori	r24, 0x08	; 8
    1994:	9c 83       	std	Y+4, r25	; 0x04
    1996:	8b 83       	std	Y+3, r24	; 0x03
    FASTSPI_WRITE_FIFO((uint8_t*) &frameControlField, 2);         // Frame control field
    1998:	c0 98       	cbi	0x18, 0	; 24
    199a:	8e e3       	ldi	r24, 0x3E	; 62
    199c:	8f b9       	out	0x0f, r24	; 15
    199e:	77 9b       	sbis	0x0e, 7	; 14
    19a0:	fe cf       	rjmp	.-4      	; 0x199e <rf_tx_packet+0xe4>
    19a2:	fe 01       	movw	r30, r28
    19a4:	33 96       	adiw	r30, 0x03	; 3
    19a6:	9e 01       	movw	r18, r28
    19a8:	2b 5f       	subi	r18, 0xFB	; 251
    19aa:	3f 4f       	sbci	r19, 0xFF	; 255
    19ac:	80 81       	ld	r24, Z
    19ae:	8f b9       	out	0x0f, r24	; 15
    19b0:	77 9b       	sbis	0x0e, 7	; 14
    19b2:	fe cf       	rjmp	.-4      	; 0x19b0 <rf_tx_packet+0xf6>
    19b4:	31 96       	adiw	r30, 0x01	; 1
    19b6:	e2 17       	cp	r30, r18
    19b8:	f3 07       	cpc	r31, r19
    19ba:	c1 f7       	brne	.-16     	; 0x19ac <rf_tx_packet+0xf2>
    19bc:	c0 9a       	sbi	0x18, 0	; 24
    FASTSPI_WRITE_FIFO((uint8_t*) &rfSettings.txSeqNumber, 1);    // Sequence number
    19be:	c0 98       	cbi	0x18, 0	; 24
    19c0:	8e e3       	ldi	r24, 0x3E	; 62
    19c2:	8f b9       	out	0x0f, r24	; 15
    19c4:	77 9b       	sbis	0x0e, 7	; 14
    19c6:	fe cf       	rjmp	.-4      	; 0x19c4 <rf_tx_packet+0x10a>
    19c8:	80 91 67 07 	lds	r24, 0x0767
    19cc:	8f b9       	out	0x0f, r24	; 15
    19ce:	77 9b       	sbis	0x0e, 7	; 14
    19d0:	fe cf       	rjmp	.-4      	; 0x19ce <rf_tx_packet+0x114>
    19d2:	c0 9a       	sbi	0x18, 0	; 24
    FASTSPI_WRITE_FIFO((uint8_t*) &rfSettings.panId, 2);          // Dest. PAN ID
    19d4:	c0 98       	cbi	0x18, 0	; 24
    19d6:	8e e3       	ldi	r24, 0x3E	; 62
    19d8:	8f b9       	out	0x0f, r24	; 15
    19da:	77 9b       	sbis	0x0e, 7	; 14
    19dc:	fe cf       	rjmp	.-4      	; 0x19da <rf_tx_packet+0x120>
    19de:	20 e0       	ldi	r18, 0x00	; 0
    19e0:	30 e0       	ldi	r19, 0x00	; 0
    19e2:	f9 01       	movw	r30, r18
    19e4:	eb 59       	subi	r30, 0x9B	; 155
    19e6:	f8 4f       	sbci	r31, 0xF8	; 248
    19e8:	84 81       	ldd	r24, Z+4	; 0x04
    19ea:	8f b9       	out	0x0f, r24	; 15
    19ec:	77 9b       	sbis	0x0e, 7	; 14
    19ee:	fe cf       	rjmp	.-4      	; 0x19ec <rf_tx_packet+0x132>
    19f0:	2f 5f       	subi	r18, 0xFF	; 255
    19f2:	3f 4f       	sbci	r19, 0xFF	; 255
    19f4:	22 30       	cpi	r18, 0x02	; 2
    19f6:	31 05       	cpc	r19, r1
    19f8:	a1 f7       	brne	.-24     	; 0x19e2 <rf_tx_packet+0x128>
    19fa:	c0 9a       	sbi	0x18, 0	; 24
    FASTSPI_WRITE_FIFO((uint8_t*) &pRTI->destAddr, 2);            // Dest. address
    19fc:	c0 98       	cbi	0x18, 0	; 24
    19fe:	8e e3       	ldi	r24, 0x3E	; 62
    1a00:	8f b9       	out	0x0f, r24	; 15
    1a02:	77 9b       	sbis	0x0e, 7	; 14
    1a04:	fe cf       	rjmp	.-4      	; 0x1a02 <rf_tx_packet+0x148>
    1a06:	fd 01       	movw	r30, r26
    1a08:	9d 01       	movw	r18, r26
    1a0a:	2e 5f       	subi	r18, 0xFE	; 254
    1a0c:	3f 4f       	sbci	r19, 0xFF	; 255
    1a0e:	80 81       	ld	r24, Z
    1a10:	8f b9       	out	0x0f, r24	; 15
    1a12:	77 9b       	sbis	0x0e, 7	; 14
    1a14:	fe cf       	rjmp	.-4      	; 0x1a12 <rf_tx_packet+0x158>
    1a16:	31 96       	adiw	r30, 0x01	; 1
    1a18:	e2 17       	cp	r30, r18
    1a1a:	f3 07       	cpc	r31, r19
    1a1c:	c1 f7       	brne	.-16     	; 0x1a0e <rf_tx_packet+0x154>
    1a1e:	c0 9a       	sbi	0x18, 0	; 24
    FASTSPI_WRITE_FIFO((uint8_t*) &rfSettings.myAddr, 2);         // Source address
    1a20:	c0 98       	cbi	0x18, 0	; 24
    1a22:	8e e3       	ldi	r24, 0x3E	; 62
    1a24:	8f b9       	out	0x0f, r24	; 15
    1a26:	77 9b       	sbis	0x0e, 7	; 14
    1a28:	fe cf       	rjmp	.-4      	; 0x1a26 <rf_tx_packet+0x16c>
    1a2a:	20 e0       	ldi	r18, 0x00	; 0
    1a2c:	30 e0       	ldi	r19, 0x00	; 0
    1a2e:	f9 01       	movw	r30, r18
    1a30:	eb 59       	subi	r30, 0x9B	; 155
    1a32:	f8 4f       	sbci	r31, 0xF8	; 248
    1a34:	86 81       	ldd	r24, Z+6	; 0x06
    1a36:	8f b9       	out	0x0f, r24	; 15
    1a38:	77 9b       	sbis	0x0e, 7	; 14
    1a3a:	fe cf       	rjmp	.-4      	; 0x1a38 <rf_tx_packet+0x17e>
    1a3c:	2f 5f       	subi	r18, 0xFF	; 255
    1a3e:	3f 4f       	sbci	r19, 0xFF	; 255
    1a40:	22 30       	cpi	r18, 0x02	; 2
    1a42:	31 05       	cpc	r19, r1
    1a44:	a1 f7       	brne	.-24     	; 0x1a2e <rf_tx_packet+0x174>
    1a46:	c0 9a       	sbi	0x18, 0	; 24
    if(security_enable)
    1a48:	44 23       	and	r20, r20
    1a4a:	89 f0       	breq	.+34     	; 0x1a6e <rf_tx_packet+0x1b4>
        FASTSPI_WRITE_FIFO((uint8_t*) &tx_ctr, 4);         // CTR counter
    1a4c:	c0 98       	cbi	0x18, 0	; 24
    1a4e:	8e e3       	ldi	r24, 0x3E	; 62
    1a50:	8f b9       	out	0x0f, r24	; 15
    1a52:	77 9b       	sbis	0x0e, 7	; 14
    1a54:	fe cf       	rjmp	.-4      	; 0x1a52 <rf_tx_packet+0x198>
    1a56:	e2 e7       	ldi	r30, 0x72	; 114
    1a58:	f7 e0       	ldi	r31, 0x07	; 7
    1a5a:	80 81       	ld	r24, Z
    1a5c:	8f b9       	out	0x0f, r24	; 15
    1a5e:	77 9b       	sbis	0x0e, 7	; 14
    1a60:	fe cf       	rjmp	.-4      	; 0x1a5e <rf_tx_packet+0x1a4>
    1a62:	31 96       	adiw	r30, 0x01	; 1
    1a64:	87 e0       	ldi	r24, 0x07	; 7
    1a66:	e6 37       	cpi	r30, 0x76	; 118
    1a68:	f8 07       	cpc	r31, r24
    1a6a:	b9 f7       	brne	.-18     	; 0x1a5a <rf_tx_packet+0x1a0>
    1a6c:	c0 9a       	sbi	0x18, 0	; 24

    FASTSPI_WRITE_FIFO((uint8_t*) pRTI->pPayload, pRTI->length);  // Payload
    1a6e:	c0 98       	cbi	0x18, 0	; 24
    1a70:	8e e3       	ldi	r24, 0x3E	; 62
    1a72:	8f b9       	out	0x0f, r24	; 15
    1a74:	77 9b       	sbis	0x0e, 7	; 14
    1a76:	fe cf       	rjmp	.-4      	; 0x1a74 <rf_tx_packet+0x1ba>
    1a78:	20 e0       	ldi	r18, 0x00	; 0
    1a7a:	0b c0       	rjmp	.+22     	; 0x1a92 <rf_tx_packet+0x1d8>
    1a7c:	13 96       	adiw	r26, 0x03	; 3
    1a7e:	ed 91       	ld	r30, X+
    1a80:	fc 91       	ld	r31, X
    1a82:	14 97       	sbiw	r26, 0x04	; 4
    1a84:	e8 0f       	add	r30, r24
    1a86:	f9 1f       	adc	r31, r25
    1a88:	80 81       	ld	r24, Z
    1a8a:	8f b9       	out	0x0f, r24	; 15
    1a8c:	77 9b       	sbis	0x0e, 7	; 14
    1a8e:	fe cf       	rjmp	.-4      	; 0x1a8c <rf_tx_packet+0x1d2>
    1a90:	2f 5f       	subi	r18, 0xFF	; 255
    1a92:	82 2f       	mov	r24, r18
    1a94:	90 e0       	ldi	r25, 0x00	; 0
    1a96:	86 17       	cp	r24, r22
    1a98:	97 07       	cpc	r25, r23
    1a9a:	84 f3       	brlt	.-32     	; 0x1a7c <rf_tx_packet+0x1c2>
    1a9c:	c0 9a       	sbi	0x18, 0	; 24
    FASTSPI_WRITE_FIFO((uint8_t*) &checksum, 1);         // Checksum
    1a9e:	c0 98       	cbi	0x18, 0	; 24
    1aa0:	8e e3       	ldi	r24, 0x3E	; 62
    1aa2:	8f b9       	out	0x0f, r24	; 15
    1aa4:	77 9b       	sbis	0x0e, 7	; 14
    1aa6:	fe cf       	rjmp	.-4      	; 0x1aa4 <rf_tx_packet+0x1ea>
    1aa8:	8a 81       	ldd	r24, Y+2	; 0x02
    1aaa:	8f b9       	out	0x0f, r24	; 15
    1aac:	77 9b       	sbis	0x0e, 7	; 14
    1aae:	fe cf       	rjmp	.-4      	; 0x1aac <rf_tx_packet+0x1f2>
    1ab0:	c0 9a       	sbi	0x18, 0	; 24

    if (pRTI->cca == TRUE)
    1ab2:	15 96       	adiw	r26, 0x05	; 5
    1ab4:	8c 91       	ld	r24, X
    1ab6:	88 23       	and	r24, r24
    1ab8:	99 f1       	breq	.+102    	; 0x1b20 <rf_tx_packet+0x266>
    {
        uint8_t cnt;
        if (!rfSettings.receiveOn)
    1aba:	80 91 6d 07 	lds	r24, 0x076D
    1abe:	88 23       	and	r24, r24
    1ac0:	31 f4       	brne	.+12     	; 0x1ace <rf_tx_packet+0x214>
        {
            FASTSPI_STROBE (CC2420_SRXON);
    1ac2:	c0 98       	cbi	0x18, 0	; 24
    1ac4:	83 e0       	ldi	r24, 0x03	; 3
    1ac6:	8f b9       	out	0x0f, r24	; 15
    1ac8:	77 9b       	sbis	0x0e, 7	; 14
    1aca:	fe cf       	rjmp	.-4      	; 0x1ac8 <rf_tx_packet+0x20e>
    1acc:	c0 9a       	sbi	0x18, 0	; 24
        }

        // Wait for the RSSI value to become valid
        do
        {
            FASTSPI_UPD_STATUS (spiStatusByte);
    1ace:	c0 98       	cbi	0x18, 0	; 24
    1ad0:	1f b8       	out	0x0f, r1	; 15
    1ad2:	77 9b       	sbis	0x0e, 7	; 14
    1ad4:	fe cf       	rjmp	.-4      	; 0x1ad2 <rf_tx_packet+0x218>
    1ad6:	8f b1       	in	r24, 0x0f	; 15
    1ad8:	c0 9a       	sbi	0x18, 0	; 24
        }
        while (!(spiStatusByte & BM (CC2420_RSSI_VALID)));
    1ada:	81 ff       	sbrs	r24, 1
    1adc:	f8 cf       	rjmp	.-16     	; 0x1ace <rf_tx_packet+0x214>
    1ade:	10 e0       	ldi	r17, 0x00	; 0
        // TX begins after the CCA check has passed
        cnt = 0;
        do
        {
            FASTSPI_STROBE (CC2420_STXONCCA);
    1ae0:	e5 e0       	ldi	r30, 0x05	; 5
    1ae2:	fe 2e       	mov	r15, r30
    1ae4:	c0 98       	cbi	0x18, 0	; 24
    1ae6:	ff b8       	out	0x0f, r15	; 15
    1ae8:	77 9b       	sbis	0x0e, 7	; 14
    1aea:	fe cf       	rjmp	.-4      	; 0x1ae8 <rf_tx_packet+0x22e>
    1aec:	c0 9a       	sbi	0x18, 0	; 24
            FASTSPI_UPD_STATUS (spiStatusByte);
    1aee:	c0 98       	cbi	0x18, 0	; 24
    1af0:	1f b8       	out	0x0f, r1	; 15
    1af2:	77 9b       	sbis	0x0e, 7	; 14
    1af4:	fe cf       	rjmp	.-4      	; 0x1af2 <rf_tx_packet+0x238>
    1af6:	0f b1       	in	r16, 0x0f	; 15
    1af8:	c0 9a       	sbi	0x18, 0	; 24
            cnt++;
    1afa:	1f 5f       	subi	r17, 0xFF	; 255
            if (cnt > 100)
    1afc:	15 36       	cpi	r17, 0x65	; 101
    1afe:	49 f4       	brne	.+18     	; 0x1b12 <rf_tx_packet+0x258>
            {
                ENABLE_GLOBAL_INT ();
    1b00:	78 94       	sei
                nrk_sem_post(radio_sem);
    1b02:	80 91 60 07 	lds	r24, 0x0760
    1b06:	90 91 61 07 	lds	r25, 0x0761
    1b0a:	0e 94 99 21 	call	0x4332	; 0x4332 <nrk_sem_post>
    1b0e:	90 e0       	ldi	r25, 0x00	; 0
    1b10:	42 c0       	rjmp	.+132    	; 0x1b96 <rf_tx_packet+0x2dc>
                return FALSE;
            }
            halWait (100);
    1b12:	84 e6       	ldi	r24, 0x64	; 100
    1b14:	90 e0       	ldi	r25, 0x00	; 0
    1b16:	0e 94 bc 13 	call	0x2778	; 0x2778 <halWait>
        }
        while (!(spiStatusByte & BM (CC2420_TX_ACTIVE)));
    1b1a:	03 ff       	sbrs	r16, 3
    1b1c:	e3 cf       	rjmp	.-58     	; 0x1ae4 <rf_tx_packet+0x22a>
    1b1e:	06 c0       	rjmp	.+12     	; 0x1b2c <rf_tx_packet+0x272>
    }
    else
        FASTSPI_STROBE (CC2420_STXON);
    1b20:	c0 98       	cbi	0x18, 0	; 24
    1b22:	84 e0       	ldi	r24, 0x04	; 4
    1b24:	8f b9       	out	0x0f, r24	; 15
    1b26:	77 9b       	sbis	0x0e, 7	; 14
    1b28:	fe cf       	rjmp	.-4      	; 0x1b26 <rf_tx_packet+0x26c>
    1b2a:	c0 9a       	sbi	0x18, 0	; 24

    ENABLE_GLOBAL_INT();
    1b2c:	78 94       	sei
    // Wait for the transmission to begin before exiting (makes sure that this function cannot be called
    // a second time, and thereby cancelling the first transmission (observe the FIFOP + SFD test above).
    while (!SFD_IS_1);
    1b2e:	84 9b       	sbis	0x10, 4	; 16
    1b30:	fe cf       	rjmp	.-4      	; 0x1b2e <rf_tx_packet+0x274>
    success = TRUE;

    // Turn interrupts back on
//	ENABLE_GLOBAL_INT();

    while (SFD_IS_1); // wait for packet to finish
    1b32:	84 99       	sbic	0x10, 4	; 16
    1b34:	fe cf       	rjmp	.-4      	; 0x1b32 <rf_tx_packet+0x278>

    // Wait for the acknowledge to be received, if any
    if (auto_ack_enable)
    1b36:	80 91 70 07 	lds	r24, 0x0770
    1b3a:	88 23       	and	r24, r24
    1b3c:	81 f0       	breq	.+32     	; 0x1b5e <rf_tx_packet+0x2a4>
        //	while (SFD_IS_1);
        // We'll enter RX automatically, so just wait until we can be sure that the
        // ack reception should have finished
        // The timeout consists of a 12-symbol turnaround time, the ack packet duration,
        // and a small margin
        halWait((12 * RF_SYMBOL_DURATION) + (RF_ACK_DURATION) + (2 * RF_SYMBOL_DURATION) + 100);
    1b3e:	84 ea       	ldi	r24, 0xA4	; 164
    1b40:	92 e0       	ldi	r25, 0x02	; 2
    1b42:	0e 94 bc 13 	call	0x2778	; 0x2778 <halWait>

        if(FIFO_IS_1)
    1b46:	b7 9b       	sbis	0x16, 7	; 22
    1b48:	0c c0       	rjmp	.+24     	; 0x1b62 <rf_tx_packet+0x2a8>
        {
            FASTSPI_READ_FIFO_BYTE(length);
    1b4a:	c0 98       	cbi	0x18, 0	; 24
    1b4c:	8f e7       	ldi	r24, 0x7F	; 127
    1b4e:	8f b9       	out	0x0f, r24	; 15
    1b50:	77 9b       	sbis	0x0e, 7	; 14
    1b52:	fe cf       	rjmp	.-4      	; 0x1b50 <rf_tx_packet+0x296>
    1b54:	1f b8       	out	0x0f, r1	; 15
    1b56:	77 9b       	sbis	0x0e, 7	; 14
    1b58:	fe cf       	rjmp	.-4      	; 0x1b56 <rf_tx_packet+0x29c>
    1b5a:	8f b1       	in	r24, 0x0f	; 15
    1b5c:	c0 9a       	sbi	0x18, 0	; 24
    1b5e:	91 e0       	ldi	r25, 0x01	; 1
    1b60:	0d c0       	rjmp	.+26     	; 0x1b7c <rf_tx_packet+0x2c2>
            success = TRUE;

        }
        else
        {
            FASTSPI_STROBE(CC2420_SFLUSHRX);
    1b62:	c0 98       	cbi	0x18, 0	; 24
    1b64:	88 e0       	ldi	r24, 0x08	; 8
    1b66:	8f b9       	out	0x0f, r24	; 15
    1b68:	77 9b       	sbis	0x0e, 7	; 14
    1b6a:	fe cf       	rjmp	.-4      	; 0x1b68 <rf_tx_packet+0x2ae>
    1b6c:	c0 9a       	sbi	0x18, 0	; 24
            FASTSPI_STROBE(CC2420_SFLUSHRX);
    1b6e:	c0 98       	cbi	0x18, 0	; 24
    1b70:	88 e0       	ldi	r24, 0x08	; 8
    1b72:	8f b9       	out	0x0f, r24	; 15
    1b74:	77 9b       	sbis	0x0e, 7	; 14
    1b76:	fe cf       	rjmp	.-4      	; 0x1b74 <rf_tx_packet+0x2ba>
    1b78:	c0 9a       	sbi	0x18, 0	; 24
    1b7a:	90 e0       	ldi	r25, 0x00	; 0
    }


    // Turn off the receiver if it should not continue to be enabled

    DISABLE_GLOBAL_INT();
    1b7c:	f8 94       	cli
    //FASTSPI_STROBE(CC2420_SFLUSHTX);

#ifdef CC2420_OSC_OPT
    FASTSPI_STROBE(CC2420_SXOSCOFF);
#endif
    FASTSPI_STROBE(CC2420_SRFOFF);  // shut off radio
    1b7e:	c0 98       	cbi	0x18, 0	; 24
    1b80:	86 e0       	ldi	r24, 0x06	; 6
    1b82:	8f b9       	out	0x0f, r24	; 15
    1b84:	77 9b       	sbis	0x0e, 7	; 14
    1b86:	fe cf       	rjmp	.-4      	; 0x1b84 <rf_tx_packet+0x2ca>
    1b88:	c0 9a       	sbi	0x18, 0	; 24
    ENABLE_GLOBAL_INT();
    1b8a:	78 94       	sei

    // agr XXX hack to test time issue
    //rf_rx_on();

    // Increment the sequence number, and return the result
    rfSettings.txSeqNumber++;
    1b8c:	80 91 67 07 	lds	r24, 0x0767
    1b90:	8f 5f       	subi	r24, 0xFF	; 255
    1b92:	80 93 67 07 	sts	0x0767, r24
#ifdef RADIO_PRIORITY_CEILING
    nrk_sem_post(radio_sem);
#endif
    return success;

}
    1b96:	89 2f       	mov	r24, r25
    1b98:	0f 90       	pop	r0
    1b9a:	0f 90       	pop	r0
    1b9c:	0f 90       	pop	r0
    1b9e:	0f 90       	pop	r0
    1ba0:	cf 91       	pop	r28
    1ba2:	df 91       	pop	r29
    1ba4:	1f 91       	pop	r17
    1ba6:	0f 91       	pop	r16
    1ba8:	ff 90       	pop	r15
    1baa:	08 95       	ret

00001bac <rf_tx_tdma_packet>:
This function is the same as normal TX, only it waits until the last
second to send the duty out with the high speed timer.  And by duty, I mean
the packet BIATCH...
**************************************************************************/
uint8_t rf_tx_tdma_packet(RF_TX_INFO *pRTI, uint16_t slot_start_time, uint16_t tx_guard_time)
{
    1bac:	cf 92       	push	r12
    1bae:	df 92       	push	r13
    1bb0:	ef 92       	push	r14
    1bb2:	ff 92       	push	r15
    1bb4:	0f 93       	push	r16
    1bb6:	1f 93       	push	r17
    1bb8:	df 93       	push	r29
    1bba:	cf 93       	push	r28
    1bbc:	00 d0       	rcall	.+0      	; 0x1bbe <rf_tx_tdma_packet+0x12>
    1bbe:	00 d0       	rcall	.+0      	; 0x1bc0 <rf_tx_tdma_packet+0x14>
    1bc0:	cd b7       	in	r28, 0x3d	; 61
    1bc2:	de b7       	in	r29, 0x3e	; 62
    1bc4:	7c 01       	movw	r14, r24
    1bc6:	8b 01       	movw	r16, r22
    1bc8:	6a 01       	movw	r12, r20
    uint8_t timestamp;

#ifdef RADIO_PRIORITY_CEILING
    nrk_sem_pend (radio_sem);
#endif
    timestamp=_nrk_os_timer_get();
    1bca:	0e 94 b6 2e 	call	0x5d6c	; 0x5d6c <_nrk_os_timer_get>
    // XXX 2 below are hacks...
#ifdef CC2420_OSC_OPT
    FASTSPI_STROBE(CC2420_SXOSCON);
    nrk_spin_wait_us(OSC_STARTUP_DELAY);
#endif
    FASTSPI_STROBE(CC2420_SFLUSHRX);
    1bce:	c0 98       	cbi	0x18, 0	; 24
    1bd0:	88 e0       	ldi	r24, 0x08	; 8
    1bd2:	8f b9       	out	0x0f, r24	; 15
    1bd4:	77 9b       	sbis	0x0e, 7	; 14
    1bd6:	fe cf       	rjmp	.-4      	; 0x1bd4 <rf_tx_tdma_packet+0x28>
    1bd8:	c0 9a       	sbi	0x18, 0	; 24
    FASTSPI_STROBE(CC2420_SFLUSHRX);
    1bda:	c0 98       	cbi	0x18, 0	; 24
    1bdc:	88 e0       	ldi	r24, 0x08	; 8
    1bde:	8f b9       	out	0x0f, r24	; 15
    1be0:	77 9b       	sbis	0x0e, 7	; 14
    1be2:	fe cf       	rjmp	.-4      	; 0x1be0 <rf_tx_tdma_packet+0x34>
    1be4:	c0 9a       	sbi	0x18, 0	; 24
    // Wait until the transceiver is idle
    while (FIFOP_IS_1 || SFD_IS_1);
    1be6:	0e 99       	sbic	0x01, 6	; 1
    1be8:	fe cf       	rjmp	.-4      	; 0x1be6 <rf_tx_tdma_packet+0x3a>
    1bea:	84 99       	sbic	0x10, 4	; 16
    1bec:	fc cf       	rjmp	.-8      	; 0x1be6 <rf_tx_tdma_packet+0x3a>
    // Turn off global interrupts to avoid interference on the SPI interface
    DISABLE_GLOBAL_INT();
    1bee:	f8 94       	cli
    // Flush the TX FIFO just in case...
    FASTSPI_STROBE(CC2420_SFLUSHTX);
    1bf0:	c0 98       	cbi	0x18, 0	; 24
    1bf2:	89 e0       	ldi	r24, 0x09	; 9
    1bf4:	8f b9       	out	0x0f, r24	; 15
    1bf6:	77 9b       	sbis	0x0e, 7	; 14
    1bf8:	fe cf       	rjmp	.-4      	; 0x1bf6 <rf_tx_tdma_packet+0x4a>
    1bfa:	c0 9a       	sbi	0x18, 0	; 24
    FASTSPI_STROBE(CC2420_SFLUSHTX);
    1bfc:	c0 98       	cbi	0x18, 0	; 24
    1bfe:	89 e0       	ldi	r24, 0x09	; 9
    1c00:	8f b9       	out	0x0f, r24	; 15
    1c02:	77 9b       	sbis	0x0e, 7	; 14
    1c04:	fe cf       	rjmp	.-4      	; 0x1c02 <rf_tx_tdma_packet+0x56>
    1c06:	c0 9a       	sbi	0x18, 0	; 24

    checksum=0;
    1c08:	1a 82       	std	Y+2, r1	; 0x02
    for(i=0; i<pRTI->length; i++ )
    1c0a:	d7 01       	movw	r26, r14
    1c0c:	12 96       	adiw	r26, 0x02	; 2
    1c0e:	3c 91       	ld	r19, X
    1c10:	43 2f       	mov	r20, r19
    1c12:	55 27       	eor	r21, r21
    1c14:	47 fd       	sbrc	r20, 7
    1c16:	50 95       	com	r21
    1c18:	20 e0       	ldi	r18, 0x00	; 0
    1c1a:	0c c0       	rjmp	.+24     	; 0x1c34 <rf_tx_tdma_packet+0x88>
    {
        // lets do our own payload checksum because we don't trust the CRC
        checksum+=pRTI->pPayload[i];
    1c1c:	d7 01       	movw	r26, r14
    1c1e:	13 96       	adiw	r26, 0x03	; 3
    1c20:	ed 91       	ld	r30, X+
    1c22:	fc 91       	ld	r31, X
    1c24:	14 97       	sbiw	r26, 0x04	; 4
    1c26:	e8 0f       	add	r30, r24
    1c28:	f9 1f       	adc	r31, r25
    1c2a:	8a 81       	ldd	r24, Y+2	; 0x02
    1c2c:	90 81       	ld	r25, Z
    1c2e:	89 0f       	add	r24, r25
    1c30:	8a 83       	std	Y+2, r24	; 0x02
    // Flush the TX FIFO just in case...
    FASTSPI_STROBE(CC2420_SFLUSHTX);
    FASTSPI_STROBE(CC2420_SFLUSHTX);

    checksum=0;
    for(i=0; i<pRTI->length; i++ )
    1c32:	2f 5f       	subi	r18, 0xFF	; 255
    1c34:	82 2f       	mov	r24, r18
    1c36:	90 e0       	ldi	r25, 0x00	; 0
    1c38:	84 17       	cp	r24, r20
    1c3a:	95 07       	cpc	r25, r21
    1c3c:	7c f3       	brlt	.-34     	; 0x1c1c <rf_tx_tdma_packet+0x70>
    {
        // lets do our own payload checksum because we don't trust the CRC
        checksum+=pRTI->pPayload[i];
    }
    packetLength = pRTI->length + RF_PACKET_OVERHEAD_SIZE + CHECKSUM_OVERHEAD;
    1c3e:	93 2f       	mov	r25, r19
    1c40:	94 5f       	subi	r25, 0xF4	; 244
    1c42:	99 83       	std	Y+1, r25	; 0x01

    // Write the packet to the TX FIFO (the FCS is appended automatically when AUTOCRC is enabled)
    // These are only the MAC AGNOSTIC parameters...
    // Slots for example are at a higher layer since they assume TDMA

    FASTSPI_WRITE_FIFO((uint8_t*)&packetLength, 1);               // Packet length
    1c44:	c0 98       	cbi	0x18, 0	; 24
    1c46:	8e e3       	ldi	r24, 0x3E	; 62
    1c48:	8f b9       	out	0x0f, r24	; 15
    1c4a:	77 9b       	sbis	0x0e, 7	; 14
    1c4c:	fe cf       	rjmp	.-4      	; 0x1c4a <rf_tx_tdma_packet+0x9e>
    1c4e:	9f b9       	out	0x0f, r25	; 15
    1c50:	77 9b       	sbis	0x0e, 7	; 14
    1c52:	fe cf       	rjmp	.-4      	; 0x1c50 <rf_tx_tdma_packet+0xa4>
    1c54:	c0 9a       	sbi	0x18, 0	; 24
    frameControlField = pRTI->ackRequest ? RF_FCF_ACK : RF_FCF_NOACK;
    1c56:	f7 01       	movw	r30, r14
    1c58:	86 81       	ldd	r24, Z+6	; 0x06
    1c5a:	88 23       	and	r24, r24
    1c5c:	19 f4       	brne	.+6      	; 0x1c64 <rf_tx_tdma_packet+0xb8>
    1c5e:	81 e4       	ldi	r24, 0x41	; 65
    1c60:	98 e8       	ldi	r25, 0x88	; 136
    1c62:	02 c0       	rjmp	.+4      	; 0x1c68 <rf_tx_tdma_packet+0xbc>
    1c64:	81 e6       	ldi	r24, 0x61	; 97
    1c66:	98 e8       	ldi	r25, 0x88	; 136
    1c68:	9c 83       	std	Y+4, r25	; 0x04
    1c6a:	8b 83       	std	Y+3, r24	; 0x03
    FASTSPI_WRITE_FIFO((uint8_t*) &frameControlField, 2);         // Frame control field
    1c6c:	c0 98       	cbi	0x18, 0	; 24
    1c6e:	8e e3       	ldi	r24, 0x3E	; 62
    1c70:	8f b9       	out	0x0f, r24	; 15
    1c72:	77 9b       	sbis	0x0e, 7	; 14
    1c74:	fe cf       	rjmp	.-4      	; 0x1c72 <rf_tx_tdma_packet+0xc6>
    1c76:	fe 01       	movw	r30, r28
    1c78:	33 96       	adiw	r30, 0x03	; 3
    1c7a:	9e 01       	movw	r18, r28
    1c7c:	2b 5f       	subi	r18, 0xFB	; 251
    1c7e:	3f 4f       	sbci	r19, 0xFF	; 255
    1c80:	80 81       	ld	r24, Z
    1c82:	8f b9       	out	0x0f, r24	; 15
    1c84:	77 9b       	sbis	0x0e, 7	; 14
    1c86:	fe cf       	rjmp	.-4      	; 0x1c84 <rf_tx_tdma_packet+0xd8>
    1c88:	31 96       	adiw	r30, 0x01	; 1
    1c8a:	e2 17       	cp	r30, r18
    1c8c:	f3 07       	cpc	r31, r19
    1c8e:	c1 f7       	brne	.-16     	; 0x1c80 <rf_tx_tdma_packet+0xd4>
    1c90:	c0 9a       	sbi	0x18, 0	; 24
    FASTSPI_WRITE_FIFO((uint8_t*) &rfSettings.txSeqNumber, 1);    // Sequence number
    1c92:	c0 98       	cbi	0x18, 0	; 24
    1c94:	8e e3       	ldi	r24, 0x3E	; 62
    1c96:	8f b9       	out	0x0f, r24	; 15
    1c98:	77 9b       	sbis	0x0e, 7	; 14
    1c9a:	fe cf       	rjmp	.-4      	; 0x1c98 <rf_tx_tdma_packet+0xec>
    1c9c:	80 91 67 07 	lds	r24, 0x0767
    1ca0:	8f b9       	out	0x0f, r24	; 15
    1ca2:	77 9b       	sbis	0x0e, 7	; 14
    1ca4:	fe cf       	rjmp	.-4      	; 0x1ca2 <rf_tx_tdma_packet+0xf6>
    1ca6:	c0 9a       	sbi	0x18, 0	; 24
    FASTSPI_WRITE_FIFO((uint8_t*) &rfSettings.panId, 2);          // Dest. PAN ID
    1ca8:	c0 98       	cbi	0x18, 0	; 24
    1caa:	8e e3       	ldi	r24, 0x3E	; 62
    1cac:	8f b9       	out	0x0f, r24	; 15
    1cae:	77 9b       	sbis	0x0e, 7	; 14
    1cb0:	fe cf       	rjmp	.-4      	; 0x1cae <rf_tx_tdma_packet+0x102>
    1cb2:	20 e0       	ldi	r18, 0x00	; 0
    1cb4:	30 e0       	ldi	r19, 0x00	; 0
    1cb6:	f9 01       	movw	r30, r18
    1cb8:	eb 59       	subi	r30, 0x9B	; 155
    1cba:	f8 4f       	sbci	r31, 0xF8	; 248
    1cbc:	84 81       	ldd	r24, Z+4	; 0x04
    1cbe:	8f b9       	out	0x0f, r24	; 15
    1cc0:	77 9b       	sbis	0x0e, 7	; 14
    1cc2:	fe cf       	rjmp	.-4      	; 0x1cc0 <rf_tx_tdma_packet+0x114>
    1cc4:	2f 5f       	subi	r18, 0xFF	; 255
    1cc6:	3f 4f       	sbci	r19, 0xFF	; 255
    1cc8:	22 30       	cpi	r18, 0x02	; 2
    1cca:	31 05       	cpc	r19, r1
    1ccc:	a1 f7       	brne	.-24     	; 0x1cb6 <rf_tx_tdma_packet+0x10a>
    1cce:	c0 9a       	sbi	0x18, 0	; 24
    FASTSPI_WRITE_FIFO((uint8_t*) &pRTI->destAddr, 2);            // Dest. address
    1cd0:	c0 98       	cbi	0x18, 0	; 24
    1cd2:	8e e3       	ldi	r24, 0x3E	; 62
    1cd4:	8f b9       	out	0x0f, r24	; 15
    1cd6:	77 9b       	sbis	0x0e, 7	; 14
    1cd8:	fe cf       	rjmp	.-4      	; 0x1cd6 <rf_tx_tdma_packet+0x12a>
    1cda:	f7 01       	movw	r30, r14
    1cdc:	97 01       	movw	r18, r14
    1cde:	2e 5f       	subi	r18, 0xFE	; 254
    1ce0:	3f 4f       	sbci	r19, 0xFF	; 255
    1ce2:	80 81       	ld	r24, Z
    1ce4:	8f b9       	out	0x0f, r24	; 15
    1ce6:	77 9b       	sbis	0x0e, 7	; 14
    1ce8:	fe cf       	rjmp	.-4      	; 0x1ce6 <rf_tx_tdma_packet+0x13a>
    1cea:	31 96       	adiw	r30, 0x01	; 1
    1cec:	e2 17       	cp	r30, r18
    1cee:	f3 07       	cpc	r31, r19
    1cf0:	c1 f7       	brne	.-16     	; 0x1ce2 <rf_tx_tdma_packet+0x136>
    1cf2:	c0 9a       	sbi	0x18, 0	; 24
    FASTSPI_WRITE_FIFO((uint8_t*) &rfSettings.myAddr, 2);         // Source address
    1cf4:	c0 98       	cbi	0x18, 0	; 24
    1cf6:	8e e3       	ldi	r24, 0x3E	; 62
    1cf8:	8f b9       	out	0x0f, r24	; 15
    1cfa:	77 9b       	sbis	0x0e, 7	; 14
    1cfc:	fe cf       	rjmp	.-4      	; 0x1cfa <rf_tx_tdma_packet+0x14e>
    1cfe:	20 e0       	ldi	r18, 0x00	; 0
    1d00:	30 e0       	ldi	r19, 0x00	; 0
    1d02:	f9 01       	movw	r30, r18
    1d04:	eb 59       	subi	r30, 0x9B	; 155
    1d06:	f8 4f       	sbci	r31, 0xF8	; 248
    1d08:	86 81       	ldd	r24, Z+6	; 0x06
    1d0a:	8f b9       	out	0x0f, r24	; 15
    1d0c:	77 9b       	sbis	0x0e, 7	; 14
    1d0e:	fe cf       	rjmp	.-4      	; 0x1d0c <rf_tx_tdma_packet+0x160>
    1d10:	2f 5f       	subi	r18, 0xFF	; 255
    1d12:	3f 4f       	sbci	r19, 0xFF	; 255
    1d14:	22 30       	cpi	r18, 0x02	; 2
    1d16:	31 05       	cpc	r19, r1
    1d18:	a1 f7       	brne	.-24     	; 0x1d02 <rf_tx_tdma_packet+0x156>
    1d1a:	c0 9a       	sbi	0x18, 0	; 24

    nrk_high_speed_timer_wait(slot_start_time,tx_guard_time);
    1d1c:	c8 01       	movw	r24, r16
    1d1e:	b6 01       	movw	r22, r12
    1d20:	0e 94 4d 2e 	call	0x5c9a	; 0x5c9a <nrk_high_speed_timer_wait>
    		FASTSPI_STROBE(CC2420_STXONCCA);
    		FASTSPI_UPD_STATUS(spiStatusByte);
    		halWait(100);
        } while (!(spiStatusByte & BM(CC2420_TX_ACTIVE)));
    */
    if (pRTI->cca == TRUE)
    1d24:	d7 01       	movw	r26, r14
    1d26:	15 96       	adiw	r26, 0x05	; 5
    1d28:	8c 91       	ld	r24, X
    1d2a:	88 23       	and	r24, r24
    1d2c:	99 f1       	breq	.+102    	; 0x1d94 <rf_tx_tdma_packet+0x1e8>
    {
        uint8_t cnt;
        if (!rfSettings.receiveOn)
    1d2e:	80 91 6d 07 	lds	r24, 0x076D
    1d32:	88 23       	and	r24, r24
    1d34:	31 f4       	brne	.+12     	; 0x1d42 <rf_tx_tdma_packet+0x196>
        {
            FASTSPI_STROBE (CC2420_SRXON);
    1d36:	c0 98       	cbi	0x18, 0	; 24
    1d38:	83 e0       	ldi	r24, 0x03	; 3
    1d3a:	8f b9       	out	0x0f, r24	; 15
    1d3c:	77 9b       	sbis	0x0e, 7	; 14
    1d3e:	fe cf       	rjmp	.-4      	; 0x1d3c <rf_tx_tdma_packet+0x190>
    1d40:	c0 9a       	sbi	0x18, 0	; 24
        }

        // Wait for the RSSI value to become valid
        do
        {
            FASTSPI_UPD_STATUS (spiStatusByte);
    1d42:	c0 98       	cbi	0x18, 0	; 24
    1d44:	1f b8       	out	0x0f, r1	; 15
    1d46:	77 9b       	sbis	0x0e, 7	; 14
    1d48:	fe cf       	rjmp	.-4      	; 0x1d46 <rf_tx_tdma_packet+0x19a>
    1d4a:	8f b1       	in	r24, 0x0f	; 15
    1d4c:	c0 9a       	sbi	0x18, 0	; 24
        }
        while (!(spiStatusByte & BM (CC2420_RSSI_VALID)));
    1d4e:	81 ff       	sbrs	r24, 1
    1d50:	f8 cf       	rjmp	.-16     	; 0x1d42 <rf_tx_tdma_packet+0x196>
    1d52:	10 e0       	ldi	r17, 0x00	; 0

        // TX begins after the CCA check has passed
        cnt = 0;
        do
        {
            FASTSPI_STROBE (CC2420_STXONCCA);
    1d54:	f5 e0       	ldi	r31, 0x05	; 5
    1d56:	df 2e       	mov	r13, r31
    1d58:	c0 98       	cbi	0x18, 0	; 24
    1d5a:	df b8       	out	0x0f, r13	; 15
    1d5c:	77 9b       	sbis	0x0e, 7	; 14
    1d5e:	fe cf       	rjmp	.-4      	; 0x1d5c <rf_tx_tdma_packet+0x1b0>
    1d60:	c0 9a       	sbi	0x18, 0	; 24
            FASTSPI_UPD_STATUS (spiStatusByte);
    1d62:	c0 98       	cbi	0x18, 0	; 24
    1d64:	1f b8       	out	0x0f, r1	; 15
    1d66:	77 9b       	sbis	0x0e, 7	; 14
    1d68:	fe cf       	rjmp	.-4      	; 0x1d66 <rf_tx_tdma_packet+0x1ba>
    1d6a:	0f b1       	in	r16, 0x0f	; 15
    1d6c:	c0 9a       	sbi	0x18, 0	; 24
            cnt++;
    1d6e:	1f 5f       	subi	r17, 0xFF	; 255
            if (cnt > 100)
    1d70:	15 36       	cpi	r17, 0x65	; 101
    1d72:	49 f4       	brne	.+18     	; 0x1d86 <rf_tx_tdma_packet+0x1da>
            {
                ENABLE_GLOBAL_INT ();
    1d74:	78 94       	sei
                nrk_sem_post(radio_sem);
    1d76:	80 91 60 07 	lds	r24, 0x0760
    1d7a:	90 91 61 07 	lds	r25, 0x0761
    1d7e:	0e 94 99 21 	call	0x4332	; 0x4332 <nrk_sem_post>
    1d82:	80 e0       	ldi	r24, 0x00	; 0
    1d84:	60 c0       	rjmp	.+192    	; 0x1e46 <rf_tx_tdma_packet+0x29a>
                return FALSE;
            }
            halWait (100);
    1d86:	84 e6       	ldi	r24, 0x64	; 100
    1d88:	90 e0       	ldi	r25, 0x00	; 0
    1d8a:	0e 94 bc 13 	call	0x2778	; 0x2778 <halWait>
        }
        while (!(spiStatusByte & BM (CC2420_TX_ACTIVE)));
    1d8e:	03 ff       	sbrs	r16, 3
    1d90:	e3 cf       	rjmp	.-58     	; 0x1d58 <rf_tx_tdma_packet+0x1ac>
    1d92:	06 c0       	rjmp	.+12     	; 0x1da0 <rf_tx_tdma_packet+0x1f4>
    }
    else
        FASTSPI_STROBE (CC2420_STXON);
    1d94:	c0 98       	cbi	0x18, 0	; 24
    1d96:	84 e0       	ldi	r24, 0x04	; 4
    1d98:	8f b9       	out	0x0f, r24	; 15
    1d9a:	77 9b       	sbis	0x0e, 7	; 14
    1d9c:	fe cf       	rjmp	.-4      	; 0x1d9a <rf_tx_tdma_packet+0x1ee>
    1d9e:	c0 9a       	sbi	0x18, 0	; 24
    //nrk_gpio_set(DEBUG_0);


    // Fill in the rest of the packet now
    FASTSPI_WRITE_FIFO((uint8_t*) pRTI->pPayload, pRTI->length);  // Payload
    1da0:	c0 98       	cbi	0x18, 0	; 24
    1da2:	8e e3       	ldi	r24, 0x3E	; 62
    1da4:	8f b9       	out	0x0f, r24	; 15
    1da6:	77 9b       	sbis	0x0e, 7	; 14
    1da8:	fe cf       	rjmp	.-4      	; 0x1da6 <rf_tx_tdma_packet+0x1fa>
    1daa:	f7 01       	movw	r30, r14
    1dac:	82 81       	ldd	r24, Z+2	; 0x02
    1dae:	48 2f       	mov	r20, r24
    1db0:	55 27       	eor	r21, r21
    1db2:	47 fd       	sbrc	r20, 7
    1db4:	50 95       	com	r21
    1db6:	20 e0       	ldi	r18, 0x00	; 0
    1db8:	0c c0       	rjmp	.+24     	; 0x1dd2 <rf_tx_tdma_packet+0x226>
    1dba:	d7 01       	movw	r26, r14
    1dbc:	13 96       	adiw	r26, 0x03	; 3
    1dbe:	ed 91       	ld	r30, X+
    1dc0:	fc 91       	ld	r31, X
    1dc2:	14 97       	sbiw	r26, 0x04	; 4
    1dc4:	e8 0f       	add	r30, r24
    1dc6:	f9 1f       	adc	r31, r25
    1dc8:	80 81       	ld	r24, Z
    1dca:	8f b9       	out	0x0f, r24	; 15
    1dcc:	77 9b       	sbis	0x0e, 7	; 14
    1dce:	fe cf       	rjmp	.-4      	; 0x1dcc <rf_tx_tdma_packet+0x220>
    1dd0:	2f 5f       	subi	r18, 0xFF	; 255
    1dd2:	82 2f       	mov	r24, r18
    1dd4:	90 e0       	ldi	r25, 0x00	; 0
    1dd6:	84 17       	cp	r24, r20
    1dd8:	95 07       	cpc	r25, r21
    1dda:	7c f3       	brlt	.-34     	; 0x1dba <rf_tx_tdma_packet+0x20e>
    1ddc:	c0 9a       	sbi	0x18, 0	; 24
    FASTSPI_WRITE_FIFO((uint8_t*) &checksum, 1);         // Checksum
    1dde:	c0 98       	cbi	0x18, 0	; 24
    1de0:	8e e3       	ldi	r24, 0x3E	; 62
    1de2:	8f b9       	out	0x0f, r24	; 15
    1de4:	77 9b       	sbis	0x0e, 7	; 14
    1de6:	fe cf       	rjmp	.-4      	; 0x1de4 <rf_tx_tdma_packet+0x238>
    1de8:	8a 81       	ldd	r24, Y+2	; 0x02
    1dea:	8f b9       	out	0x0f, r24	; 15
    1dec:	77 9b       	sbis	0x0e, 7	; 14
    1dee:	fe cf       	rjmp	.-4      	; 0x1dec <rf_tx_tdma_packet+0x240>
    1df0:	c0 9a       	sbi	0x18, 0	; 24

    //nrk_spin_wait_us(200);
//  FASTSPI_STROBE(CC2420_STXON);
    // Wait for the transmission to begin before exiting (makes sure that this function cannot be called
    // a second time, and thereby cancelling the first transmission (observe the FIFOP + SFD test above).
    while (!SFD_IS_1);
    1df2:	84 9b       	sbis	0x10, 4	; 16
    1df4:	fe cf       	rjmp	.-4      	; 0x1df2 <rf_tx_tdma_packet+0x246>
    	success = rfSettings.ackReceived;
    }*/


    // Turn off the receiver if it should not continue to be enabled
    DISABLE_GLOBAL_INT();
    1df6:	f8 94       	cli
    // XXX hack, temp out
    //if (!rfSettings.receiveOn) { while (SFD_IS_1); /*FASTSPI_STROBE(CC2420_SRFOFF);*/ }
    // while (SFD_IS_1);
    while (SFD_IS_1); // wait for packet to finish
    1df8:	84 99       	sbic	0x10, 4	; 16
    1dfa:	fe cf       	rjmp	.-4      	; 0x1df8 <rf_tx_tdma_packet+0x24c>

    FASTSPI_STROBE(CC2420_SFLUSHRX);
    1dfc:	c0 98       	cbi	0x18, 0	; 24
    1dfe:	88 e0       	ldi	r24, 0x08	; 8
    1e00:	8f b9       	out	0x0f, r24	; 15
    1e02:	77 9b       	sbis	0x0e, 7	; 14
    1e04:	fe cf       	rjmp	.-4      	; 0x1e02 <rf_tx_tdma_packet+0x256>
    1e06:	c0 9a       	sbi	0x18, 0	; 24
    FASTSPI_STROBE(CC2420_SFLUSHRX);
    1e08:	c0 98       	cbi	0x18, 0	; 24
    1e0a:	88 e0       	ldi	r24, 0x08	; 8
    1e0c:	8f b9       	out	0x0f, r24	; 15
    1e0e:	77 9b       	sbis	0x0e, 7	; 14
    1e10:	fe cf       	rjmp	.-4      	; 0x1e0e <rf_tx_tdma_packet+0x262>
    1e12:	c0 9a       	sbi	0x18, 0	; 24
    FASTSPI_STROBE(CC2420_SFLUSHTX);
    1e14:	c0 98       	cbi	0x18, 0	; 24
    1e16:	89 e0       	ldi	r24, 0x09	; 9
    1e18:	8f b9       	out	0x0f, r24	; 15
    1e1a:	77 9b       	sbis	0x0e, 7	; 14
    1e1c:	fe cf       	rjmp	.-4      	; 0x1e1a <rf_tx_tdma_packet+0x26e>
    1e1e:	c0 9a       	sbi	0x18, 0	; 24
    FASTSPI_STROBE(CC2420_SFLUSHTX);
    1e20:	c0 98       	cbi	0x18, 0	; 24
    1e22:	89 e0       	ldi	r24, 0x09	; 9
    1e24:	8f b9       	out	0x0f, r24	; 15
    1e26:	77 9b       	sbis	0x0e, 7	; 14
    1e28:	fe cf       	rjmp	.-4      	; 0x1e26 <rf_tx_tdma_packet+0x27a>
    1e2a:	c0 9a       	sbi	0x18, 0	; 24

#ifdef CC2420_OSC_OPT
    FASTSPI_STROBE(CC2420_SXOSCOFF);
#endif
    FASTSPI_STROBE(CC2420_SRFOFF);  // shut off radio
    1e2c:	c0 98       	cbi	0x18, 0	; 24
    1e2e:	86 e0       	ldi	r24, 0x06	; 6
    1e30:	8f b9       	out	0x0f, r24	; 15
    1e32:	77 9b       	sbis	0x0e, 7	; 14
    1e34:	fe cf       	rjmp	.-4      	; 0x1e32 <rf_tx_tdma_packet+0x286>
    1e36:	c0 9a       	sbi	0x18, 0	; 24
    ENABLE_GLOBAL_INT();
    1e38:	78 94       	sei


    // Increment the sequence number, and return the result
    rfSettings.txSeqNumber++;
    1e3a:	80 91 67 07 	lds	r24, 0x0767
    1e3e:	8f 5f       	subi	r24, 0xFF	; 255
    1e40:	80 93 67 07 	sts	0x0767, r24
    1e44:	81 e0       	ldi	r24, 0x01	; 1
    nrk_sem_post(radio_sem);
#endif

    return success;

}
    1e46:	0f 90       	pop	r0
    1e48:	0f 90       	pop	r0
    1e4a:	0f 90       	pop	r0
    1e4c:	0f 90       	pop	r0
    1e4e:	cf 91       	pop	r28
    1e50:	df 91       	pop	r29
    1e52:	1f 91       	pop	r17
    1e54:	0f 91       	pop	r16
    1e56:	ff 90       	pop	r15
    1e58:	ef 90       	pop	r14
    1e5a:	df 90       	pop	r13
    1e5c:	cf 90       	pop	r12
    1e5e:	08 95       	ret

00001e60 <rf_addr_decode_set_my_mac>:
    FASTSPI_SETREG(CC2420_MDMCTRL0, mdmctrl0);
}


void rf_addr_decode_set_my_mac(uint16_t my_mac)
{
    1e60:	df 93       	push	r29
    1e62:	cf 93       	push	r28
    1e64:	00 d0       	rcall	.+0      	; 0x1e66 <rf_addr_decode_set_my_mac+0x6>
    1e66:	cd b7       	in	r28, 0x3d	; 61
    1e68:	de b7       	in	r29, 0x3e	; 62
    1e6a:	9a 83       	std	Y+2, r25	; 0x02
    1e6c:	89 83       	std	Y+1, r24	; 0x01
    uint8_t n;
    rfSettings.myAddr = my_mac;
    1e6e:	90 93 6c 07 	sts	0x076C, r25
    1e72:	80 93 6b 07 	sts	0x076B, r24
    nrk_spin_wait_us(500);
    1e76:	84 ef       	ldi	r24, 0xF4	; 244
    1e78:	91 e0       	ldi	r25, 0x01	; 1
    1e7a:	0e 94 1b 2e 	call	0x5c36	; 0x5c36 <nrk_spin_wait_us>
    FASTSPI_WRITE_RAM_LE(&my_mac, CC2420RAM_SHORTADDR, 2, n);
    1e7e:	c0 98       	cbi	0x18, 0	; 24
    1e80:	8a ee       	ldi	r24, 0xEA	; 234
    1e82:	8f b9       	out	0x0f, r24	; 15
    1e84:	77 9b       	sbis	0x0e, 7	; 14
    1e86:	fe cf       	rjmp	.-4      	; 0x1e84 <rf_addr_decode_set_my_mac+0x24>
    1e88:	80 e8       	ldi	r24, 0x80	; 128
    1e8a:	8f b9       	out	0x0f, r24	; 15
    1e8c:	77 9b       	sbis	0x0e, 7	; 14
    1e8e:	fe cf       	rjmp	.-4      	; 0x1e8c <rf_addr_decode_set_my_mac+0x2c>
    1e90:	fe 01       	movw	r30, r28
    1e92:	31 96       	adiw	r30, 0x01	; 1
    1e94:	9e 01       	movw	r18, r28
    1e96:	2d 5f       	subi	r18, 0xFD	; 253
    1e98:	3f 4f       	sbci	r19, 0xFF	; 255
    1e9a:	80 81       	ld	r24, Z
    1e9c:	8f b9       	out	0x0f, r24	; 15
    1e9e:	77 9b       	sbis	0x0e, 7	; 14
    1ea0:	fe cf       	rjmp	.-4      	; 0x1e9e <rf_addr_decode_set_my_mac+0x3e>
    1ea2:	31 96       	adiw	r30, 0x01	; 1
    1ea4:	e2 17       	cp	r30, r18
    1ea6:	f3 07       	cpc	r31, r19
    1ea8:	c1 f7       	brne	.-16     	; 0x1e9a <rf_addr_decode_set_my_mac+0x3a>
    1eaa:	c0 9a       	sbi	0x18, 0	; 24
    nrk_spin_wait_us(500);
    1eac:	84 ef       	ldi	r24, 0xF4	; 244
    1eae:	91 e0       	ldi	r25, 0x01	; 1
    1eb0:	0e 94 1b 2e 	call	0x5c36	; 0x5c36 <nrk_spin_wait_us>
}
    1eb4:	0f 90       	pop	r0
    1eb6:	0f 90       	pop	r0
    1eb8:	cf 91       	pop	r28
    1eba:	df 91       	pop	r29
    1ebc:	08 95       	ret

00001ebe <rf_security_set_key>:
    tx_ctr[3]=counter[3];
}


void rf_security_set_key(uint8_t *key)
{
    1ebe:	4f 92       	push	r4
    1ec0:	5f 92       	push	r5
    1ec2:	6f 92       	push	r6
    1ec4:	7f 92       	push	r7
    1ec6:	8f 92       	push	r8
    1ec8:	9f 92       	push	r9
    1eca:	af 92       	push	r10
    1ecc:	bf 92       	push	r11
    1ece:	cf 92       	push	r12
    1ed0:	df 92       	push	r13
    1ed2:	ef 92       	push	r14
    1ed4:	ff 92       	push	r15
    1ed6:	0f 93       	push	r16
    1ed8:	1f 93       	push	r17
    1eda:	df 93       	push	r29
    1edc:	cf 93       	push	r28
    1ede:	00 d0       	rcall	.+0      	; 0x1ee0 <rf_security_set_key+0x22>
    1ee0:	cd b7       	in	r28, 0x3d	; 61
    1ee2:	de b7       	in	r29, 0x3e	; 62
    1ee4:	18 2f       	mov	r17, r24
    1ee6:	09 2f       	mov	r16, r25
    uint8_t n,i;
    uint16_t key_buf;

// Set AES key
    nrk_spin_wait_us(100);
    1ee8:	84 e6       	ldi	r24, 0x64	; 100
    1eea:	90 e0       	ldi	r25, 0x00	; 0
    1eec:	0e 94 1b 2e 	call	0x5c36	; 0x5c36 <nrk_spin_wait_us>
    1ef0:	21 2f       	mov	r18, r17
    1ef2:	30 2f       	mov	r19, r16
    1ef4:	c9 01       	movw	r24, r18
    1ef6:	6c 01       	movw	r12, r24
    1ef8:	00 e0       	ldi	r16, 0x00	; 0
    1efa:	11 e0       	ldi	r17, 0x01	; 1
    for(i=0; i<8; i++ )
    {
        key_buf=(key[i]<<8)|key[i+1];
        nrk_spin_wait_us(100);
        FASTSPI_WRITE_RAM_LE(&key_buf,(CC2420RAM_KEY0+(i*2)),2,n);
    1efc:	3e 01       	movw	r6, r28
    1efe:	08 94       	sec
    1f00:	61 1c       	adc	r6, r1
    1f02:	71 1c       	adc	r7, r1
    tx_ctr[3]=counter[3];
}


void rf_security_set_key(uint8_t *key)
{
    1f04:	33 e0       	ldi	r19, 0x03	; 3
    1f06:	43 2e       	mov	r4, r19
    1f08:	51 2c       	mov	r5, r1
    1f0a:	4c 0e       	add	r4, r28
    1f0c:	5d 1e       	adc	r5, r29

// Set AES key
    nrk_spin_wait_us(100);
    for(i=0; i<8; i++ )
    {
        key_buf=(key[i]<<8)|key[i+1];
    1f0e:	f6 01       	movw	r30, r12
    1f10:	f0 80       	ld	r15, Z
    1f12:	ee 24       	eor	r14, r14
    1f14:	81 81       	ldd	r24, Z+1	; 0x01
    1f16:	90 e0       	ldi	r25, 0x00	; 0
    1f18:	8e 29       	or	r24, r14
    1f1a:	9f 29       	or	r25, r15
    1f1c:	9a 83       	std	Y+2, r25	; 0x02
    1f1e:	89 83       	std	Y+1, r24	; 0x01
        nrk_spin_wait_us(100);
    1f20:	84 e6       	ldi	r24, 0x64	; 100
    1f22:	90 e0       	ldi	r25, 0x00	; 0
    1f24:	0e 94 1b 2e 	call	0x5c36	; 0x5c36 <nrk_spin_wait_us>
        FASTSPI_WRITE_RAM_LE(&key_buf,(CC2420RAM_KEY0+(i*2)),2,n);
    1f28:	c0 98       	cbi	0x18, 0	; 24
    1f2a:	80 2f       	mov	r24, r16
    1f2c:	80 68       	ori	r24, 0x80	; 128
    1f2e:	8f b9       	out	0x0f, r24	; 15
    1f30:	77 9b       	sbis	0x0e, 7	; 14
    1f32:	fe cf       	rjmp	.-4      	; 0x1f30 <rf_security_set_key+0x72>
    1f34:	c8 01       	movw	r24, r16
    1f36:	95 95       	asr	r25
    1f38:	87 95       	ror	r24
    1f3a:	80 7c       	andi	r24, 0xC0	; 192
    1f3c:	8f b9       	out	0x0f, r24	; 15
    1f3e:	77 9b       	sbis	0x0e, 7	; 14
    1f40:	fe cf       	rjmp	.-4      	; 0x1f3e <rf_security_set_key+0x80>
    1f42:	43 01       	movw	r8, r6
    1f44:	53 01       	movw	r10, r6
    1f46:	f5 01       	movw	r30, r10
    1f48:	80 81       	ld	r24, Z
    1f4a:	8f b9       	out	0x0f, r24	; 15
    1f4c:	77 9b       	sbis	0x0e, 7	; 14
    1f4e:	fe cf       	rjmp	.-4      	; 0x1f4c <rf_security_set_key+0x8e>
    1f50:	08 94       	sec
    1f52:	a1 1c       	adc	r10, r1
    1f54:	b1 1c       	adc	r11, r1
    1f56:	4a 14       	cp	r4, r10
    1f58:	5b 04       	cpc	r5, r11
    1f5a:	a9 f7       	brne	.-22     	; 0x1f46 <rf_security_set_key+0x88>
    1f5c:	c0 9a       	sbi	0x18, 0	; 24
    1f5e:	08 94       	sec
    1f60:	c1 1c       	adc	r12, r1
    1f62:	d1 1c       	adc	r13, r1
    1f64:	0e 5f       	subi	r16, 0xFE	; 254
    1f66:	1f 4f       	sbci	r17, 0xFF	; 255
    uint8_t n,i;
    uint16_t key_buf;

// Set AES key
    nrk_spin_wait_us(100);
    for(i=0; i<8; i++ )
    1f68:	f1 e0       	ldi	r31, 0x01	; 1
    1f6a:	00 31       	cpi	r16, 0x10	; 16
    1f6c:	1f 07       	cpc	r17, r31
    1f6e:	79 f6       	brne	.-98     	; 0x1f0e <rf_security_set_key+0x50>
        nrk_spin_wait_us(100);
        FASTSPI_WRITE_RAM_LE(&key_buf,(CC2420RAM_KEY0+(i*2)),2,n);
    }

// Set AES nonce to all zeros
    nrk_spin_wait_us(100);
    1f70:	84 e6       	ldi	r24, 0x64	; 100
    1f72:	90 e0       	ldi	r25, 0x00	; 0
    1f74:	0e 94 1b 2e 	call	0x5c36	; 0x5c36 <nrk_spin_wait_us>
    1f78:	20 e1       	ldi	r18, 0x10	; 16
    1f7a:	31 e0       	ldi	r19, 0x01	; 1
    1f7c:	40 e4       	ldi	r20, 0x40	; 64
    1f7e:	51 e0       	ldi	r21, 0x01	; 1
    for(i=0; i<7; i++ )
    {
        key_buf=0;
    1f80:	1a 82       	std	Y+2, r1	; 0x02
    1f82:	19 82       	std	Y+1, r1	; 0x01
        FASTSPI_WRITE_RAM_LE(&key_buf,(CC2420RAM_TXNONCE+(i*2)),2,n);
    1f84:	c0 98       	cbi	0x18, 0	; 24
    1f86:	84 2f       	mov	r24, r20
    1f88:	80 68       	ori	r24, 0x80	; 128
    1f8a:	8f b9       	out	0x0f, r24	; 15
    1f8c:	77 9b       	sbis	0x0e, 7	; 14
    1f8e:	fe cf       	rjmp	.-4      	; 0x1f8c <rf_security_set_key+0xce>
    1f90:	ca 01       	movw	r24, r20
    1f92:	95 95       	asr	r25
    1f94:	87 95       	ror	r24
    1f96:	80 7c       	andi	r24, 0xC0	; 192
    1f98:	8f b9       	out	0x0f, r24	; 15
    1f9a:	77 9b       	sbis	0x0e, 7	; 14
    1f9c:	fe cf       	rjmp	.-4      	; 0x1f9a <rf_security_set_key+0xdc>
    1f9e:	f3 01       	movw	r30, r6
    1fa0:	80 81       	ld	r24, Z
    1fa2:	8f b9       	out	0x0f, r24	; 15
    1fa4:	77 9b       	sbis	0x0e, 7	; 14
    1fa6:	fe cf       	rjmp	.-4      	; 0x1fa4 <rf_security_set_key+0xe6>
    1fa8:	31 96       	adiw	r30, 0x01	; 1
    1faa:	ea 15       	cp	r30, r10
    1fac:	fb 05       	cpc	r31, r11
    1fae:	c1 f7       	brne	.-16     	; 0x1fa0 <rf_security_set_key+0xe2>
    1fb0:	c0 9a       	sbi	0x18, 0	; 24
        FASTSPI_WRITE_RAM_LE(&key_buf,(CC2420RAM_RXNONCE+(i*2)),2,n);
    1fb2:	c0 98       	cbi	0x18, 0	; 24
    1fb4:	82 2f       	mov	r24, r18
    1fb6:	80 68       	ori	r24, 0x80	; 128
    1fb8:	8f b9       	out	0x0f, r24	; 15
    1fba:	77 9b       	sbis	0x0e, 7	; 14
    1fbc:	fe cf       	rjmp	.-4      	; 0x1fba <rf_security_set_key+0xfc>
    1fbe:	c9 01       	movw	r24, r18
    1fc0:	95 95       	asr	r25
    1fc2:	87 95       	ror	r24
    1fc4:	80 7c       	andi	r24, 0xC0	; 192
    1fc6:	8f b9       	out	0x0f, r24	; 15
    1fc8:	77 9b       	sbis	0x0e, 7	; 14
    1fca:	fe cf       	rjmp	.-4      	; 0x1fc8 <rf_security_set_key+0x10a>
    1fcc:	f3 01       	movw	r30, r6
    1fce:	80 81       	ld	r24, Z
    1fd0:	8f b9       	out	0x0f, r24	; 15
    1fd2:	77 9b       	sbis	0x0e, 7	; 14
    1fd4:	fe cf       	rjmp	.-4      	; 0x1fd2 <rf_security_set_key+0x114>
    1fd6:	31 96       	adiw	r30, 0x01	; 1
    1fd8:	ea 15       	cp	r30, r10
    1fda:	fb 05       	cpc	r31, r11
    1fdc:	c1 f7       	brne	.-16     	; 0x1fce <rf_security_set_key+0x110>
    1fde:	c0 9a       	sbi	0x18, 0	; 24
    1fe0:	2e 5f       	subi	r18, 0xFE	; 254
    1fe2:	3f 4f       	sbci	r19, 0xFF	; 255
    1fe4:	4e 5f       	subi	r20, 0xFE	; 254
    1fe6:	5f 4f       	sbci	r21, 0xFF	; 255
        FASTSPI_WRITE_RAM_LE(&key_buf,(CC2420RAM_KEY0+(i*2)),2,n);
    }

// Set AES nonce to all zeros
    nrk_spin_wait_us(100);
    for(i=0; i<7; i++ )
    1fe8:	81 e0       	ldi	r24, 0x01	; 1
    1fea:	2e 31       	cpi	r18, 0x1E	; 30
    1fec:	38 07       	cpc	r19, r24
    1fee:	41 f6       	brne	.-112    	; 0x1f80 <rf_security_set_key+0xc2>
        key_buf=0;
        FASTSPI_WRITE_RAM_LE(&key_buf,(CC2420RAM_TXNONCE+(i*2)),2,n);
        FASTSPI_WRITE_RAM_LE(&key_buf,(CC2420RAM_RXNONCE+(i*2)),2,n);
    }
    // block counter set 1
    key_buf=1;
    1ff0:	81 e0       	ldi	r24, 0x01	; 1
    1ff2:	90 e0       	ldi	r25, 0x00	; 0
    1ff4:	9a 83       	std	Y+2, r25	; 0x02
    1ff6:	89 83       	std	Y+1, r24	; 0x01
    FASTSPI_WRITE_RAM_LE(&key_buf,(CC2420RAM_TXNONCE+14),2,n);
    1ff8:	c0 98       	cbi	0x18, 0	; 24
    1ffa:	8e ec       	ldi	r24, 0xCE	; 206
    1ffc:	8f b9       	out	0x0f, r24	; 15
    1ffe:	77 9b       	sbis	0x0e, 7	; 14
    2000:	fe cf       	rjmp	.-4      	; 0x1ffe <rf_security_set_key+0x140>
    2002:	80 e8       	ldi	r24, 0x80	; 128
    2004:	8f b9       	out	0x0f, r24	; 15
    2006:	77 9b       	sbis	0x0e, 7	; 14
    2008:	fe cf       	rjmp	.-4      	; 0x2006 <rf_security_set_key+0x148>
    200a:	f3 01       	movw	r30, r6
    200c:	80 81       	ld	r24, Z
    200e:	8f b9       	out	0x0f, r24	; 15
    2010:	77 9b       	sbis	0x0e, 7	; 14
    2012:	fe cf       	rjmp	.-4      	; 0x2010 <rf_security_set_key+0x152>
    2014:	31 96       	adiw	r30, 0x01	; 1
    2016:	4e 16       	cp	r4, r30
    2018:	5f 06       	cpc	r5, r31
    201a:	c1 f7       	brne	.-16     	; 0x200c <rf_security_set_key+0x14e>
    201c:	c0 9a       	sbi	0x18, 0	; 24
    FASTSPI_WRITE_RAM_LE(&key_buf,(CC2420RAM_RXNONCE+14),2,n);
    201e:	c0 98       	cbi	0x18, 0	; 24
    2020:	8e e9       	ldi	r24, 0x9E	; 158
    2022:	8f b9       	out	0x0f, r24	; 15
    2024:	77 9b       	sbis	0x0e, 7	; 14
    2026:	fe cf       	rjmp	.-4      	; 0x2024 <rf_security_set_key+0x166>
    2028:	80 e8       	ldi	r24, 0x80	; 128
    202a:	8f b9       	out	0x0f, r24	; 15
    202c:	77 9b       	sbis	0x0e, 7	; 14
    202e:	fe cf       	rjmp	.-4      	; 0x202c <rf_security_set_key+0x16e>
    2030:	f4 01       	movw	r30, r8
    2032:	80 81       	ld	r24, Z
    2034:	8f b9       	out	0x0f, r24	; 15
    2036:	77 9b       	sbis	0x0e, 7	; 14
    2038:	fe cf       	rjmp	.-4      	; 0x2036 <rf_security_set_key+0x178>
    203a:	08 94       	sec
    203c:	81 1c       	adc	r8, r1
    203e:	91 1c       	adc	r9, r1
    2040:	48 14       	cp	r4, r8
    2042:	59 04       	cpc	r5, r9
    2044:	a9 f7       	brne	.-22     	; 0x2030 <rf_security_set_key+0x172>
    2046:	c0 9a       	sbi	0x18, 0	; 24
}
    2048:	0f 90       	pop	r0
    204a:	0f 90       	pop	r0
    204c:	cf 91       	pop	r28
    204e:	df 91       	pop	r29
    2050:	1f 91       	pop	r17
    2052:	0f 91       	pop	r16
    2054:	ff 90       	pop	r15
    2056:	ef 90       	pop	r14
    2058:	df 90       	pop	r13
    205a:	cf 90       	pop	r12
    205c:	bf 90       	pop	r11
    205e:	af 90       	pop	r10
    2060:	9f 90       	pop	r9
    2062:	8f 90       	pop	r8
    2064:	7f 90       	pop	r7
    2066:	6f 90       	pop	r6
    2068:	5f 90       	pop	r5
    206a:	4f 90       	pop	r4
    206c:	08 95       	ret

0000206e <rf_power_up>:
}

void rf_power_up()
{

    DISABLE_GLOBAL_INT();
    206e:	f8 94       	cli
    FASTSPI_STROBE(CC2420_SXOSCON);
    2070:	c0 98       	cbi	0x18, 0	; 24
    2072:	81 e0       	ldi	r24, 0x01	; 1
    2074:	8f b9       	out	0x0f, r24	; 15
    2076:	77 9b       	sbis	0x0e, 7	; 14
    2078:	fe cf       	rjmp	.-4      	; 0x2076 <rf_power_up+0x8>
    207a:	c0 9a       	sbi	0x18, 0	; 24
    nrk_spin_wait_us(OSC_STARTUP_DELAY);
    207c:	88 ee       	ldi	r24, 0xE8	; 232
    207e:	93 e0       	ldi	r25, 0x03	; 3
    2080:	0e 94 1b 2e 	call	0x5c36	; 0x5c36 <nrk_spin_wait_us>
    ENABLE_GLOBAL_INT();
    2084:	78 94       	sei

}
    2086:	08 95       	ret

00002088 <rf_set_rx>:
}



void rf_set_rx(RF_RX_INFO *pRRI, uint8_t channel )
{
    2088:	cf 93       	push	r28
    208a:	df 93       	push	r29
    208c:	ec 01       	movw	r28, r24

#ifdef RADIO_PRIORITY_CEILING
    nrk_sem_pend (radio_sem);
#endif

    FASTSPI_STROBE(CC2420_SFLUSHRX);
    208e:	c0 98       	cbi	0x18, 0	; 24
    2090:	88 e0       	ldi	r24, 0x08	; 8
    2092:	8f b9       	out	0x0f, r24	; 15
    2094:	77 9b       	sbis	0x0e, 7	; 14
    2096:	fe cf       	rjmp	.-4      	; 0x2094 <rf_set_rx+0xc>
    2098:	c0 9a       	sbi	0x18, 0	; 24
    FASTSPI_STROBE(CC2420_SFLUSHRX);
    209a:	c0 98       	cbi	0x18, 0	; 24
    209c:	88 e0       	ldi	r24, 0x08	; 8
    209e:	8f b9       	out	0x0f, r24	; 15
    20a0:	77 9b       	sbis	0x0e, 7	; 14
    20a2:	fe cf       	rjmp	.-4      	; 0x20a0 <rf_set_rx+0x18>
    20a4:	c0 9a       	sbi	0x18, 0	; 24
    halRfSetChannel(channel);
    20a6:	86 2f       	mov	r24, r22
    20a8:	0e 94 34 08 	call	0x1068	; 0x1068 <halRfSetChannel>
    rfSettings.pRxInfo = pRRI;
    20ac:	d0 93 66 07 	sts	0x0766, r29
    20b0:	c0 93 65 07 	sts	0x0765, r28

#ifdef RADIO_PRIORITY_CEILING
    nrk_sem_post(radio_sem);
#endif
}
    20b4:	df 91       	pop	r29
    20b6:	cf 91       	pop	r28
    20b8:	08 95       	ret

000020ba <rf_set_channel>:
void rf_set_channel( uint8_t channel )
{
#ifdef RADIO_PRIORITY_CEILING
    nrk_sem_pend (radio_sem);
#endif
    halRfSetChannel(channel);
    20ba:	0e 94 34 08 	call	0x1068	; 0x1068 <halRfSetChannel>
#ifdef RADIO_PRIORITY_CEILING
    nrk_sem_post(radio_sem);
#endif
}
    20be:	08 95       	ret

000020c0 <rf_init>:
//          The 16-bit short address which is used by this node. Must together with the PAN ID form a
//			unique 32-bit identifier to avoid addressing conflicts. Normally, in a 802.15.4 network, the
//			short address will be given to associated nodes by the PAN coordinator.
//-------------------------------------------------------------------------------------------------------
void rf_init(RF_RX_INFO *pRRI, uint8_t channel, uint16_t panId, uint16_t myAddr)
{
    20c0:	df 92       	push	r13
    20c2:	ef 92       	push	r14
    20c4:	ff 92       	push	r15
    20c6:	0f 93       	push	r16
    20c8:	1f 93       	push	r17
    20ca:	df 93       	push	r29
    20cc:	cf 93       	push	r28
    20ce:	00 d0       	rcall	.+0      	; 0x20d0 <rf_init+0x10>
    20d0:	cd b7       	in	r28, 0x3d	; 61
    20d2:	de b7       	in	r29, 0x3e	; 62
    20d4:	8c 01       	movw	r16, r24
    20d6:	d6 2e       	mov	r13, r22
    20d8:	5a 83       	std	Y+2, r21	; 0x02
    20da:	49 83       	std	Y+1, r20	; 0x01
    20dc:	79 01       	movw	r14, r18
        nrk_kprintf (PSTR ("CC2420 ERROR:  Access to semaphore failed\r\n"));
    }
#endif

    // Make sure that the voltage regulator is on, and that the reset pin is inactive
    SET_VREG_ACTIVE();
    20de:	dd 9a       	sbi	0x1b, 5	; 27
    halWait(1000);
    20e0:	88 ee       	ldi	r24, 0xE8	; 232
    20e2:	93 e0       	ldi	r25, 0x03	; 3
    20e4:	0e 94 bc 13 	call	0x2778	; 0x2778 <halWait>
    SET_RESET_ACTIVE();
    20e8:	de 98       	cbi	0x1b, 6	; 27
    halWait(1);
    20ea:	81 e0       	ldi	r24, 0x01	; 1
    20ec:	90 e0       	ldi	r25, 0x00	; 0
    20ee:	0e 94 bc 13 	call	0x2778	; 0x2778 <halWait>
    SET_RESET_INACTIVE();
    20f2:	de 9a       	sbi	0x1b, 6	; 27
    halWait(100);
    20f4:	84 e6       	ldi	r24, 0x64	; 100
    20f6:	90 e0       	ldi	r25, 0x00	; 0
    20f8:	0e 94 bc 13 	call	0x2778	; 0x2778 <halWait>
    // Initialize the FIFOP external interrupt
    //FIFOP_INT_INIT();
    //ENABLE_FIFOP_INT();

    // Turn off all interrupts while we're accessing the CC2420 registers
    DISABLE_GLOBAL_INT();
    20fc:	f8 94       	cli

    FASTSPI_STROBE(CC2420_SXOSCON);
    20fe:	c0 98       	cbi	0x18, 0	; 24
    2100:	81 e0       	ldi	r24, 0x01	; 1
    2102:	8f b9       	out	0x0f, r24	; 15
    2104:	77 9b       	sbis	0x0e, 7	; 14
    2106:	fe cf       	rjmp	.-4      	; 0x2104 <rf_init+0x44>
    2108:	c0 9a       	sbi	0x18, 0	; 24
    mdmctrl0=0x02E2;
    210a:	82 ee       	ldi	r24, 0xE2	; 226
    210c:	92 e0       	ldi	r25, 0x02	; 2
    210e:	90 93 64 07 	sts	0x0764, r25
    2112:	80 93 63 07 	sts	0x0763, r24
    FASTSPI_SETREG(CC2420_MDMCTRL0, mdmctrl0);  // Std Preamble, CRC, no auto ack, no hw addr decoding
    2116:	c0 98       	cbi	0x18, 0	; 24
    2118:	81 e1       	ldi	r24, 0x11	; 17
    211a:	8f b9       	out	0x0f, r24	; 15
    211c:	77 9b       	sbis	0x0e, 7	; 14
    211e:	fe cf       	rjmp	.-4      	; 0x211c <rf_init+0x5c>
    2120:	82 e0       	ldi	r24, 0x02	; 2
    2122:	8f b9       	out	0x0f, r24	; 15
    2124:	77 9b       	sbis	0x0e, 7	; 14
    2126:	fe cf       	rjmp	.-4      	; 0x2124 <rf_init+0x64>
    2128:	82 ee       	ldi	r24, 0xE2	; 226
    212a:	8f b9       	out	0x0f, r24	; 15
    212c:	77 9b       	sbis	0x0e, 7	; 14
    212e:	fe cf       	rjmp	.-4      	; 0x212c <rf_init+0x6c>
    2130:	c0 9a       	sbi	0x18, 0	; 24
    //FASTSPI_SETREG(CC2420_MDMCTRL0, 0x0AF2);  // Turn on automatic packet acknowledgment
    // Turn on hw addre decoding
    FASTSPI_SETREG(CC2420_MDMCTRL1, 0x0500); // Set the correlation threshold = 20
    2132:	c0 98       	cbi	0x18, 0	; 24
    2134:	82 e1       	ldi	r24, 0x12	; 18
    2136:	8f b9       	out	0x0f, r24	; 15
    2138:	77 9b       	sbis	0x0e, 7	; 14
    213a:	fe cf       	rjmp	.-4      	; 0x2138 <rf_init+0x78>
    213c:	85 e0       	ldi	r24, 0x05	; 5
    213e:	8f b9       	out	0x0f, r24	; 15
    2140:	77 9b       	sbis	0x0e, 7	; 14
    2142:	fe cf       	rjmp	.-4      	; 0x2140 <rf_init+0x80>
    2144:	1f b8       	out	0x0f, r1	; 15
    2146:	77 9b       	sbis	0x0e, 7	; 14
    2148:	fe cf       	rjmp	.-4      	; 0x2146 <rf_init+0x86>
    214a:	c0 9a       	sbi	0x18, 0	; 24
    FASTSPI_SETREG(CC2420_IOCFG0, 0x007F);   // Set the FIFOP threshold to maximum
    214c:	c0 98       	cbi	0x18, 0	; 24
    214e:	8c e1       	ldi	r24, 0x1C	; 28
    2150:	8f b9       	out	0x0f, r24	; 15
    2152:	77 9b       	sbis	0x0e, 7	; 14
    2154:	fe cf       	rjmp	.-4      	; 0x2152 <rf_init+0x92>
    2156:	1f b8       	out	0x0f, r1	; 15
    2158:	77 9b       	sbis	0x0e, 7	; 14
    215a:	fe cf       	rjmp	.-4      	; 0x2158 <rf_init+0x98>
    215c:	8f e7       	ldi	r24, 0x7F	; 127
    215e:	8f b9       	out	0x0f, r24	; 15
    2160:	77 9b       	sbis	0x0e, 7	; 14
    2162:	fe cf       	rjmp	.-4      	; 0x2160 <rf_init+0xa0>
    2164:	c0 9a       	sbi	0x18, 0	; 24
    FASTSPI_SETREG(CC2420_SECCTRL0, 0x01C4); // Turn off "Security"
    2166:	c0 98       	cbi	0x18, 0	; 24
    2168:	89 e1       	ldi	r24, 0x19	; 25
    216a:	8f b9       	out	0x0f, r24	; 15
    216c:	77 9b       	sbis	0x0e, 7	; 14
    216e:	fe cf       	rjmp	.-4      	; 0x216c <rf_init+0xac>
    2170:	81 e0       	ldi	r24, 0x01	; 1
    2172:	8f b9       	out	0x0f, r24	; 15
    2174:	77 9b       	sbis	0x0e, 7	; 14
    2176:	fe cf       	rjmp	.-4      	; 0x2174 <rf_init+0xb4>
    2178:	84 ec       	ldi	r24, 0xC4	; 196
    217a:	8f b9       	out	0x0f, r24	; 15
    217c:	77 9b       	sbis	0x0e, 7	; 14
    217e:	fe cf       	rjmp	.-4      	; 0x217c <rf_init+0xbc>
    2180:	c0 9a       	sbi	0x18, 0	; 24
    FASTSPI_SETREG(CC2420_RXCTRL1, 0x1A56); // All default except
    2182:	c0 98       	cbi	0x18, 0	; 24
    2184:	87 e1       	ldi	r24, 0x17	; 23
    2186:	8f b9       	out	0x0f, r24	; 15
    2188:	77 9b       	sbis	0x0e, 7	; 14
    218a:	fe cf       	rjmp	.-4      	; 0x2188 <rf_init+0xc8>
    218c:	8a e1       	ldi	r24, 0x1A	; 26
    218e:	8f b9       	out	0x0f, r24	; 15
    2190:	77 9b       	sbis	0x0e, 7	; 14
    2192:	fe cf       	rjmp	.-4      	; 0x2190 <rf_init+0xd0>
    2194:	86 e5       	ldi	r24, 0x56	; 86
    2196:	8f b9       	out	0x0f, r24	; 15
    2198:	77 9b       	sbis	0x0e, 7	; 14
    219a:	fe cf       	rjmp	.-4      	; 0x2198 <rf_init+0xd8>
    219c:	c0 9a       	sbi	0x18, 0	; 24
        nrk_spin_wait_us(500);

       printf( "myAddr=%d\r\n",myAddr );
    */

    nrk_spin_wait_us(500);
    219e:	84 ef       	ldi	r24, 0xF4	; 244
    21a0:	91 e0       	ldi	r25, 0x01	; 1
    21a2:	0e 94 1b 2e 	call	0x5c36	; 0x5c36 <nrk_spin_wait_us>
    FASTSPI_WRITE_RAM_LE(&panId, CC2420RAM_PANID, 2, n);
    21a6:	c0 98       	cbi	0x18, 0	; 24
    21a8:	88 ee       	ldi	r24, 0xE8	; 232
    21aa:	8f b9       	out	0x0f, r24	; 15
    21ac:	77 9b       	sbis	0x0e, 7	; 14
    21ae:	fe cf       	rjmp	.-4      	; 0x21ac <rf_init+0xec>
    21b0:	80 e8       	ldi	r24, 0x80	; 128
    21b2:	8f b9       	out	0x0f, r24	; 15
    21b4:	77 9b       	sbis	0x0e, 7	; 14
    21b6:	fe cf       	rjmp	.-4      	; 0x21b4 <rf_init+0xf4>
    21b8:	fe 01       	movw	r30, r28
    21ba:	31 96       	adiw	r30, 0x01	; 1
    21bc:	9e 01       	movw	r18, r28
    21be:	2d 5f       	subi	r18, 0xFD	; 253
    21c0:	3f 4f       	sbci	r19, 0xFF	; 255
    21c2:	80 81       	ld	r24, Z
    21c4:	8f b9       	out	0x0f, r24	; 15
    21c6:	77 9b       	sbis	0x0e, 7	; 14
    21c8:	fe cf       	rjmp	.-4      	; 0x21c6 <rf_init+0x106>
    21ca:	31 96       	adiw	r30, 0x01	; 1
    21cc:	e2 17       	cp	r30, r18
    21ce:	f3 07       	cpc	r31, r19
    21d0:	c1 f7       	brne	.-16     	; 0x21c2 <rf_init+0x102>
    21d2:	c0 9a       	sbi	0x18, 0	; 24
    nrk_spin_wait_us(500);
    21d4:	84 ef       	ldi	r24, 0xF4	; 244
    21d6:	91 e0       	ldi	r25, 0x01	; 1
    21d8:	0e 94 1b 2e 	call	0x5c36	; 0x5c36 <nrk_spin_wait_us>

    ENABLE_GLOBAL_INT();
    21dc:	78 94       	sei

    // Set the RF channel
    halRfSetChannel(channel);
    21de:	8d 2d       	mov	r24, r13
    21e0:	0e 94 34 08 	call	0x1068	; 0x1068 <halRfSetChannel>

    // Turn interrupts back on
    ENABLE_GLOBAL_INT();
    21e4:	78 94       	sei

    // Set the protocol configuration
    rfSettings.pRxInfo = pRRI;
    21e6:	10 93 66 07 	sts	0x0766, r17
    21ea:	00 93 65 07 	sts	0x0765, r16
    rfSettings.panId = panId;
    21ee:	89 81       	ldd	r24, Y+1	; 0x01
    21f0:	9a 81       	ldd	r25, Y+2	; 0x02
    21f2:	90 93 6a 07 	sts	0x076A, r25
    21f6:	80 93 69 07 	sts	0x0769, r24
    rfSettings.myAddr = myAddr;
    21fa:	f0 92 6c 07 	sts	0x076C, r15
    21fe:	e0 92 6b 07 	sts	0x076B, r14
    rfSettings.txSeqNumber = 0;
    2202:	10 92 67 07 	sts	0x0767, r1
    rfSettings.receiveOn = FALSE;
    2206:	10 92 6d 07 	sts	0x076D, r1

    // Wait for the crystal oscillator to become stable
    halRfWaitForCrystalOscillator();
    220a:	0e 94 4e 08 	call	0x109c	; 0x109c <halRfWaitForCrystalOscillator>
        nrk_kprintf (PSTR ("CC2420 ERROR:  Release of semaphore failed\r\n"));
        _nrk_errno_set (2);
    }
#endif

    auto_ack_enable=0;
    220e:	10 92 70 07 	sts	0x0770, r1
    security_enable=0;
    2212:	10 92 62 07 	sts	0x0762, r1
    last_pkt_encrypted=0;
    2216:	10 92 71 07 	sts	0x0771, r1
} // rf_init()
    221a:	0f 90       	pop	r0
    221c:	0f 90       	pop	r0
    221e:	cf 91       	pop	r28
    2220:	df 91       	pop	r29
    2222:	1f 91       	pop	r17
    2224:	0f 91       	pop	r16
    2226:	ff 90       	pop	r15
    2228:	ef 90       	pop	r14
    222a:	df 90       	pop	r13
    222c:	08 95       	ret

0000222e <cc259x_tx>:
}


void cc259x_tx()
{
    nrk_gpio_set(NRK_DEBUG_1);
    222e:	80 91 ea 01 	lds	r24, 0x01EA
    2232:	0e 94 41 11 	call	0x2282	; 0x2282 <nrk_gpio_set>
    nrk_gpio_set(NRK_DEBUG_0);
    2236:	80 91 e9 01 	lds	r24, 0x01E9
    223a:	0e 94 41 11 	call	0x2282	; 0x2282 <nrk_gpio_set>
}
    223e:	08 95       	ret

00002240 <cc259x_rx>:

#define OSC_STARTUP_DELAY	1000

void cc259x_rx()
{
    nrk_gpio_set(NRK_DEBUG_1);
    2240:	80 91 ea 01 	lds	r24, 0x01EA
    2244:	0e 94 41 11 	call	0x2282	; 0x2282 <nrk_gpio_set>
    nrk_gpio_clr(NRK_DEBUG_0);
    2248:	80 91 e9 01 	lds	r24, 0x01E9
    224c:	0e 94 89 11 	call	0x2312	; 0x2312 <nrk_gpio_clr>
}
    2250:	08 95       	ret

00002252 <nrk_uart_rx_signal_get>:
#else

nrk_sig_t nrk_uart_rx_signal_get()
{
    return NRK_ERROR;
}
    2252:	8f ef       	ldi	r24, 0xFF	; 255
    2254:	08 95       	ret

00002256 <nrk_uart_data_ready>:


uint8_t nrk_uart_data_ready(uint8_t uart_num)
{
    if(uart_num==0)
    2256:	88 23       	and	r24, r24
    2258:	29 f4       	brne	.+10     	; 0x2264 <nrk_uart_data_ready+0xe>
    {
        if( UCSR0A & BM(RXC0) ) return 1;
    225a:	8b b1       	in	r24, 0x0b	; 11
    225c:	88 1f       	adc	r24, r24
    225e:	88 27       	eor	r24, r24
    2260:	88 1f       	adc	r24, r24
    2262:	08 95       	ret
    }
    if(uart_num==1)
    2264:	81 30       	cpi	r24, 0x01	; 1
    2266:	11 f0       	breq	.+4      	; 0x226c <nrk_uart_data_ready+0x16>
    2268:	80 e0       	ldi	r24, 0x00	; 0
    226a:	08 95       	ret
    {
        if( UCSR1A & BM(RXC1) ) return 1;
    226c:	80 91 9b 00 	lds	r24, 0x009B
    2270:	88 1f       	adc	r24, r24
    2272:	88 27       	eor	r24, r24
    2274:	88 1f       	adc	r24, r24
    }
    return 0;
}
    2276:	08 95       	ret

00002278 <getc0>:

char getc0(void)
{
    unsigned char tmp;
    UART0_WAIT_AND_RECEIVE(tmp);
    2278:	5f 9b       	sbis	0x0b, 7	; 11
    227a:	fe cf       	rjmp	.-4      	; 0x2278 <getc0>
    227c:	5f 98       	cbi	0x0b, 7	; 11
    227e:	8c b1       	in	r24, 0x0c	; 12
    return tmp;
}
    2280:	08 95       	ret

00002282 <nrk_gpio_set>:
NRK_INVALID_PIN( GPIO34 )

//-------------------------------
// GPIO handling functions
int8_t nrk_gpio_set(uint8_t pin)
{
    2282:	38 2f       	mov	r19, r24
    // pdiener: Readability optimization
    uint8_t bitvalue = BM((pin & 0xF8) >> 3);

    if (pin == NRK_INVALID_PIN_VAL) return -1;
    2284:	8f 3f       	cpi	r24, 0xFF	; 255
    2286:	09 f4       	brne	.+2      	; 0x228a <nrk_gpio_set+0x8>
    2288:	42 c0       	rjmp	.+132    	; 0x230e <nrk_gpio_set+0x8c>
//-------------------------------
// GPIO handling functions
int8_t nrk_gpio_set(uint8_t pin)
{
    // pdiener: Readability optimization
    uint8_t bitvalue = BM((pin & 0xF8) >> 3);
    228a:	28 2f       	mov	r18, r24
    228c:	26 95       	lsr	r18
    228e:	26 95       	lsr	r18
    2290:	26 95       	lsr	r18
    2292:	81 e0       	ldi	r24, 0x01	; 1
    2294:	90 e0       	ldi	r25, 0x00	; 0
    2296:	02 c0       	rjmp	.+4      	; 0x229c <nrk_gpio_set+0x1a>
    2298:	88 0f       	add	r24, r24
    229a:	99 1f       	adc	r25, r25
    229c:	2a 95       	dec	r18
    229e:	e2 f7       	brpl	.-8      	; 0x2298 <nrk_gpio_set+0x16>
    22a0:	98 2f       	mov	r25, r24

    if (pin == NRK_INVALID_PIN_VAL) return -1;
    switch (pin & 0x07)
    22a2:	23 2f       	mov	r18, r19
    22a4:	30 e0       	ldi	r19, 0x00	; 0
    22a6:	27 70       	andi	r18, 0x07	; 7
    22a8:	30 70       	andi	r19, 0x00	; 0
    22aa:	22 30       	cpi	r18, 0x02	; 2
    22ac:	31 05       	cpc	r19, r1
    22ae:	e1 f0       	breq	.+56     	; 0x22e8 <nrk_gpio_set+0x66>
    22b0:	23 30       	cpi	r18, 0x03	; 3
    22b2:	31 05       	cpc	r19, r1
    22b4:	3c f4       	brge	.+14     	; 0x22c4 <nrk_gpio_set+0x42>
    22b6:	21 15       	cp	r18, r1
    22b8:	31 05       	cpc	r19, r1
    22ba:	71 f0       	breq	.+28     	; 0x22d8 <nrk_gpio_set+0x56>
    22bc:	21 30       	cpi	r18, 0x01	; 1
    22be:	31 05       	cpc	r19, r1
    22c0:	31 f5       	brne	.+76     	; 0x230e <nrk_gpio_set+0x8c>
    22c2:	0e c0       	rjmp	.+28     	; 0x22e0 <nrk_gpio_set+0x5e>
    22c4:	24 30       	cpi	r18, 0x04	; 4
    22c6:	31 05       	cpc	r19, r1
    22c8:	b9 f0       	breq	.+46     	; 0x22f8 <nrk_gpio_set+0x76>
    22ca:	24 30       	cpi	r18, 0x04	; 4
    22cc:	31 05       	cpc	r19, r1
    22ce:	84 f0       	brlt	.+32     	; 0x22f0 <nrk_gpio_set+0x6e>
    22d0:	25 30       	cpi	r18, 0x05	; 5
    22d2:	31 05       	cpc	r19, r1
    22d4:	e1 f4       	brne	.+56     	; 0x230e <nrk_gpio_set+0x8c>
    22d6:	14 c0       	rjmp	.+40     	; 0x2300 <nrk_gpio_set+0x7e>
    {
        case NRK_PORTA: PORTA |= bitvalue;
    22d8:	8b b3       	in	r24, 0x1b	; 27
    22da:	98 2b       	or	r25, r24
    22dc:	9b bb       	out	0x1b, r25	; 27
    22de:	15 c0       	rjmp	.+42     	; 0x230a <nrk_gpio_set+0x88>
            break;
        case NRK_PORTB: PORTB |= bitvalue;
    22e0:	88 b3       	in	r24, 0x18	; 24
    22e2:	98 2b       	or	r25, r24
    22e4:	98 bb       	out	0x18, r25	; 24
    22e6:	11 c0       	rjmp	.+34     	; 0x230a <nrk_gpio_set+0x88>
            break;
        case NRK_PORTC: PORTC |= bitvalue;
    22e8:	85 b3       	in	r24, 0x15	; 21
    22ea:	98 2b       	or	r25, r24
    22ec:	95 bb       	out	0x15, r25	; 21
    22ee:	0d c0       	rjmp	.+26     	; 0x230a <nrk_gpio_set+0x88>
            break;
        case NRK_PORTD: PORTD |= bitvalue;
    22f0:	82 b3       	in	r24, 0x12	; 18
    22f2:	98 2b       	or	r25, r24
    22f4:	92 bb       	out	0x12, r25	; 18
    22f6:	09 c0       	rjmp	.+18     	; 0x230a <nrk_gpio_set+0x88>
            break;
        case NRK_PORTE: PORTE |= bitvalue;
    22f8:	83 b1       	in	r24, 0x03	; 3
    22fa:	98 2b       	or	r25, r24
    22fc:	93 b9       	out	0x03, r25	; 3
    22fe:	05 c0       	rjmp	.+10     	; 0x230a <nrk_gpio_set+0x88>
            break;
        case NRK_PORTF: PORTF |= bitvalue;
    2300:	80 91 62 00 	lds	r24, 0x0062
    2304:	98 2b       	or	r25, r24
    2306:	90 93 62 00 	sts	0x0062, r25
    230a:	81 e0       	ldi	r24, 0x01	; 1
    230c:	08 95       	ret
            break;
    230e:	8f ef       	ldi	r24, 0xFF	; 255
        default:
            return -1;
    }
    return 1;
}
    2310:	08 95       	ret

00002312 <nrk_gpio_clr>:

int8_t nrk_gpio_clr(uint8_t pin)
{
    2312:	38 2f       	mov	r19, r24
    // pdiener: Readability optimization
    uint8_t bitvalue = ~BM((pin & 0xF8) >> 3);

    if (pin == NRK_INVALID_PIN_VAL) return -1;
    2314:	8f 3f       	cpi	r24, 0xFF	; 255
    2316:	09 f4       	brne	.+2      	; 0x231a <nrk_gpio_clr+0x8>
    2318:	43 c0       	rjmp	.+134    	; 0x23a0 <nrk_gpio_clr+0x8e>
}

int8_t nrk_gpio_clr(uint8_t pin)
{
    // pdiener: Readability optimization
    uint8_t bitvalue = ~BM((pin & 0xF8) >> 3);
    231a:	28 2f       	mov	r18, r24
    231c:	26 95       	lsr	r18
    231e:	26 95       	lsr	r18
    2320:	26 95       	lsr	r18
    2322:	81 e0       	ldi	r24, 0x01	; 1
    2324:	90 e0       	ldi	r25, 0x00	; 0
    2326:	02 c0       	rjmp	.+4      	; 0x232c <nrk_gpio_clr+0x1a>
    2328:	88 0f       	add	r24, r24
    232a:	99 1f       	adc	r25, r25
    232c:	2a 95       	dec	r18
    232e:	e2 f7       	brpl	.-8      	; 0x2328 <nrk_gpio_clr+0x16>
    2330:	98 2f       	mov	r25, r24
    2332:	90 95       	com	r25

    if (pin == NRK_INVALID_PIN_VAL) return -1;
    switch (pin & 0x07)
    2334:	23 2f       	mov	r18, r19
    2336:	30 e0       	ldi	r19, 0x00	; 0
    2338:	27 70       	andi	r18, 0x07	; 7
    233a:	30 70       	andi	r19, 0x00	; 0
    233c:	22 30       	cpi	r18, 0x02	; 2
    233e:	31 05       	cpc	r19, r1
    2340:	e1 f0       	breq	.+56     	; 0x237a <nrk_gpio_clr+0x68>
    2342:	23 30       	cpi	r18, 0x03	; 3
    2344:	31 05       	cpc	r19, r1
    2346:	3c f4       	brge	.+14     	; 0x2356 <nrk_gpio_clr+0x44>
    2348:	21 15       	cp	r18, r1
    234a:	31 05       	cpc	r19, r1
    234c:	71 f0       	breq	.+28     	; 0x236a <nrk_gpio_clr+0x58>
    234e:	21 30       	cpi	r18, 0x01	; 1
    2350:	31 05       	cpc	r19, r1
    2352:	31 f5       	brne	.+76     	; 0x23a0 <nrk_gpio_clr+0x8e>
    2354:	0e c0       	rjmp	.+28     	; 0x2372 <nrk_gpio_clr+0x60>
    2356:	24 30       	cpi	r18, 0x04	; 4
    2358:	31 05       	cpc	r19, r1
    235a:	b9 f0       	breq	.+46     	; 0x238a <nrk_gpio_clr+0x78>
    235c:	24 30       	cpi	r18, 0x04	; 4
    235e:	31 05       	cpc	r19, r1
    2360:	84 f0       	brlt	.+32     	; 0x2382 <nrk_gpio_clr+0x70>
    2362:	25 30       	cpi	r18, 0x05	; 5
    2364:	31 05       	cpc	r19, r1
    2366:	e1 f4       	brne	.+56     	; 0x23a0 <nrk_gpio_clr+0x8e>
    2368:	14 c0       	rjmp	.+40     	; 0x2392 <nrk_gpio_clr+0x80>
    {
        case NRK_PORTA: PORTA &= bitvalue;
    236a:	8b b3       	in	r24, 0x1b	; 27
    236c:	98 23       	and	r25, r24
    236e:	9b bb       	out	0x1b, r25	; 27
    2370:	15 c0       	rjmp	.+42     	; 0x239c <nrk_gpio_clr+0x8a>
            break;
        case NRK_PORTB: PORTB &= bitvalue;
    2372:	88 b3       	in	r24, 0x18	; 24
    2374:	98 23       	and	r25, r24
    2376:	98 bb       	out	0x18, r25	; 24
    2378:	11 c0       	rjmp	.+34     	; 0x239c <nrk_gpio_clr+0x8a>
            break;
        case NRK_PORTC: PORTC &= bitvalue;
    237a:	85 b3       	in	r24, 0x15	; 21
    237c:	98 23       	and	r25, r24
    237e:	95 bb       	out	0x15, r25	; 21
    2380:	0d c0       	rjmp	.+26     	; 0x239c <nrk_gpio_clr+0x8a>
            break;
        case NRK_PORTD: PORTD &= bitvalue;
    2382:	82 b3       	in	r24, 0x12	; 18
    2384:	98 23       	and	r25, r24
    2386:	92 bb       	out	0x12, r25	; 18
    2388:	09 c0       	rjmp	.+18     	; 0x239c <nrk_gpio_clr+0x8a>
            break;
        case NRK_PORTE: PORTE &= bitvalue;
    238a:	83 b1       	in	r24, 0x03	; 3
    238c:	98 23       	and	r25, r24
    238e:	93 b9       	out	0x03, r25	; 3
    2390:	05 c0       	rjmp	.+10     	; 0x239c <nrk_gpio_clr+0x8a>
            break;
        case NRK_PORTF: PORTF &= bitvalue;
    2392:	80 91 62 00 	lds	r24, 0x0062
    2396:	98 23       	and	r25, r24
    2398:	90 93 62 00 	sts	0x0062, r25
    239c:	81 e0       	ldi	r24, 0x01	; 1
    239e:	08 95       	ret
            break;
    23a0:	8f ef       	ldi	r24, 0xFF	; 255
        default:
            return -1;
    }
    return 1;
}
    23a2:	08 95       	ret

000023a4 <nrk_gpio_get>:

int8_t nrk_gpio_get(uint8_t pin)
{
    23a4:	28 2f       	mov	r18, r24
    if (pin == NRK_INVALID_PIN_VAL) return -1;
    23a6:	8f 3f       	cpi	r24, 0xFF	; 255
    23a8:	69 f1       	breq	.+90     	; 0x2404 <nrk_gpio_get+0x60>
    switch (pin & 0x07)
    23aa:	90 e0       	ldi	r25, 0x00	; 0
    23ac:	87 70       	andi	r24, 0x07	; 7
    23ae:	90 70       	andi	r25, 0x00	; 0
    23b0:	82 30       	cpi	r24, 0x02	; 2
    23b2:	91 05       	cpc	r25, r1
    23b4:	a9 f0       	breq	.+42     	; 0x23e0 <nrk_gpio_get+0x3c>
    23b6:	83 30       	cpi	r24, 0x03	; 3
    23b8:	91 05       	cpc	r25, r1
    23ba:	2c f4       	brge	.+10     	; 0x23c6 <nrk_gpio_get+0x22>
    23bc:	00 97       	sbiw	r24, 0x00	; 0
    23be:	61 f0       	breq	.+24     	; 0x23d8 <nrk_gpio_get+0x34>
    23c0:	01 97       	sbiw	r24, 0x01	; 1
    23c2:	01 f5       	brne	.+64     	; 0x2404 <nrk_gpio_get+0x60>
    23c4:	0b c0       	rjmp	.+22     	; 0x23dc <nrk_gpio_get+0x38>
    23c6:	84 30       	cpi	r24, 0x04	; 4
    23c8:	91 05       	cpc	r25, r1
    23ca:	71 f0       	breq	.+28     	; 0x23e8 <nrk_gpio_get+0x44>
    23cc:	84 30       	cpi	r24, 0x04	; 4
    23ce:	91 05       	cpc	r25, r1
    23d0:	4c f0       	brlt	.+18     	; 0x23e4 <nrk_gpio_get+0x40>
    23d2:	05 97       	sbiw	r24, 0x05	; 5
    23d4:	b9 f4       	brne	.+46     	; 0x2404 <nrk_gpio_get+0x60>
    23d6:	0a c0       	rjmp	.+20     	; 0x23ec <nrk_gpio_get+0x48>
    {
        case NRK_PORTA:
            return !!(PINA & BM((pin & 0xF8) >> 3));
    23d8:	89 b3       	in	r24, 0x19	; 25
    23da:	09 c0       	rjmp	.+18     	; 0x23ee <nrk_gpio_get+0x4a>
        case NRK_PORTB:
            return !!(PINB & BM((pin & 0xF8) >> 3));
    23dc:	86 b3       	in	r24, 0x16	; 22
    23de:	07 c0       	rjmp	.+14     	; 0x23ee <nrk_gpio_get+0x4a>
        case NRK_PORTC:
            return !!(PINC & BM((pin & 0xF8) >> 3));
    23e0:	83 b3       	in	r24, 0x13	; 19
    23e2:	05 c0       	rjmp	.+10     	; 0x23ee <nrk_gpio_get+0x4a>
        case NRK_PORTD:
            return !!(PIND & BM((pin & 0xF8) >> 3));
    23e4:	80 b3       	in	r24, 0x10	; 16
    23e6:	03 c0       	rjmp	.+6      	; 0x23ee <nrk_gpio_get+0x4a>
        case NRK_PORTE:
            return !!(PINE & BM((pin & 0xF8) >> 3));
    23e8:	81 b1       	in	r24, 0x01	; 1
    23ea:	01 c0       	rjmp	.+2      	; 0x23ee <nrk_gpio_get+0x4a>
        case NRK_PORTF:
            return !!(PINF & BM((pin & 0xF8) >> 3));
    23ec:	80 b1       	in	r24, 0x00	; 0
    23ee:	90 e0       	ldi	r25, 0x00	; 0
    23f0:	26 95       	lsr	r18
    23f2:	26 95       	lsr	r18
    23f4:	26 95       	lsr	r18
    23f6:	02 c0       	rjmp	.+4      	; 0x23fc <nrk_gpio_get+0x58>
    23f8:	95 95       	asr	r25
    23fa:	87 95       	ror	r24
    23fc:	2a 95       	dec	r18
    23fe:	e2 f7       	brpl	.-8      	; 0x23f8 <nrk_gpio_get+0x54>
    2400:	81 70       	andi	r24, 0x01	; 1
    2402:	08 95       	ret
    2404:	8f ef       	ldi	r24, 0xFF	; 255
        default:
            return -1;
    }
    return -1;
}
    2406:	08 95       	ret

00002408 <nrk_gpio_pullups>:

int8_t nrk_gpio_pullups(uint8_t enable)
{
    if(enable) SFIOR &= ~BM(PUD);
    2408:	88 23       	and	r24, r24
    240a:	19 f0       	breq	.+6      	; 0x2412 <nrk_gpio_pullups+0xa>
    240c:	80 b5       	in	r24, 0x20	; 32
    240e:	8b 7f       	andi	r24, 0xFB	; 251
    2410:	02 c0       	rjmp	.+4      	; 0x2416 <nrk_gpio_pullups+0xe>
    else SFIOR |= BM(PUD);
    2412:	80 b5       	in	r24, 0x20	; 32
    2414:	84 60       	ori	r24, 0x04	; 4
    2416:	80 bd       	out	0x20, r24	; 32
    return NRK_OK;
}
    2418:	81 e0       	ldi	r24, 0x01	; 1
    241a:	08 95       	ret

0000241c <nrk_gpio_toggle>:

int8_t nrk_gpio_toggle(uint8_t pin)
{
    241c:	38 2f       	mov	r19, r24
    // pdiener: Readability and execution time optimization
    uint8_t bitvalue = BM((pin & 0xF8) >> 3);

    if (pin == NRK_INVALID_PIN_VAL) return -1;
    241e:	8f 3f       	cpi	r24, 0xFF	; 255
    2420:	09 f4       	brne	.+2      	; 0x2424 <nrk_gpio_toggle+0x8>
    2422:	42 c0       	rjmp	.+132    	; 0x24a8 <nrk_gpio_toggle+0x8c>
}

int8_t nrk_gpio_toggle(uint8_t pin)
{
    // pdiener: Readability and execution time optimization
    uint8_t bitvalue = BM((pin & 0xF8) >> 3);
    2424:	28 2f       	mov	r18, r24
    2426:	26 95       	lsr	r18
    2428:	26 95       	lsr	r18
    242a:	26 95       	lsr	r18
    242c:	81 e0       	ldi	r24, 0x01	; 1
    242e:	90 e0       	ldi	r25, 0x00	; 0
    2430:	02 c0       	rjmp	.+4      	; 0x2436 <nrk_gpio_toggle+0x1a>
    2432:	88 0f       	add	r24, r24
    2434:	99 1f       	adc	r25, r25
    2436:	2a 95       	dec	r18
    2438:	e2 f7       	brpl	.-8      	; 0x2432 <nrk_gpio_toggle+0x16>
    243a:	98 2f       	mov	r25, r24

    if (pin == NRK_INVALID_PIN_VAL) return -1;
    switch (pin & 0x07)
    243c:	23 2f       	mov	r18, r19
    243e:	30 e0       	ldi	r19, 0x00	; 0
    2440:	27 70       	andi	r18, 0x07	; 7
    2442:	30 70       	andi	r19, 0x00	; 0
    2444:	22 30       	cpi	r18, 0x02	; 2
    2446:	31 05       	cpc	r19, r1
    2448:	e1 f0       	breq	.+56     	; 0x2482 <nrk_gpio_toggle+0x66>
    244a:	23 30       	cpi	r18, 0x03	; 3
    244c:	31 05       	cpc	r19, r1
    244e:	3c f4       	brge	.+14     	; 0x245e <nrk_gpio_toggle+0x42>
    2450:	21 15       	cp	r18, r1
    2452:	31 05       	cpc	r19, r1
    2454:	71 f0       	breq	.+28     	; 0x2472 <nrk_gpio_toggle+0x56>
    2456:	21 30       	cpi	r18, 0x01	; 1
    2458:	31 05       	cpc	r19, r1
    245a:	31 f5       	brne	.+76     	; 0x24a8 <nrk_gpio_toggle+0x8c>
    245c:	0e c0       	rjmp	.+28     	; 0x247a <nrk_gpio_toggle+0x5e>
    245e:	24 30       	cpi	r18, 0x04	; 4
    2460:	31 05       	cpc	r19, r1
    2462:	b9 f0       	breq	.+46     	; 0x2492 <nrk_gpio_toggle+0x76>
    2464:	24 30       	cpi	r18, 0x04	; 4
    2466:	31 05       	cpc	r19, r1
    2468:	84 f0       	brlt	.+32     	; 0x248a <nrk_gpio_toggle+0x6e>
    246a:	25 30       	cpi	r18, 0x05	; 5
    246c:	31 05       	cpc	r19, r1
    246e:	e1 f4       	brne	.+56     	; 0x24a8 <nrk_gpio_toggle+0x8c>
    2470:	14 c0       	rjmp	.+40     	; 0x249a <nrk_gpio_toggle+0x7e>
    {
        case NRK_PORTA: PORTA ^= bitvalue;
    2472:	8b b3       	in	r24, 0x1b	; 27
    2474:	98 27       	eor	r25, r24
    2476:	9b bb       	out	0x1b, r25	; 27
    2478:	15 c0       	rjmp	.+42     	; 0x24a4 <nrk_gpio_toggle+0x88>
            break;
        case NRK_PORTB: PORTB ^= bitvalue;
    247a:	88 b3       	in	r24, 0x18	; 24
    247c:	98 27       	eor	r25, r24
    247e:	98 bb       	out	0x18, r25	; 24
    2480:	11 c0       	rjmp	.+34     	; 0x24a4 <nrk_gpio_toggle+0x88>
            break;
        case NRK_PORTC: PORTC ^= bitvalue;
    2482:	85 b3       	in	r24, 0x15	; 21
    2484:	98 27       	eor	r25, r24
    2486:	95 bb       	out	0x15, r25	; 21
    2488:	0d c0       	rjmp	.+26     	; 0x24a4 <nrk_gpio_toggle+0x88>
            break;
        case NRK_PORTD: PORTD ^= bitvalue;
    248a:	82 b3       	in	r24, 0x12	; 18
    248c:	98 27       	eor	r25, r24
    248e:	92 bb       	out	0x12, r25	; 18
    2490:	09 c0       	rjmp	.+18     	; 0x24a4 <nrk_gpio_toggle+0x88>
            break;
        case NRK_PORTE: PORTE ^= bitvalue;
    2492:	83 b1       	in	r24, 0x03	; 3
    2494:	98 27       	eor	r25, r24
    2496:	93 b9       	out	0x03, r25	; 3
    2498:	05 c0       	rjmp	.+10     	; 0x24a4 <nrk_gpio_toggle+0x88>
            break;
        case NRK_PORTF: PORTF ^= bitvalue;
    249a:	80 91 62 00 	lds	r24, 0x0062
    249e:	98 27       	eor	r25, r24
    24a0:	90 93 62 00 	sts	0x0062, r25
    24a4:	81 e0       	ldi	r24, 0x01	; 1
    24a6:	08 95       	ret
            break;
    24a8:	8f ef       	ldi	r24, 0xFF	; 255
        default:
            return -1;
    }
    return 1;
}
    24aa:	08 95       	ret

000024ac <nrk_gpio_direction>:

int8_t nrk_gpio_direction(uint8_t pin, uint8_t pin_direction)
{
    24ac:	98 2f       	mov	r25, r24
    // pdiener: Readability and program space optimization
    uint8_t bitvalue = BM((pin & 0xF8) >> 3);
    uint8_t bitvalue_inv = ~BM((pin & 0xF8) >> 3);

    if (pin == NRK_INVALID_PIN_VAL) return -1;
    24ae:	8f 3f       	cpi	r24, 0xFF	; 255
    24b0:	09 f4       	brne	.+2      	; 0x24b4 <nrk_gpio_direction+0x8>
    24b2:	88 c0       	rjmp	.+272    	; 0x25c4 <nrk_gpio_direction+0x118>
}

int8_t nrk_gpio_direction(uint8_t pin, uint8_t pin_direction)
{
    // pdiener: Readability and program space optimization
    uint8_t bitvalue = BM((pin & 0xF8) >> 3);
    24b4:	86 95       	lsr	r24
    24b6:	86 95       	lsr	r24
    24b8:	86 95       	lsr	r24
    24ba:	21 e0       	ldi	r18, 0x01	; 1
    24bc:	30 e0       	ldi	r19, 0x00	; 0
    24be:	02 c0       	rjmp	.+4      	; 0x24c4 <nrk_gpio_direction+0x18>
    24c0:	22 0f       	add	r18, r18
    24c2:	33 1f       	adc	r19, r19
    24c4:	8a 95       	dec	r24
    24c6:	e2 f7       	brpl	.-8      	; 0x24c0 <nrk_gpio_direction+0x14>
    24c8:	42 2f       	mov	r20, r18
    24ca:	89 2f       	mov	r24, r25
    24cc:	90 e0       	ldi	r25, 0x00	; 0
    uint8_t bitvalue_inv = ~BM((pin & 0xF8) >> 3);

    if (pin == NRK_INVALID_PIN_VAL) return -1;
    if (pin_direction == NRK_PIN_INPUT)
    24ce:	66 23       	and	r22, r22
    24d0:	09 f0       	breq	.+2      	; 0x24d4 <nrk_gpio_direction+0x28>
    24d2:	47 c0       	rjmp	.+142    	; 0x2562 <nrk_gpio_direction+0xb6>

int8_t nrk_gpio_direction(uint8_t pin, uint8_t pin_direction)
{
    // pdiener: Readability and program space optimization
    uint8_t bitvalue = BM((pin & 0xF8) >> 3);
    uint8_t bitvalue_inv = ~BM((pin & 0xF8) >> 3);
    24d4:	20 95       	com	r18

    if (pin == NRK_INVALID_PIN_VAL) return -1;
    if (pin_direction == NRK_PIN_INPUT)
    {
        switch (pin & 0x07)
    24d6:	87 70       	andi	r24, 0x07	; 7
    24d8:	90 70       	andi	r25, 0x00	; 0
    24da:	82 30       	cpi	r24, 0x02	; 2
    24dc:	91 05       	cpc	r25, r1
    24de:	09 f1       	breq	.+66     	; 0x2522 <nrk_gpio_direction+0x76>
    24e0:	83 30       	cpi	r24, 0x03	; 3
    24e2:	91 05       	cpc	r25, r1
    24e4:	34 f4       	brge	.+12     	; 0x24f2 <nrk_gpio_direction+0x46>
    24e6:	00 97       	sbiw	r24, 0x00	; 0
    24e8:	71 f0       	breq	.+28     	; 0x2506 <nrk_gpio_direction+0x5a>
    24ea:	01 97       	sbiw	r24, 0x01	; 1
    24ec:	09 f0       	breq	.+2      	; 0x24f0 <nrk_gpio_direction+0x44>
    24ee:	6a c0       	rjmp	.+212    	; 0x25c4 <nrk_gpio_direction+0x118>
    24f0:	11 c0       	rjmp	.+34     	; 0x2514 <nrk_gpio_direction+0x68>
    24f2:	84 30       	cpi	r24, 0x04	; 4
    24f4:	91 05       	cpc	r25, r1
    24f6:	19 f1       	breq	.+70     	; 0x253e <nrk_gpio_direction+0x92>
    24f8:	84 30       	cpi	r24, 0x04	; 4
    24fa:	91 05       	cpc	r25, r1
    24fc:	cc f0       	brlt	.+50     	; 0x2530 <nrk_gpio_direction+0x84>
    24fe:	05 97       	sbiw	r24, 0x05	; 5
    2500:	09 f0       	breq	.+2      	; 0x2504 <nrk_gpio_direction+0x58>
    2502:	60 c0       	rjmp	.+192    	; 0x25c4 <nrk_gpio_direction+0x118>
    2504:	23 c0       	rjmp	.+70     	; 0x254c <nrk_gpio_direction+0xa0>
        {
        case NRK_PORTA:
            DDRA &= bitvalue_inv;
    2506:	8a b3       	in	r24, 0x1a	; 26
    2508:	28 23       	and	r18, r24
    250a:	2a bb       	out	0x1a, r18	; 26
            PORTA |= bitvalue;
    250c:	8b b3       	in	r24, 0x1b	; 27
    250e:	48 2b       	or	r20, r24
    2510:	4b bb       	out	0x1b, r20	; 27
    2512:	56 c0       	rjmp	.+172    	; 0x25c0 <nrk_gpio_direction+0x114>
            break;
        case NRK_PORTB:
            DDRB &= bitvalue_inv;
    2514:	87 b3       	in	r24, 0x17	; 23
    2516:	28 23       	and	r18, r24
    2518:	27 bb       	out	0x17, r18	; 23
            PORTB |= bitvalue;
    251a:	88 b3       	in	r24, 0x18	; 24
    251c:	48 2b       	or	r20, r24
    251e:	48 bb       	out	0x18, r20	; 24
    2520:	4f c0       	rjmp	.+158    	; 0x25c0 <nrk_gpio_direction+0x114>
            break;
        case NRK_PORTC:
            DDRC &= bitvalue_inv;
    2522:	84 b3       	in	r24, 0x14	; 20
    2524:	28 23       	and	r18, r24
    2526:	24 bb       	out	0x14, r18	; 20
            PORTC |= bitvalue;
    2528:	85 b3       	in	r24, 0x15	; 21
    252a:	48 2b       	or	r20, r24
    252c:	45 bb       	out	0x15, r20	; 21
    252e:	48 c0       	rjmp	.+144    	; 0x25c0 <nrk_gpio_direction+0x114>
            break;
        case NRK_PORTD:
            DDRD &= bitvalue_inv;
    2530:	81 b3       	in	r24, 0x11	; 17
    2532:	28 23       	and	r18, r24
    2534:	21 bb       	out	0x11, r18	; 17
            PORTD |= bitvalue;
    2536:	82 b3       	in	r24, 0x12	; 18
    2538:	48 2b       	or	r20, r24
    253a:	42 bb       	out	0x12, r20	; 18
    253c:	41 c0       	rjmp	.+130    	; 0x25c0 <nrk_gpio_direction+0x114>
            break;
        case NRK_PORTE:
            DDRE &= bitvalue_inv;
    253e:	82 b1       	in	r24, 0x02	; 2
    2540:	28 23       	and	r18, r24
    2542:	22 b9       	out	0x02, r18	; 2
            PORTE |= bitvalue;
    2544:	83 b1       	in	r24, 0x03	; 3
    2546:	48 2b       	or	r20, r24
    2548:	43 b9       	out	0x03, r20	; 3
    254a:	3a c0       	rjmp	.+116    	; 0x25c0 <nrk_gpio_direction+0x114>
            break;
        case NRK_PORTF:
            DDRF &= bitvalue_inv;
    254c:	80 91 61 00 	lds	r24, 0x0061
    2550:	28 23       	and	r18, r24
    2552:	20 93 61 00 	sts	0x0061, r18
            PORTF |= bitvalue;
    2556:	80 91 62 00 	lds	r24, 0x0062
    255a:	48 2b       	or	r20, r24
    255c:	40 93 62 00 	sts	0x0062, r20
    2560:	2f c0       	rjmp	.+94     	; 0x25c0 <nrk_gpio_direction+0x114>
            return -1;
        }
    }
    else
    {
        switch (pin & 0x07)
    2562:	87 70       	andi	r24, 0x07	; 7
    2564:	90 70       	andi	r25, 0x00	; 0
    2566:	82 30       	cpi	r24, 0x02	; 2
    2568:	91 05       	cpc	r25, r1
    256a:	c9 f0       	breq	.+50     	; 0x259e <nrk_gpio_direction+0xf2>
    256c:	83 30       	cpi	r24, 0x03	; 3
    256e:	91 05       	cpc	r25, r1
    2570:	2c f4       	brge	.+10     	; 0x257c <nrk_gpio_direction+0xd0>
    2572:	00 97       	sbiw	r24, 0x00	; 0
    2574:	61 f0       	breq	.+24     	; 0x258e <nrk_gpio_direction+0xe2>
    2576:	01 97       	sbiw	r24, 0x01	; 1
    2578:	29 f5       	brne	.+74     	; 0x25c4 <nrk_gpio_direction+0x118>
    257a:	0d c0       	rjmp	.+26     	; 0x2596 <nrk_gpio_direction+0xea>
    257c:	84 30       	cpi	r24, 0x04	; 4
    257e:	91 05       	cpc	r25, r1
    2580:	b1 f0       	breq	.+44     	; 0x25ae <nrk_gpio_direction+0x102>
    2582:	84 30       	cpi	r24, 0x04	; 4
    2584:	91 05       	cpc	r25, r1
    2586:	7c f0       	brlt	.+30     	; 0x25a6 <nrk_gpio_direction+0xfa>
    2588:	05 97       	sbiw	r24, 0x05	; 5
    258a:	e1 f4       	brne	.+56     	; 0x25c4 <nrk_gpio_direction+0x118>
    258c:	14 c0       	rjmp	.+40     	; 0x25b6 <nrk_gpio_direction+0x10a>
        {
        case NRK_PORTA:
            DDRA |= bitvalue;
    258e:	8a b3       	in	r24, 0x1a	; 26
    2590:	48 2b       	or	r20, r24
    2592:	4a bb       	out	0x1a, r20	; 26
    2594:	15 c0       	rjmp	.+42     	; 0x25c0 <nrk_gpio_direction+0x114>
            break;
        case NRK_PORTB:
            DDRB |= bitvalue;
    2596:	87 b3       	in	r24, 0x17	; 23
    2598:	48 2b       	or	r20, r24
    259a:	47 bb       	out	0x17, r20	; 23
    259c:	11 c0       	rjmp	.+34     	; 0x25c0 <nrk_gpio_direction+0x114>
            break;
        case NRK_PORTC:
            DDRC |= bitvalue;
    259e:	84 b3       	in	r24, 0x14	; 20
    25a0:	48 2b       	or	r20, r24
    25a2:	44 bb       	out	0x14, r20	; 20
    25a4:	0d c0       	rjmp	.+26     	; 0x25c0 <nrk_gpio_direction+0x114>
            break;
        case NRK_PORTD:
            DDRD |= bitvalue;
    25a6:	81 b3       	in	r24, 0x11	; 17
    25a8:	48 2b       	or	r20, r24
    25aa:	41 bb       	out	0x11, r20	; 17
    25ac:	09 c0       	rjmp	.+18     	; 0x25c0 <nrk_gpio_direction+0x114>
            break;
        case NRK_PORTE:
            DDRE |= bitvalue;
    25ae:	82 b1       	in	r24, 0x02	; 2
    25b0:	48 2b       	or	r20, r24
    25b2:	42 b9       	out	0x02, r20	; 2
    25b4:	05 c0       	rjmp	.+10     	; 0x25c0 <nrk_gpio_direction+0x114>
            break;
        case NRK_PORTF:
            DDRF |= bitvalue;
    25b6:	80 91 61 00 	lds	r24, 0x0061
    25ba:	48 2b       	or	r20, r24
    25bc:	40 93 61 00 	sts	0x0061, r20
    25c0:	81 e0       	ldi	r24, 0x01	; 1
    25c2:	08 95       	ret
            break;
    25c4:	8f ef       	ldi	r24, 0xFF	; 255
        default:
            return -1;
        }
    }
    return 1;
}
    25c6:	08 95       	ret

000025c8 <nrk_get_button>:


int8_t nrk_get_button(uint8_t b)
{
    return NRK_ERROR;
}
    25c8:	8f ef       	ldi	r24, 0xFF	; 255
    25ca:	08 95       	ret

000025cc <nrk_led_toggle>:

int8_t nrk_led_toggle( int led )
{
    // pdiener: Execution time optimization

    if(led==0)      nrk_gpio_toggle(NRK_LED_0);
    25cc:	00 97       	sbiw	r24, 0x00	; 0
    25ce:	11 f4       	brne	.+4      	; 0x25d4 <nrk_led_toggle+0x8>
    25d0:	80 e0       	ldi	r24, 0x00	; 0
    25d2:	04 c0       	rjmp	.+8      	; 0x25dc <nrk_led_toggle+0x10>
    else if(led==1) nrk_gpio_toggle(NRK_LED_1);
    25d4:	81 30       	cpi	r24, 0x01	; 1
    25d6:	91 05       	cpc	r25, r1
    25d8:	29 f4       	brne	.+10     	; 0x25e4 <nrk_led_toggle+0x18>
    25da:	88 e0       	ldi	r24, 0x08	; 8
    25dc:	0e 94 0e 12 	call	0x241c	; 0x241c <nrk_gpio_toggle>
    25e0:	81 e0       	ldi	r24, 0x01	; 1
    25e2:	08 95       	ret
    else if(led==2) nrk_gpio_toggle(NRK_LED_2);
    25e4:	02 97       	sbiw	r24, 0x02	; 2
    25e6:	11 f0       	breq	.+4      	; 0x25ec <nrk_led_toggle+0x20>
    25e8:	8f ef       	ldi	r24, 0xFF	; 255
    25ea:	08 95       	ret
    25ec:	80 e1       	ldi	r24, 0x10	; 16
    25ee:	0e 94 0e 12 	call	0x241c	; 0x241c <nrk_gpio_toggle>
    25f2:	81 e0       	ldi	r24, 0x01	; 1
    else            return -1;

    return 1;
}
    25f4:	08 95       	ret

000025f6 <nrk_led_clr>:

int8_t nrk_led_clr( int led )
{
    // pdiener: Execution time optimization

    if(led==0)      nrk_gpio_set(NRK_LED_0);
    25f6:	00 97       	sbiw	r24, 0x00	; 0
    25f8:	11 f4       	brne	.+4      	; 0x25fe <nrk_led_clr+0x8>
    25fa:	80 e0       	ldi	r24, 0x00	; 0
    25fc:	04 c0       	rjmp	.+8      	; 0x2606 <nrk_led_clr+0x10>
    else if(led==1) nrk_gpio_set(NRK_LED_1);
    25fe:	81 30       	cpi	r24, 0x01	; 1
    2600:	91 05       	cpc	r25, r1
    2602:	29 f4       	brne	.+10     	; 0x260e <nrk_led_clr+0x18>
    2604:	88 e0       	ldi	r24, 0x08	; 8
    2606:	0e 94 41 11 	call	0x2282	; 0x2282 <nrk_gpio_set>
    260a:	81 e0       	ldi	r24, 0x01	; 1
    260c:	08 95       	ret
    else if(led==2) nrk_gpio_set(NRK_LED_2);
    260e:	02 97       	sbiw	r24, 0x02	; 2
    2610:	11 f0       	breq	.+4      	; 0x2616 <nrk_led_clr+0x20>
    2612:	8f ef       	ldi	r24, 0xFF	; 255
    2614:	08 95       	ret
    2616:	80 e1       	ldi	r24, 0x10	; 16
    2618:	0e 94 41 11 	call	0x2282	; 0x2282 <nrk_gpio_set>
    261c:	81 e0       	ldi	r24, 0x01	; 1
    else            return -1;

    return 1;
}
    261e:	08 95       	ret

00002620 <nrk_setup_ports>:
}


void nrk_setup_ports()
{
    PORT_INIT();
    2620:	80 b5       	in	r24, 0x20	; 32
    2622:	84 60       	ori	r24, 0x04	; 4
    2624:	80 bd       	out	0x20, r24	; 32
    2626:	87 e0       	ldi	r24, 0x07	; 7
    2628:	87 bb       	out	0x17, r24	; 23
    262a:	88 bb       	out	0x18, r24	; 24
    262c:	8f ef       	ldi	r24, 0xFF	; 255
    262e:	84 bb       	out	0x14, r24	; 20
    2630:	15 ba       	out	0x15, r1	; 21
    2632:	82 e0       	ldi	r24, 0x02	; 2
    2634:	82 b9       	out	0x02, r24	; 2
    2636:	87 e6       	ldi	r24, 0x67	; 103
    2638:	8a bb       	out	0x1a, r24	; 26
    263a:	80 e4       	ldi	r24, 0x40	; 64
    263c:	8b bb       	out	0x1b, r24	; 27
    SPI_INIT();
    263e:	80 e5       	ldi	r24, 0x50	; 80
    2640:	8d b9       	out	0x0d, r24	; 13
    2642:	81 e0       	ldi	r24, 0x01	; 1
    2644:	8e b9       	out	0x0e, r24	; 14
    // pdiener: switch off all LEDs
    nrk_led_clr(0);
    2646:	80 e0       	ldi	r24, 0x00	; 0
    2648:	90 e0       	ldi	r25, 0x00	; 0
    264a:	0e 94 fb 12 	call	0x25f6	; 0x25f6 <nrk_led_clr>
    nrk_led_clr(1);
    264e:	81 e0       	ldi	r24, 0x01	; 1
    2650:	90 e0       	ldi	r25, 0x00	; 0
    2652:	0e 94 fb 12 	call	0x25f6	; 0x25f6 <nrk_led_clr>
    nrk_led_clr(2);
    2656:	82 e0       	ldi	r24, 0x02	; 2
    2658:	90 e0       	ldi	r25, 0x00	; 0
    265a:	0e 94 fb 12 	call	0x25f6	; 0x25f6 <nrk_led_clr>
    nrk_led_clr(3);
    265e:	83 e0       	ldi	r24, 0x03	; 3
    2660:	90 e0       	ldi	r25, 0x00	; 0
    2662:	0e 94 fb 12 	call	0x25f6	; 0x25f6 <nrk_led_clr>
}
    2666:	08 95       	ret

00002668 <nrk_led_set>:

int8_t nrk_led_set( int led )
{
    // pdiener: Execution time optimization

    if(led==0)      nrk_gpio_clr(NRK_LED_0);
    2668:	00 97       	sbiw	r24, 0x00	; 0
    266a:	11 f4       	brne	.+4      	; 0x2670 <nrk_led_set+0x8>
    266c:	80 e0       	ldi	r24, 0x00	; 0
    266e:	04 c0       	rjmp	.+8      	; 0x2678 <nrk_led_set+0x10>
    else if(led==1) nrk_gpio_clr(NRK_LED_1);
    2670:	81 30       	cpi	r24, 0x01	; 1
    2672:	91 05       	cpc	r25, r1
    2674:	29 f4       	brne	.+10     	; 0x2680 <nrk_led_set+0x18>
    2676:	88 e0       	ldi	r24, 0x08	; 8
    2678:	0e 94 89 11 	call	0x2312	; 0x2312 <nrk_gpio_clr>
    267c:	81 e0       	ldi	r24, 0x01	; 1
    267e:	08 95       	ret
    else if(led==2) nrk_gpio_clr(NRK_LED_2);
    2680:	02 97       	sbiw	r24, 0x02	; 2
    2682:	11 f0       	breq	.+4      	; 0x2688 <nrk_led_set+0x20>
    2684:	8f ef       	ldi	r24, 0xFF	; 255
    2686:	08 95       	ret
    2688:	80 e1       	ldi	r24, 0x10	; 16
    268a:	0e 94 89 11 	call	0x2312	; 0x2312 <nrk_gpio_clr>
    268e:	81 e0       	ldi	r24, 0x01	; 1
    else            return -1;

    return 1;
}
    2690:	08 95       	ret

00002692 <putc0>:
}
*/

void putc0(char x)
{
    UART0_WAIT_AND_SEND(x);
    2692:	5d 9b       	sbis	0x0b, 5	; 11
    2694:	fe cf       	rjmp	.-4      	; 0x2692 <putc0>
    2696:	5d 98       	cbi	0x0b, 5	; 11
    2698:	8c b9       	out	0x0c, r24	; 12
}
    269a:	08 95       	ret

0000269c <putc1>:

void putc1(char x)
{
    269c:	98 2f       	mov	r25, r24
    UART1_WAIT_AND_SEND(x);
    269e:	80 91 9b 00 	lds	r24, 0x009B
    26a2:	85 ff       	sbrs	r24, 5
    26a4:	fc cf       	rjmp	.-8      	; 0x269e <putc1+0x2>
    26a6:	80 91 9b 00 	lds	r24, 0x009B
    26aa:	8f 7d       	andi	r24, 0xDF	; 223
    26ac:	80 93 9b 00 	sts	0x009B, r24
    26b0:	90 93 9c 00 	sts	0x009C, r25
}
    26b4:	08 95       	ret

000026b6 <setup_uart0>:
}
*/
void setup_uart0(uint16_t baudrate)
{
//INIT_UART1( UART_BAUDRATE_115K2, (UART_OPT_NO_PARITY|UART_OPT_8_BITS_PER_CHAR|UART_OPT_ONE_STOP_BIT));
    INIT_UART0( baudrate, (UART_OPT_NO_PARITY|UART_OPT_8_BITS_PER_CHAR|UART_OPT_ONE_STOP_BIT));
    26b6:	90 93 90 00 	sts	0x0090, r25
    26ba:	89 b9       	out	0x09, r24	; 9
    26bc:	86 e0       	ldi	r24, 0x06	; 6
    26be:	80 93 95 00 	sts	0x0095, r24
    26c2:	52 98       	cbi	0x0a, 2	; 10
    26c4:	59 9a       	sbi	0x0b, 1	; 11
    ENABLE_UART0();
    26c6:	8a b1       	in	r24, 0x0a	; 10
    26c8:	88 61       	ori	r24, 0x18	; 24
    26ca:	8a b9       	out	0x0a, r24	; 10
}
    26cc:	08 95       	ret

000026ce <setup_uart1>:
}

void setup_uart1(uint16_t baudrate)
{
//INIT_UART1( UART_BAUDRATE_115K2, (UART_OPT_NO_PARITY|UART_OPT_8_BITS_PER_CHAR|UART_OPT_ONE_STOP_BIT));
    INIT_UART1( baudrate, (UART_OPT_NO_PARITY|UART_OPT_8_BITS_PER_CHAR|UART_OPT_ONE_STOP_BIT));
    26ce:	90 93 98 00 	sts	0x0098, r25
    26d2:	80 93 99 00 	sts	0x0099, r24
    26d6:	86 e0       	ldi	r24, 0x06	; 6
    26d8:	80 93 9d 00 	sts	0x009D, r24
    26dc:	ea e9       	ldi	r30, 0x9A	; 154
    26de:	f0 e0       	ldi	r31, 0x00	; 0
    26e0:	80 81       	ld	r24, Z
    26e2:	8b 7f       	andi	r24, 0xFB	; 251
    26e4:	80 83       	st	Z, r24
    26e6:	ab e9       	ldi	r26, 0x9B	; 155
    26e8:	b0 e0       	ldi	r27, 0x00	; 0
    26ea:	8c 91       	ld	r24, X
    26ec:	82 60       	ori	r24, 0x02	; 2
    26ee:	8c 93       	st	X, r24
    ENABLE_UART1();
    26f0:	80 81       	ld	r24, Z
    26f2:	88 61       	ori	r24, 0x18	; 24
    26f4:	80 83       	st	Z, r24
}
    26f6:	08 95       	ret

000026f8 <getc1>:


char getc1(void)
{
    unsigned char tmp;
    UART1_WAIT_AND_RECEIVE(tmp);
    26f8:	80 91 9b 00 	lds	r24, 0x009B
    26fc:	87 ff       	sbrs	r24, 7
    26fe:	fc cf       	rjmp	.-8      	; 0x26f8 <getc1>
    2700:	80 91 9b 00 	lds	r24, 0x009B
    2704:	8f 77       	andi	r24, 0x7F	; 127
    2706:	80 93 9b 00 	sts	0x009B, r24
    270a:	80 91 9c 00 	lds	r24, 0x009C
    return tmp;
}
    270e:	08 95       	ret

00002710 <nrk_setup_uart>:
 *
 * More advanced UART usage will require manually
 * setting parameters.
 */
void nrk_setup_uart(uint16_t baudrate)
{
    2710:	ef 92       	push	r14
    2712:	ff 92       	push	r15
    2714:	0f 93       	push	r16
    2716:	1f 93       	push	r17

    //setup_uart1(baudrate);
    setup_uart0(baudrate);
    2718:	0e 94 5b 13 	call	0x26b6	; 0x26b6 <setup_uart0>

    stdout = fdevopen( putc0, getc0);
    271c:	09 e4       	ldi	r16, 0x49	; 73
    271e:	13 e1       	ldi	r17, 0x13	; 19
    2720:	8c e3       	ldi	r24, 0x3C	; 60
    2722:	e8 2e       	mov	r14, r24
    2724:	81 e1       	ldi	r24, 0x11	; 17
    2726:	f8 2e       	mov	r15, r24
    2728:	c8 01       	movw	r24, r16
    272a:	b7 01       	movw	r22, r14
    272c:	0e 94 09 4c 	call	0x9812	; 0x9812 <fdevopen>
    2730:	90 93 a8 08 	sts	0x08A8, r25
    2734:	80 93 a7 08 	sts	0x08A7, r24
    stdin = fdevopen( putc0, getc0);
    2738:	c8 01       	movw	r24, r16
    273a:	b7 01       	movw	r22, r14
    273c:	0e 94 09 4c 	call	0x9812	; 0x9812 <fdevopen>
    2740:	90 93 a6 08 	sts	0x08A6, r25
    2744:	80 93 a5 08 	sts	0x08A5, r24
    ENABLE_UART0_RX_INT();
#endif



}
    2748:	1f 91       	pop	r17
    274a:	0f 91       	pop	r16
    274c:	ff 90       	pop	r15
    274e:	ef 90       	pop	r14
    2750:	08 95       	ret

00002752 <nrk_kprintf>:
}

#endif

void nrk_kprintf( const char *addr)
{
    2752:	cf 93       	push	r28
    2754:	df 93       	push	r29
    2756:	ec 01       	movw	r28, r24
    2758:	07 c0       	rjmp	.+14     	; 0x2768 <nrk_kprintf+0x16>
    char c;
    while((c=pgm_read_byte(addr++)))
        putchar(c);
    275a:	60 91 a7 08 	lds	r22, 0x08A7
    275e:	70 91 a8 08 	lds	r23, 0x08A8
    2762:	90 e0       	ldi	r25, 0x00	; 0
    2764:	0e 94 97 4c 	call	0x992e	; 0x992e <fputc>
    2768:	fe 01       	movw	r30, r28
#endif

void nrk_kprintf( const char *addr)
{
    char c;
    while((c=pgm_read_byte(addr++)))
    276a:	21 96       	adiw	r28, 0x01	; 1
    276c:	84 91       	lpm	r24, Z+
    276e:	88 23       	and	r24, r24
    2770:	a1 f7       	brne	.-24     	; 0x275a <nrk_kprintf+0x8>
        putchar(c);
}
    2772:	df 91       	pop	r29
    2774:	cf 91       	pop	r28
    2776:	08 95       	ret

00002778 <halWait>:
	...
        NOP();
        NOP();
        NOP();
        NOP();
    }
    while (--timeout);
    2780:	01 97       	sbiw	r24, 0x01	; 1
    2782:	d1 f7       	brne	.-12     	; 0x2778 <halWait>

} // halWait
    2784:	08 95       	ret

00002786 <write_eeprom_current_image_checksum>:
    *image_checksum=eeprom_read_byte ((uint8_t*)EE_CURRENT_IMAGE_CHECKSUM);
    return NRK_OK;
}

int8_t write_eeprom_current_image_checksum(uint8_t *image_checksum)
{
    2786:	fc 01       	movw	r30, r24
    eeprom_write_byte ((uint8_t*)EE_CURRENT_IMAGE_CHECKSUM, *image_checksum);
    2788:	87 e0       	ldi	r24, 0x07	; 7
    278a:	90 e0       	ldi	r25, 0x00	; 0
    278c:	60 81       	ld	r22, Z
    278e:	0e 94 6c 4d 	call	0x9ad8	; 0x9ad8 <__eewr_byte_m128>
    return NRK_OK;
}
    2792:	81 e0       	ldi	r24, 0x01	; 1
    2794:	08 95       	ret

00002796 <write_eeprom_aes_key>:
        aes_key[i]=eeprom_read_byte ((uint8_t*)(EE_AES_KEY+i));
    return NRK_OK;
}

int8_t write_eeprom_aes_key(uint8_t *aes_key)
{
    2796:	0f 93       	push	r16
    2798:	1f 93       	push	r17
    279a:	cf 93       	push	r28
    279c:	df 93       	push	r29
    279e:	8c 01       	movw	r16, r24
    27a0:	c8 e0       	ldi	r28, 0x08	; 8
    27a2:	d0 e0       	ldi	r29, 0x00	; 0
    uint8_t i;
    for(i=0; i<16; i++ )
        eeprom_write_byte ((uint8_t*)(EE_AES_KEY+i),aes_key[i]);
    27a4:	ce 01       	movw	r24, r28
    27a6:	f8 01       	movw	r30, r16
    27a8:	61 91       	ld	r22, Z+
    27aa:	8f 01       	movw	r16, r30
    27ac:	0e 94 6c 4d 	call	0x9ad8	; 0x9ad8 <__eewr_byte_m128>
    27b0:	21 96       	adiw	r28, 0x01	; 1
}

int8_t write_eeprom_aes_key(uint8_t *aes_key)
{
    uint8_t i;
    for(i=0; i<16; i++ )
    27b2:	c8 31       	cpi	r28, 0x18	; 24
    27b4:	d1 05       	cpc	r29, r1
    27b6:	b1 f7       	brne	.-20     	; 0x27a4 <write_eeprom_aes_key+0xe>
        eeprom_write_byte ((uint8_t*)(EE_AES_KEY+i),aes_key[i]);
    return NRK_OK;
}
    27b8:	81 e0       	ldi	r24, 0x01	; 1
    27ba:	df 91       	pop	r29
    27bc:	cf 91       	pop	r28
    27be:	1f 91       	pop	r17
    27c0:	0f 91       	pop	r16
    27c2:	08 95       	ret

000027c4 <write_eeprom_load_img_pages>:
    *channel=eeprom_read_byte ((uint8_t*)EE_CHANNEL);
    return NRK_OK;
}

int8_t write_eeprom_load_img_pages(uint8_t *load_pages)
{
    27c4:	fc 01       	movw	r30, r24
    eeprom_write_byte ((uint8_t*)EE_LOAD_IMG_PAGES, *load_pages);
    27c6:	86 e0       	ldi	r24, 0x06	; 6
    27c8:	90 e0       	ldi	r25, 0x00	; 0
    27ca:	60 81       	ld	r22, Z
    27cc:	0e 94 6c 4d 	call	0x9ad8	; 0x9ad8 <__eewr_byte_m128>
    return NRK_OK;
}
    27d0:	81 e0       	ldi	r24, 0x01	; 1
    27d2:	08 95       	ret

000027d4 <nrk_eeprom_write_byte>:
    return eeprom_read_byte((uint8_t*)addr);
}

int8_t nrk_eeprom_write_byte( uint16_t addr, uint8_t value )
{
    eeprom_write_byte( (uint8_t*)addr, value );
    27d4:	0e 94 6c 4d 	call	0x9ad8	; 0x9ad8 <__eewr_byte_m128>
    return 0;
}
    27d8:	80 e0       	ldi	r24, 0x00	; 0
    27da:	08 95       	ret

000027dc <read_eeprom_current_image_checksum>:
        eeprom_write_byte ((uint8_t*)(EE_AES_KEY+i),aes_key[i]);
    return NRK_OK;
}

int8_t read_eeprom_current_image_checksum(uint8_t *image_checksum)
{
    27dc:	0f 93       	push	r16
    27de:	1f 93       	push	r17
    27e0:	8c 01       	movw	r16, r24
    *image_checksum=eeprom_read_byte ((uint8_t*)EE_CURRENT_IMAGE_CHECKSUM);
    27e2:	87 e0       	ldi	r24, 0x07	; 7
    27e4:	90 e0       	ldi	r25, 0x00	; 0
    27e6:	0e 94 64 4d 	call	0x9ac8	; 0x9ac8 <__eerd_byte_m128>
    27ea:	f8 01       	movw	r30, r16
    27ec:	80 83       	st	Z, r24
    return NRK_OK;
}
    27ee:	81 e0       	ldi	r24, 0x01	; 1
    27f0:	1f 91       	pop	r17
    27f2:	0f 91       	pop	r16
    27f4:	08 95       	ret

000027f6 <read_eeprom_aes_key>:
    *load_pages=eeprom_read_byte ((uint8_t*)EE_LOAD_IMG_PAGES);
    return NRK_OK;
}

int8_t read_eeprom_aes_key(uint8_t *aes_key)
{
    27f6:	0f 93       	push	r16
    27f8:	1f 93       	push	r17
    27fa:	cf 93       	push	r28
    27fc:	df 93       	push	r29
    27fe:	8c 01       	movw	r16, r24
    2800:	c8 e0       	ldi	r28, 0x08	; 8
    2802:	d0 e0       	ldi	r29, 0x00	; 0
    uint8_t i;
    for(i=0; i<16; i++ )
        aes_key[i]=eeprom_read_byte ((uint8_t*)(EE_AES_KEY+i));
    2804:	ce 01       	movw	r24, r28
    2806:	0e 94 64 4d 	call	0x9ac8	; 0x9ac8 <__eerd_byte_m128>
    280a:	f8 01       	movw	r30, r16
    280c:	81 93       	st	Z+, r24
    280e:	8f 01       	movw	r16, r30
    2810:	21 96       	adiw	r28, 0x01	; 1
}

int8_t read_eeprom_aes_key(uint8_t *aes_key)
{
    uint8_t i;
    for(i=0; i<16; i++ )
    2812:	c8 31       	cpi	r28, 0x18	; 24
    2814:	d1 05       	cpc	r29, r1
    2816:	b1 f7       	brne	.-20     	; 0x2804 <read_eeprom_aes_key+0xe>
        aes_key[i]=eeprom_read_byte ((uint8_t*)(EE_AES_KEY+i));
    return NRK_OK;
}
    2818:	81 e0       	ldi	r24, 0x01	; 1
    281a:	df 91       	pop	r29
    281c:	cf 91       	pop	r28
    281e:	1f 91       	pop	r17
    2820:	0f 91       	pop	r16
    2822:	08 95       	ret

00002824 <read_eeprom_load_img_pages>:
    eeprom_write_byte ((uint8_t*)EE_LOAD_IMG_PAGES, *load_pages);
    return NRK_OK;
}

int8_t read_eeprom_load_img_pages(uint8_t *load_pages)
{
    2824:	0f 93       	push	r16
    2826:	1f 93       	push	r17
    2828:	8c 01       	movw	r16, r24
    *load_pages=eeprom_read_byte ((uint8_t*)EE_LOAD_IMG_PAGES);
    282a:	86 e0       	ldi	r24, 0x06	; 6
    282c:	90 e0       	ldi	r25, 0x00	; 0
    282e:	0e 94 64 4d 	call	0x9ac8	; 0x9ac8 <__eerd_byte_m128>
    2832:	f8 01       	movw	r30, r16
    2834:	80 83       	st	Z, r24
    return NRK_OK;
}
    2836:	81 e0       	ldi	r24, 0x01	; 1
    2838:	1f 91       	pop	r17
    283a:	0f 91       	pop	r16
    283c:	08 95       	ret

0000283e <read_eeprom_channel>:

    return NRK_ERROR;
}

int8_t read_eeprom_channel(uint8_t *channel)
{
    283e:	0f 93       	push	r16
    2840:	1f 93       	push	r17
    2842:	8c 01       	movw	r16, r24
    *channel=eeprom_read_byte ((uint8_t*)EE_CHANNEL);
    2844:	85 e0       	ldi	r24, 0x05	; 5
    2846:	90 e0       	ldi	r25, 0x00	; 0
    2848:	0e 94 64 4d 	call	0x9ac8	; 0x9ac8 <__eerd_byte_m128>
    284c:	f8 01       	movw	r30, r16
    284e:	80 83       	st	Z, r24
    return NRK_OK;
}
    2850:	81 e0       	ldi	r24, 0x01	; 1
    2852:	1f 91       	pop	r17
    2854:	0f 91       	pop	r16
    2856:	08 95       	ret

00002858 <read_eeprom_mac_address>:
    eeprom_write_byte( (uint8_t*)addr, value );
    return 0;
}

int8_t read_eeprom_mac_address(uint32_t *mac_addr)
{
    2858:	ff 92       	push	r15
    285a:	0f 93       	push	r16
    285c:	1f 93       	push	r17
    uint8_t checksum,ct;
    uint8_t *buf;
    buf=(uint8_t *)mac_addr;
    285e:	8c 01       	movw	r16, r24
    checksum=buf[0]+buf[1]+buf[2]+buf[3];
    buf[3]=eeprom_read_byte ((uint8_t*)EE_MAC_ADDR_0);
    2860:	80 e0       	ldi	r24, 0x00	; 0
    2862:	90 e0       	ldi	r25, 0x00	; 0
    2864:	0e 94 64 4d 	call	0x9ac8	; 0x9ac8 <__eerd_byte_m128>
    2868:	f8 01       	movw	r30, r16
    286a:	83 83       	std	Z+3, r24	; 0x03
    buf[2]=eeprom_read_byte ((uint8_t*)EE_MAC_ADDR_1);
    286c:	81 e0       	ldi	r24, 0x01	; 1
    286e:	90 e0       	ldi	r25, 0x00	; 0
    2870:	0e 94 64 4d 	call	0x9ac8	; 0x9ac8 <__eerd_byte_m128>
    2874:	f8 01       	movw	r30, r16
    2876:	82 83       	std	Z+2, r24	; 0x02
    buf[1]=eeprom_read_byte ((uint8_t*)EE_MAC_ADDR_2);
    2878:	82 e0       	ldi	r24, 0x02	; 2
    287a:	90 e0       	ldi	r25, 0x00	; 0
    287c:	0e 94 64 4d 	call	0x9ac8	; 0x9ac8 <__eerd_byte_m128>
    2880:	f8 01       	movw	r30, r16
    2882:	81 83       	std	Z+1, r24	; 0x01
    buf[0]=eeprom_read_byte ((uint8_t*)EE_MAC_ADDR_3);
    2884:	83 e0       	ldi	r24, 0x03	; 3
    2886:	90 e0       	ldi	r25, 0x00	; 0
    2888:	0e 94 64 4d 	call	0x9ac8	; 0x9ac8 <__eerd_byte_m128>
    288c:	f8 2e       	mov	r15, r24
    288e:	f8 01       	movw	r30, r16
    2890:	80 83       	st	Z, r24
    checksum=eeprom_read_byte ((uint8_t*)EE_MAC_ADDR_CHKSUM);
    2892:	84 e0       	ldi	r24, 0x04	; 4
    2894:	90 e0       	ldi	r25, 0x00	; 0
    2896:	0e 94 64 4d 	call	0x9ac8	; 0x9ac8 <__eerd_byte_m128>
    ct=buf[0];
    ct+=buf[1];
    289a:	f8 01       	movw	r30, r16
    289c:	91 81       	ldd	r25, Z+1	; 0x01
    289e:	22 81       	ldd	r18, Z+2	; 0x02
    28a0:	92 0f       	add	r25, r18
    ct+=buf[2];
    28a2:	9f 0d       	add	r25, r15
    ct+=buf[3];
    if(checksum==ct) return NRK_OK;
    28a4:	23 81       	ldd	r18, Z+3	; 0x03
    28a6:	92 0f       	add	r25, r18
    28a8:	89 17       	cp	r24, r25
    28aa:	11 f0       	breq	.+4      	; 0x28b0 <read_eeprom_mac_address+0x58>
    28ac:	8f ef       	ldi	r24, 0xFF	; 255
    28ae:	01 c0       	rjmp	.+2      	; 0x28b2 <read_eeprom_mac_address+0x5a>
    28b0:	81 e0       	ldi	r24, 0x01	; 1

    return NRK_ERROR;
}
    28b2:	1f 91       	pop	r17
    28b4:	0f 91       	pop	r16
    28b6:	ff 90       	pop	r15
    28b8:	08 95       	ret

000028ba <nrk_eeprom_read_byte>:

// Some optimizations by pdiener

uint8_t nrk_eeprom_read_byte( uint16_t addr )
{
    return eeprom_read_byte((uint8_t*)addr);
    28ba:	0e 94 64 4d 	call	0x9ac8	; 0x9ac8 <__eerd_byte_m128>
}
    28be:	08 95       	ret

000028c0 <nrk_int_disable>:
#include <nrk_reserve.h>
#include <nrk_cfg.h>
#include <nrk_stats.h>

inline void nrk_int_disable(void) {
  DISABLE_GLOBAL_INT();
    28c0:	f8 94       	cli
};
    28c2:	08 95       	ret

000028c4 <nrk_int_enable>:

inline void nrk_int_enable(void) {
  ENABLE_GLOBAL_INT();
    28c4:	78 94       	sei
};
    28c6:	08 95       	ret

000028c8 <nrk_halt>:
#include <nrk_reserve.h>
#include <nrk_cfg.h>
#include <nrk_stats.h>

inline void nrk_int_disable(void) {
  DISABLE_GLOBAL_INT();
    28c8:	f8 94       	cli
    28ca:	ff cf       	rjmp	.-2      	; 0x28ca <nrk_halt+0x2>

000028cc <nrk_version>:


uint16_t nrk_version (void)
{
    return (NRK_VERSION);
}
    28cc:	85 e6       	ldi	r24, 0x65	; 101
    28ce:	90 e0       	ldi	r25, 0x00	; 0
    28d0:	08 95       	ret

000028d2 <_nrk_timer_tick>:
void _nrk_timer_tick(void)
{
	// want to do something before the scheduler gets called? 
	// Go ahead and put it here...

	_nrk_scheduler();
    28d2:	0e 94 22 2a 	call	0x5444	; 0x5444 <_nrk_scheduler>

  	return;
}
    28d6:	08 95       	ret

000028d8 <nrk_TCB_init>:
    while(1);
}


int8_t nrk_TCB_init (nrk_task_type *Task, NRK_STK *ptos, NRK_STK *pbos, uint16_t stk_size, void *pext, uint16_t opt)
{
    28d8:	cf 92       	push	r12
    28da:	df 92       	push	r13
    28dc:	ef 92       	push	r14
    28de:	ff 92       	push	r15
    28e0:	0f 93       	push	r16
    28e2:	1f 93       	push	r17
    28e4:	cf 93       	push	r28
    28e6:	df 93       	push	r29
    28e8:	ec 01       	movw	r28, r24
    28ea:	8b 01       	movw	r16, r22
    28ec:	6a 01       	movw	r12, r20
	
    //  Already in critical section so no needenter critical section
    if(Task->Type!=IDLE_TASK)
    28ee:	89 85       	ldd	r24, Y+9	; 0x09
    28f0:	82 30       	cpi	r24, 0x02	; 2
    28f2:	21 f0       	breq	.+8      	; 0x28fc <nrk_TCB_init+0x24>
    	Task->task_ID=nrk_task_init_cnt;
    28f4:	80 91 2d 08 	lds	r24, 0x082D
    28f8:	88 83       	st	Y, r24
    28fa:	01 c0       	rjmp	.+2      	; 0x28fe <nrk_TCB_init+0x26>
    else Task->task_ID=NRK_IDLE_TASK_ID;
    28fc:	18 82       	st	Y, r1

    if(nrk_task_init_cnt>=NRK_MAX_TASKS) nrk_kernel_error_add(NRK_EXTRA_TASK,0);
    28fe:	80 91 2d 08 	lds	r24, 0x082D
    2902:	85 30       	cpi	r24, 0x05	; 5
    2904:	20 f0       	brcs	.+8      	; 0x290e <nrk_TCB_init+0x36>
    2906:	87 e0       	ldi	r24, 0x07	; 7
    2908:	60 e0       	ldi	r22, 0x00	; 0
    290a:	0e 94 3c 1f 	call	0x3e78	; 0x3e78 <nrk_kernel_error_add>
    if(Task->Type!=IDLE_TASK) nrk_task_init_cnt++; 
    290e:	89 85       	ldd	r24, Y+9	; 0x09
    2910:	82 30       	cpi	r24, 0x02	; 2
    2912:	29 f0       	breq	.+10     	; 0x291e <nrk_TCB_init+0x46>
    2914:	80 91 2d 08 	lds	r24, 0x082D
    2918:	8f 5f       	subi	r24, 0xFF	; 255
    291a:	80 93 2d 08 	sts	0x082D, r24
    if(nrk_task_init_cnt==NRK_IDLE_TASK_ID) nrk_task_init_cnt++;
    291e:	80 91 2d 08 	lds	r24, 0x082D
    2922:	88 23       	and	r24, r24
    2924:	19 f4       	brne	.+6      	; 0x292c <nrk_TCB_init+0x54>
    2926:	81 e0       	ldi	r24, 0x01	; 1
    2928:	80 93 2d 08 	sts	0x082D, r24
    //initialize member of TCB structure
    nrk_task_TCB[Task->task_ID].OSTaskStkPtr = ptos;
    292c:	88 81       	ld	r24, Y
    292e:	99 27       	eor	r25, r25
    2930:	87 fd       	sbrc	r24, 7
    2932:	90 95       	com	r25
    2934:	33 e2       	ldi	r19, 0x23	; 35
    2936:	e3 2e       	mov	r14, r19
    2938:	f1 2c       	mov	r15, r1
    293a:	8e 9d       	mul	r24, r14
    293c:	f0 01       	movw	r30, r0
    293e:	8f 9d       	mul	r24, r15
    2940:	f0 0d       	add	r31, r0
    2942:	9e 9d       	mul	r25, r14
    2944:	f0 0d       	add	r31, r0
    2946:	11 24       	eor	r1, r1
    2948:	e7 58       	subi	r30, 0x87	; 135
    294a:	f8 4f       	sbci	r31, 0xF8	; 248
    294c:	11 83       	std	Z+1, r17	; 0x01
    294e:	00 83       	st	Z, r16
    nrk_task_TCB[Task->task_ID].task_prio = Task->prio;
    2950:	88 81       	ld	r24, Y
    2952:	99 27       	eor	r25, r25
    2954:	87 fd       	sbrc	r24, 7
    2956:	90 95       	com	r25
    2958:	8e 9d       	mul	r24, r14
    295a:	f0 01       	movw	r30, r0
    295c:	8f 9d       	mul	r24, r15
    295e:	f0 0d       	add	r31, r0
    2960:	9e 9d       	mul	r25, r14
    2962:	f0 0d       	add	r31, r0
    2964:	11 24       	eor	r1, r1
    2966:	e7 58       	subi	r30, 0x87	; 135
    2968:	f8 4f       	sbci	r31, 0xF8	; 248
    296a:	88 85       	ldd	r24, Y+8	; 0x08
    296c:	82 87       	std	Z+10, r24	; 0x0a
    nrk_task_TCB[Task->task_ID].task_state = SUSPENDED;
    296e:	88 81       	ld	r24, Y
    2970:	99 27       	eor	r25, r25
    2972:	87 fd       	sbrc	r24, 7
    2974:	90 95       	com	r25
    2976:	8e 9d       	mul	r24, r14
    2978:	f0 01       	movw	r30, r0
    297a:	8f 9d       	mul	r24, r15
    297c:	f0 0d       	add	r31, r0
    297e:	9e 9d       	mul	r25, r14
    2980:	f0 0d       	add	r31, r0
    2982:	11 24       	eor	r1, r1
    2984:	e7 58       	subi	r30, 0x87	; 135
    2986:	f8 4f       	sbci	r31, 0xF8	; 248
    2988:	83 e0       	ldi	r24, 0x03	; 3
    298a:	81 87       	std	Z+9, r24	; 0x09
   nrk_task_TCB[Task->task_ID].task_prelevel = Task->prelevel;    
    298c:	88 81       	ld	r24, Y
    298e:	99 27       	eor	r25, r25
    2990:	87 fd       	sbrc	r24, 7
    2992:	90 95       	com	r25
    2994:	8e 9d       	mul	r24, r14
    2996:	f0 01       	movw	r30, r0
    2998:	8f 9d       	mul	r24, r15
    299a:	f0 0d       	add	r31, r0
    299c:	9e 9d       	mul	r25, r14
    299e:	f0 0d       	add	r31, r0
    29a0:	11 24       	eor	r1, r1
    29a2:	e7 58       	subi	r30, 0x87	; 135
    29a4:	f8 4f       	sbci	r31, 0xF8	; 248
    29a6:	8b a1       	ldd	r24, Y+35	; 0x23
    29a8:	85 8b       	std	Z+21, r24	; 0x15
    nrk_task_TCB[Task->task_ID].task_ID = Task->task_ID;
    29aa:	28 81       	ld	r18, Y
    29ac:	82 2f       	mov	r24, r18
    29ae:	99 27       	eor	r25, r25
    29b0:	87 fd       	sbrc	r24, 7
    29b2:	90 95       	com	r25
    29b4:	8e 9d       	mul	r24, r14
    29b6:	f0 01       	movw	r30, r0
    29b8:	8f 9d       	mul	r24, r15
    29ba:	f0 0d       	add	r31, r0
    29bc:	9e 9d       	mul	r25, r14
    29be:	f0 0d       	add	r31, r0
    29c0:	11 24       	eor	r1, r1
    29c2:	e7 58       	subi	r30, 0x87	; 135
    29c4:	f8 4f       	sbci	r31, 0xF8	; 248
    29c6:	20 87       	std	Z+8, r18	; 0x08
    nrk_task_TCB[Task->task_ID].suspend_flag = 0;
    29c8:	88 81       	ld	r24, Y
    29ca:	99 27       	eor	r25, r25
    29cc:	87 fd       	sbrc	r24, 7
    29ce:	90 95       	com	r25
    29d0:	8e 9d       	mul	r24, r14
    29d2:	f0 01       	movw	r30, r0
    29d4:	8f 9d       	mul	r24, r15
    29d6:	f0 0d       	add	r31, r0
    29d8:	9e 9d       	mul	r25, r14
    29da:	f0 0d       	add	r31, r0
    29dc:	11 24       	eor	r1, r1
    29de:	e7 58       	subi	r30, 0x87	; 135
    29e0:	f8 4f       	sbci	r31, 0xF8	; 248
    29e2:	15 82       	std	Z+5, r1	; 0x05
    nrk_task_TCB[Task->task_ID].period= _nrk_time_to_ticks( &(Task->period) );
    29e4:	08 81       	ld	r16, Y
    29e6:	11 27       	eor	r17, r17
    29e8:	07 fd       	sbrc	r16, 7
    29ea:	10 95       	com	r17
    29ec:	ce 01       	movw	r24, r28
    29ee:	0b 96       	adiw	r24, 0x0b	; 11
    29f0:	0e 94 3b 28 	call	0x5076	; 0x5076 <_nrk_time_to_ticks>
    29f4:	0e 9d       	mul	r16, r14
    29f6:	f0 01       	movw	r30, r0
    29f8:	0f 9d       	mul	r16, r15
    29fa:	f0 0d       	add	r31, r0
    29fc:	1e 9d       	mul	r17, r14
    29fe:	f0 0d       	add	r31, r0
    2a00:	11 24       	eor	r1, r1
    2a02:	e7 58       	subi	r30, 0x87	; 135
    2a04:	f8 4f       	sbci	r31, 0xF8	; 248
    2a06:	96 8f       	std	Z+30, r25	; 0x1e
    2a08:	85 8f       	std	Z+29, r24	; 0x1d
    if(Task->period.secs > 61) nrk_kernel_error_add(NRK_PERIOD_OVERFLOW,Task->task_ID);
    2a0a:	8b 85       	ldd	r24, Y+11	; 0x0b
    2a0c:	9c 85       	ldd	r25, Y+12	; 0x0c
    2a0e:	ad 85       	ldd	r26, Y+13	; 0x0d
    2a10:	be 85       	ldd	r27, Y+14	; 0x0e
    2a12:	ce 97       	sbiw	r24, 0x3e	; 62
    2a14:	a1 05       	cpc	r26, r1
    2a16:	b1 05       	cpc	r27, r1
    2a18:	20 f0       	brcs	.+8      	; 0x2a22 <nrk_TCB_init+0x14a>
    2a1a:	86 e1       	ldi	r24, 0x16	; 22
    2a1c:	68 81       	ld	r22, Y
    2a1e:	0e 94 3c 1f 	call	0x3e78	; 0x3e78 <nrk_kernel_error_add>
    nrk_task_TCB[Task->task_ID].next_wakeup= _nrk_time_to_ticks( &(Task->offset));
    2a22:	08 81       	ld	r16, Y
    2a24:	11 27       	eor	r17, r17
    2a26:	07 fd       	sbrc	r16, 7
    2a28:	10 95       	com	r17
    2a2a:	ce 01       	movw	r24, r28
    2a2c:	4b 96       	adiw	r24, 0x1b	; 27
    2a2e:	0e 94 3b 28 	call	0x5076	; 0x5076 <_nrk_time_to_ticks>
    2a32:	23 e2       	ldi	r18, 0x23	; 35
    2a34:	e2 2e       	mov	r14, r18
    2a36:	f1 2c       	mov	r15, r1
    2a38:	0e 9d       	mul	r16, r14
    2a3a:	f0 01       	movw	r30, r0
    2a3c:	0f 9d       	mul	r16, r15
    2a3e:	f0 0d       	add	r31, r0
    2a40:	1e 9d       	mul	r17, r14
    2a42:	f0 0d       	add	r31, r0
    2a44:	11 24       	eor	r1, r1
    2a46:	e7 58       	subi	r30, 0x87	; 135
    2a48:	f8 4f       	sbci	r31, 0xF8	; 248
    2a4a:	90 8f       	std	Z+24, r25	; 0x18
    2a4c:	87 8b       	std	Z+23, r24	; 0x17
    nrk_task_TCB[Task->task_ID].next_period= nrk_task_TCB[Task->task_ID].period+nrk_task_TCB[Task->task_ID].next_wakeup;
    2a4e:	88 81       	ld	r24, Y
    2a50:	99 27       	eor	r25, r25
    2a52:	87 fd       	sbrc	r24, 7
    2a54:	90 95       	com	r25
    2a56:	8e 9d       	mul	r24, r14
    2a58:	f0 01       	movw	r30, r0
    2a5a:	8f 9d       	mul	r24, r15
    2a5c:	f0 0d       	add	r31, r0
    2a5e:	9e 9d       	mul	r25, r14
    2a60:	f0 0d       	add	r31, r0
    2a62:	11 24       	eor	r1, r1
    2a64:	e7 58       	subi	r30, 0x87	; 135
    2a66:	f8 4f       	sbci	r31, 0xF8	; 248
    2a68:	87 89       	ldd	r24, Z+23	; 0x17
    2a6a:	90 8d       	ldd	r25, Z+24	; 0x18
    2a6c:	25 8d       	ldd	r18, Z+29	; 0x1d
    2a6e:	36 8d       	ldd	r19, Z+30	; 0x1e
    2a70:	82 0f       	add	r24, r18
    2a72:	93 1f       	adc	r25, r19
    2a74:	92 8f       	std	Z+26, r25	; 0x1a
    2a76:	81 8f       	std	Z+25, r24	; 0x19
    nrk_task_TCB[Task->task_ID].cpu_reserve= _nrk_time_to_ticks(&(Task->cpu_reserve));
    2a78:	08 81       	ld	r16, Y
    2a7a:	11 27       	eor	r17, r17
    2a7c:	07 fd       	sbrc	r16, 7
    2a7e:	10 95       	com	r17
    2a80:	ce 01       	movw	r24, r28
    2a82:	43 96       	adiw	r24, 0x13	; 19
    2a84:	0e 94 3b 28 	call	0x5076	; 0x5076 <_nrk_time_to_ticks>
    2a88:	0e 9d       	mul	r16, r14
    2a8a:	f0 01       	movw	r30, r0
    2a8c:	0f 9d       	mul	r16, r15
    2a8e:	f0 0d       	add	r31, r0
    2a90:	1e 9d       	mul	r17, r14
    2a92:	f0 0d       	add	r31, r0
    2a94:	11 24       	eor	r1, r1
    2a96:	e7 58       	subi	r30, 0x87	; 135
    2a98:	f8 4f       	sbci	r31, 0xF8	; 248
    2a9a:	90 a3       	std	Z+32, r25	; 0x20
    2a9c:	87 8f       	std	Z+31, r24	; 0x1f
    nrk_task_TCB[Task->task_ID].cpu_remaining = nrk_task_TCB[Task->task_ID].cpu_reserve;
    2a9e:	88 81       	ld	r24, Y
    2aa0:	99 27       	eor	r25, r25
    2aa2:	87 fd       	sbrc	r24, 7
    2aa4:	90 95       	com	r25
    2aa6:	8e 9d       	mul	r24, r14
    2aa8:	f0 01       	movw	r30, r0
    2aaa:	8f 9d       	mul	r24, r15
    2aac:	f0 0d       	add	r31, r0
    2aae:	9e 9d       	mul	r25, r14
    2ab0:	f0 0d       	add	r31, r0
    2ab2:	11 24       	eor	r1, r1
    2ab4:	e7 58       	subi	r30, 0x87	; 135
    2ab6:	f8 4f       	sbci	r31, 0xF8	; 248
    2ab8:	87 8d       	ldd	r24, Z+31	; 0x1f
    2aba:	90 a1       	ldd	r25, Z+32	; 0x20
    2abc:	94 8f       	std	Z+28, r25	; 0x1c
    2abe:	83 8f       	std	Z+27, r24	; 0x1b
    nrk_task_TCB[Task->task_ID].num_periods = 1;
    2ac0:	88 81       	ld	r24, Y
    2ac2:	99 27       	eor	r25, r25
    2ac4:	87 fd       	sbrc	r24, 7
    2ac6:	90 95       	com	r25
    2ac8:	8e 9d       	mul	r24, r14
    2aca:	f0 01       	movw	r30, r0
    2acc:	8f 9d       	mul	r24, r15
    2ace:	f0 0d       	add	r31, r0
    2ad0:	9e 9d       	mul	r25, r14
    2ad2:	f0 0d       	add	r31, r0
    2ad4:	11 24       	eor	r1, r1
    2ad6:	e7 58       	subi	r30, 0x87	; 135
    2ad8:	f8 4f       	sbci	r31, 0xF8	; 248
    2ada:	81 e0       	ldi	r24, 0x01	; 1
    2adc:	90 e0       	ldi	r25, 0x00	; 0
    2ade:	92 a3       	std	Z+34, r25	; 0x22
    2ae0:	81 a3       	std	Z+33, r24	; 0x21
    nrk_task_TCB[Task->task_ID].OSTCBStkBottom = pbos;
    2ae2:	88 81       	ld	r24, Y
    2ae4:	99 27       	eor	r25, r25
    2ae6:	87 fd       	sbrc	r24, 7
    2ae8:	90 95       	com	r25
    2aea:	8e 9d       	mul	r24, r14
    2aec:	f0 01       	movw	r30, r0
    2aee:	8f 9d       	mul	r24, r15
    2af0:	f0 0d       	add	r31, r0
    2af2:	9e 9d       	mul	r25, r14
    2af4:	f0 0d       	add	r31, r0
    2af6:	11 24       	eor	r1, r1
    2af8:	e7 58       	subi	r30, 0x87	; 135
    2afa:	f8 4f       	sbci	r31, 0xF8	; 248
    2afc:	d3 82       	std	Z+3, r13	; 0x03
    2afe:	c2 82       	std	Z+2, r12	; 0x02
    nrk_task_TCB[Task->task_ID].errno= NRK_OK;
    2b00:	88 81       	ld	r24, Y
    2b02:	99 27       	eor	r25, r25
    2b04:	87 fd       	sbrc	r24, 7
    2b06:	90 95       	com	r25
    2b08:	8e 9d       	mul	r24, r14
    2b0a:	f0 01       	movw	r30, r0
    2b0c:	8f 9d       	mul	r24, r15
    2b0e:	f0 0d       	add	r31, r0
    2b10:	9e 9d       	mul	r25, r14
    2b12:	f0 0d       	add	r31, r0
    2b14:	11 24       	eor	r1, r1
    2b16:	e7 58       	subi	r30, 0x87	; 135
    2b18:	f8 4f       	sbci	r31, 0xF8	; 248
    2b1a:	81 e0       	ldi	r24, 0x01	; 1
    2b1c:	84 87       	std	Z+12, r24	; 0x0c
	         

			
    return NRK_OK;

}
    2b1e:	df 91       	pop	r29
    2b20:	cf 91       	pop	r28
    2b22:	1f 91       	pop	r17
    2b24:	0f 91       	pop	r16
    2b26:	ff 90       	pop	r15
    2b28:	ef 90       	pop	r14
    2b2a:	df 90       	pop	r13
    2b2c:	cf 90       	pop	r12
    2b2e:	08 95       	ret

00002b30 <nrk_start>:




void nrk_start (void)
{
    2b30:	cf 92       	push	r12
    2b32:	df 92       	push	r13
    2b34:	ef 92       	push	r14
    2b36:	ff 92       	push	r15
    2b38:	0f 93       	push	r16
    2b3a:	1f 93       	push	r17
    2b3c:	df 93       	push	r29
    2b3e:	cf 93       	push	r28
    2b40:	0f 92       	push	r0
    2b42:	cd b7       	in	r28, 0x3d	; 61
    2b44:	de b7       	in	r29, 0x3e	; 62
    2b46:	51 e8       	ldi	r21, 0x81	; 129
    2b48:	e5 2e       	mov	r14, r21
    2b4a:	57 e0       	ldi	r21, 0x07	; 7
    2b4c:	f5 2e       	mov	r15, r21
    2b4e:	90 e0       	ldi	r25, 0x00	; 0
		- set cur prio and start the task 
	*/
    // Check to make sure all tasks unique
    for(i=0; i<NRK_MAX_TASKS; i++ )
    {
	task_ID = nrk_task_TCB[i].task_ID;
    2b50:	f7 01       	movw	r30, r14
    2b52:	00 81       	ld	r16, Z
	// only check activated tasks
	if(task_ID!=-1)
    2b54:	0f 3f       	cpi	r16, 0xFF	; 255
    2b56:	c1 f0       	breq	.+48     	; 0x2b88 <nrk_start+0x58>
    2b58:	41 e8       	ldi	r20, 0x81	; 129
    2b5a:	c4 2e       	mov	r12, r20
    2b5c:	47 e0       	ldi	r20, 0x07	; 7
    2b5e:	d4 2e       	mov	r13, r20
    2b60:	10 e0       	ldi	r17, 0x00	; 0
	{
    		for(j=0; j<NRK_MAX_TASKS; j++ )
		{
			if(i!=j && task_ID==nrk_task_TCB[j].task_ID)
    2b62:	91 17       	cp	r25, r17
    2b64:	51 f0       	breq	.+20     	; 0x2b7a <nrk_start+0x4a>
    2b66:	f6 01       	movw	r30, r12
    2b68:	80 81       	ld	r24, Z
    2b6a:	08 17       	cp	r16, r24
    2b6c:	31 f4       	brne	.+12     	; 0x2b7a <nrk_start+0x4a>
			{
			nrk_kernel_error_add(NRK_DUP_TASK_ID,task_ID);
    2b6e:	85 e0       	ldi	r24, 0x05	; 5
    2b70:	60 2f       	mov	r22, r16
    2b72:	99 83       	std	Y+1, r25	; 0x01
    2b74:	0e 94 3c 1f 	call	0x3e78	; 0x3e78 <nrk_kernel_error_add>
    2b78:	99 81       	ldd	r25, Y+1	; 0x01
    {
	task_ID = nrk_task_TCB[i].task_ID;
	// only check activated tasks
	if(task_ID!=-1)
	{
    		for(j=0; j<NRK_MAX_TASKS; j++ )
    2b7a:	1f 5f       	subi	r17, 0xFF	; 255
    2b7c:	23 e2       	ldi	r18, 0x23	; 35
    2b7e:	30 e0       	ldi	r19, 0x00	; 0
    2b80:	c2 0e       	add	r12, r18
    2b82:	d3 1e       	adc	r13, r19
    2b84:	15 30       	cpi	r17, 0x05	; 5
    2b86:	69 f7       	brne	.-38     	; 0x2b62 <nrk_start+0x32>
	/*
		- Get highest priority task from rdy list
		- set cur prio and start the task 
	*/
    // Check to make sure all tasks unique
    for(i=0; i<NRK_MAX_TASKS; i++ )
    2b88:	9f 5f       	subi	r25, 0xFF	; 255
    2b8a:	e3 e2       	ldi	r30, 0x23	; 35
    2b8c:	f0 e0       	ldi	r31, 0x00	; 0
    2b8e:	ee 0e       	add	r14, r30
    2b90:	ff 1e       	adc	r15, r31
    2b92:	95 30       	cpi	r25, 0x05	; 5
    2b94:	e9 f6       	brne	.-70     	; 0x2b50 <nrk_start+0x20>
		}
	}

    }

    task_ID = nrk_get_high_ready_task_ID();	
    2b96:	0e 94 79 23 	call	0x46f2	; 0x46f2 <nrk_get_high_ready_task_ID>
    nrk_high_ready_prio = nrk_task_TCB[task_ID].task_prio;
    2b9a:	48 2f       	mov	r20, r24
    2b9c:	55 27       	eor	r21, r21
    2b9e:	47 fd       	sbrc	r20, 7
    2ba0:	50 95       	com	r21
    2ba2:	23 e2       	ldi	r18, 0x23	; 35
    2ba4:	30 e0       	ldi	r19, 0x00	; 0
    2ba6:	42 9f       	mul	r20, r18
    2ba8:	f0 01       	movw	r30, r0
    2baa:	43 9f       	mul	r20, r19
    2bac:	f0 0d       	add	r31, r0
    2bae:	52 9f       	mul	r21, r18
    2bb0:	f0 0d       	add	r31, r0
    2bb2:	11 24       	eor	r1, r1
    2bb4:	e7 58       	subi	r30, 0x87	; 135
    2bb6:	f8 4f       	sbci	r31, 0xF8	; 248
    2bb8:	32 85       	ldd	r19, Z+10	; 0x0a
    2bba:	30 93 40 08 	sts	0x0840, r19
    nrk_high_ready_TCB = nrk_cur_task_TCB = &nrk_task_TCB[task_ID];           
    2bbe:	23 e2       	ldi	r18, 0x23	; 35
    2bc0:	82 02       	muls	r24, r18
    2bc2:	c0 01       	movw	r24, r0
    2bc4:	11 24       	eor	r1, r1
    2bc6:	87 58       	subi	r24, 0x87	; 135
    2bc8:	98 4f       	sbci	r25, 0xF8	; 248
    2bca:	90 93 3f 08 	sts	0x083F, r25
    2bce:	80 93 3e 08 	sts	0x083E, r24
    2bd2:	90 93 30 08 	sts	0x0830, r25
    2bd6:	80 93 2f 08 	sts	0x082F, r24
    nrk_cur_task_prio = nrk_high_ready_prio;
    2bda:	30 93 31 08 	sts	0x0831, r19
    
    //TODO: this way on msp
    // *stkc++ = (uint16_t)((uint16_t)_nrk_timer_tick&0xFF);
    // *stkc = (uint16_t)((uint16_t)_nrk_timer_tick>>8); 
*/
    nrk_target_start();
    2bde:	0e 94 6e 30 	call	0x60dc	; 0x60dc <nrk_target_start>
    nrk_stack_pointer_init(); 
    2be2:	0e 94 5f 30 	call	0x60be	; 0x60be <nrk_stack_pointer_init>
    nrk_start_high_ready_task();	
    2be6:	0e 94 c8 3c 	call	0x7990	; 0x7990 <nrk_start_high_ready_task>
    2bea:	ff cf       	rjmp	.-2      	; 0x2bea <nrk_start+0xba>

00002bec <nrk_init>:
 *  - Init global variables
 *  - Init event list
 *  - Create idle task
 */
void nrk_init()
{
    2bec:	0f 93       	push	r16
    2bee:	1f 93       	push	r17
    2bf0:	df 93       	push	r29
    2bf2:	cf 93       	push	r28
    2bf4:	cd b7       	in	r28, 0x3d	; 61
    2bf6:	de b7       	in	r29, 0x3e	; 62
    2bf8:	a4 97       	sbiw	r28, 0x24	; 36
    2bfa:	0f b6       	in	r0, 0x3f	; 63
    2bfc:	f8 94       	cli
    2bfe:	de bf       	out	0x3e, r29	; 62
    2c00:	0f be       	out	0x3f, r0	; 63
    2c02:	cd bf       	out	0x3d, r28	; 61
	
    uint8_t i;	
//    unsigned char *stkc;
	
   nrk_task_type IdleTask;
   nrk_wakeup_signal = nrk_signal_create();
    2c04:	0e 94 81 20 	call	0x4102	; 0x4102 <nrk_signal_create>
    2c08:	80 93 2e 08 	sts	0x082E, r24
   if(nrk_wakeup_signal==NRK_ERROR) nrk_kernel_error_add(NRK_SIGNAL_CREATE_ERROR,0);
    2c0c:	8f 3f       	cpi	r24, 0xFF	; 255
    2c0e:	21 f4       	brne	.+8      	; 0x2c18 <nrk_init+0x2c>
    2c10:	8e e0       	ldi	r24, 0x0E	; 14
    2c12:	60 e0       	ldi	r22, 0x00	; 0
    2c14:	0e 94 3c 1f 	call	0x3e78	; 0x3e78 <nrk_kernel_error_add>
   //if((volatile)TCCR1B!=0) nrk_kernel_error_add(NRK_STACK_OVERFLOW,0); 
#ifndef NRK_SOFT_REBOOT_ON_ERROR
   i=_nrk_startup_error();
    2c18:	0e 94 99 2f 	call	0x5f32	; 0x5f32 <_nrk_startup_error>
   if((i&0x1)!=0) nrk_kernel_error_add(NRK_BAD_STARTUP,0);
    2c1c:	80 ff       	sbrs	r24, 0
    2c1e:	04 c0       	rjmp	.+8      	; 0x2c28 <nrk_init+0x3c>
    2c20:	86 e0       	ldi	r24, 0x06	; 6
    2c22:	60 e0       	ldi	r22, 0x00	; 0
    2c24:	0e 94 3c 1f 	call	0x3e78	; 0x3e78 <nrk_kernel_error_add>
	   }
   #endif
   #endif

   #ifdef NRK_WATCHDOG
    if(nrk_watchdog_check()==NRK_ERROR) 
    2c28:	0e 94 ed 2f 	call	0x5fda	; 0x5fda <nrk_watchdog_check>
    2c2c:	8f 3f       	cpi	r24, 0xFF	; 255
    2c2e:	31 f4       	brne	.+12     	; 0x2c3c <nrk_init+0x50>
	{
    	nrk_watchdog_disable();
    2c30:	0e 94 04 30 	call	0x6008	; 0x6008 <nrk_watchdog_disable>
	nrk_kernel_error_add(NRK_WATCHDOG_ERROR,0);
    2c34:	80 e1       	ldi	r24, 0x10	; 16
    2c36:	60 e0       	ldi	r22, 0x00	; 0
    2c38:	0e 94 3c 1f 	call	0x3e78	; 0x3e78 <nrk_kernel_error_add>
	}
    nrk_watchdog_enable();
    2c3c:	0e 94 f6 2f 	call	0x5fec	; 0x5fec <nrk_watchdog_enable>
*/	
 
   // printf( "Init kernel_entry= %d %d\n",kernel_entry[1], kernel_entry[0] );

    
    nrk_cur_task_prio = 0;
    2c40:	10 92 31 08 	sts	0x0831, r1
    nrk_cur_task_TCB = NULL;
    2c44:	10 92 3f 08 	sts	0x083F, r1
    2c48:	10 92 3e 08 	sts	0x083E, r1
    
    nrk_high_ready_TCB = NULL;
    2c4c:	10 92 30 08 	sts	0x0830, r1
    2c50:	10 92 2f 08 	sts	0x082F, r1
    nrk_high_ready_prio = 0; 
    2c54:	10 92 40 08 	sts	0x0840, r1

   #ifdef NRK_STATS_TRACKER
	nrk_stats_reset();
    2c58:	0e 94 9b 16 	call	0x2d36	; 0x2d36 <nrk_stats_reset>
    #ifdef NRK_MAX_RESERVES 
    // Setup the reserve structures
    _nrk_reserve_init();
    #endif

    _nrk_resource_cnt=0; //NRK_MAX_RESOURCE_CNT;
    2c5c:	10 92 3d 08 	sts	0x083D, r1

for(i=0;i<NRK_MAX_RESOURCE_CNT;i++)
{
    nrk_sem_list[i].count=-1;
    2c60:	8f ef       	ldi	r24, 0xFF	; 255
    2c62:	80 93 2a 08 	sts	0x082A, r24
    nrk_sem_list[i].value=-1;
    2c66:	80 93 2c 08 	sts	0x082C, r24
    nrk_sem_list[i].resource_ceiling=-1;
    2c6a:	80 93 2b 08 	sts	0x082B, r24
    2c6e:	e1 e8       	ldi	r30, 0x81	; 129
    2c70:	f7 e0       	ldi	r31, 0x07	; 7
    //nrk_resource_ceiling[i]=-1;
    
}        
    for (i= 0; i<NRK_MAX_TASKS; i++)
	{
        nrk_task_TCB[i].task_prio = TCB_EMPTY_PRIO;
    2c72:	93 e6       	ldi	r25, 0x63	; 99
    2c74:	92 83       	std	Z+2, r25	; 0x02
        nrk_task_TCB[i].task_ID = -1; 
    2c76:	80 83       	st	Z, r24
    2c78:	b3 96       	adiw	r30, 0x23	; 35
    //nrk_resource_count[i]=-1;
    //nrk_resource_value[i]=-1;
    //nrk_resource_ceiling[i]=-1;
    
}        
    for (i= 0; i<NRK_MAX_TASKS; i++)
    2c7a:	28 e0       	ldi	r18, 0x08	; 8
    2c7c:	e0 33       	cpi	r30, 0x30	; 48
    2c7e:	f2 07       	cpc	r31, r18
    2c80:	c9 f7       	brne	.-14     	; 0x2c74 <nrk_init+0x88>
    2c82:	ea e7       	ldi	r30, 0x7A	; 122
    2c84:	f8 e0       	ldi	r31, 0x08	; 8
 *  - Init global variables
 *  - Init event list
 *  - Create idle task
 */
void nrk_init()
{
    2c86:	cf 01       	movw	r24, r30
    2c88:	05 96       	adiw	r24, 0x05	; 5
  
       
    // Setup a double linked list of Ready Tasks 
    for (i=0;i<NRK_MAX_TASKS;i++)
	{
		_nrk_readyQ[i].Next	=	&_nrk_readyQ[i+1];
    2c8a:	94 83       	std	Z+4, r25	; 0x04
    2c8c:	83 83       	std	Z+3, r24	; 0x03
		_nrk_readyQ[i+1].Prev	=	&_nrk_readyQ[i];
    2c8e:	f7 83       	std	Z+7, r31	; 0x07
    2c90:	e6 83       	std	Z+6, r30	; 0x06
    2c92:	fc 01       	movw	r30, r24
        nrk_task_TCB[i].task_ID = -1; 
        }
  
       
    // Setup a double linked list of Ready Tasks 
    for (i=0;i<NRK_MAX_TASKS;i++)
    2c94:	88 e0       	ldi	r24, 0x08	; 8
    2c96:	e3 39       	cpi	r30, 0x93	; 147
    2c98:	f8 07       	cpc	r31, r24
    2c9a:	a9 f7       	brne	.-22     	; 0x2c86 <nrk_init+0x9a>
	{
		_nrk_readyQ[i].Next	=	&_nrk_readyQ[i+1];
		_nrk_readyQ[i+1].Prev	=	&_nrk_readyQ[i];
	}
	
	_nrk_readyQ[0].Prev	=	NULL;
    2c9c:	10 92 7c 08 	sts	0x087C, r1
    2ca0:	10 92 7b 08 	sts	0x087B, r1
	_nrk_readyQ[NRK_MAX_TASKS].Next	=	NULL;
    2ca4:	14 82       	std	Z+4, r1	; 0x04
    2ca6:	13 82       	std	Z+3, r1	; 0x03
	_head_node = NULL;
    2ca8:	10 92 34 08 	sts	0x0834, r1
    2cac:	10 92 33 08 	sts	0x0833, r1
	_free_node = &_nrk_readyQ[0];
    2cb0:	79 97       	sbiw	r30, 0x19	; 25
    2cb2:	f0 93 78 07 	sts	0x0778, r31
    2cb6:	e0 93 77 07 	sts	0x0777, r30
	
	
	

	nrk_task_set_entry_function( &IdleTask, nrk_idle_task);
    2cba:	8e 01       	movw	r16, r28
    2cbc:	0f 5f       	subi	r16, 0xFF	; 255
    2cbe:	1f 4f       	sbci	r17, 0xFF	; 255
    2cc0:	c8 01       	movw	r24, r16
    2cc2:	6c ef       	ldi	r22, 0xFC	; 252
    2cc4:	79 e2       	ldi	r23, 0x29	; 41
    2cc6:	0e 94 12 30 	call	0x6024	; 0x6024 <nrk_task_set_entry_function>
	nrk_task_set_stk( &IdleTask, nrk_idle_task_stk, NRK_TASK_IDLE_STK_SIZE);
    2cca:	c8 01       	movw	r24, r16
    2ccc:	68 e3       	ldi	r22, 0x38	; 56
    2cce:	76 e0       	ldi	r23, 0x06	; 6
    2cd0:	40 e8       	ldi	r20, 0x80	; 128
    2cd2:	50 e0       	ldi	r21, 0x00	; 0
    2cd4:	0e 94 73 30 	call	0x60e6	; 0x60e6 <nrk_task_set_stk>
	nrk_idle_task_stk[0]=STK_CANARY_VAL;	
    2cd8:	85 e5       	ldi	r24, 0x55	; 85
    2cda:	80 93 38 06 	sts	0x0638, r24
	//IdleTask.task_ID = NRK_IDLE_TASK_ID;
	IdleTask.prio = 0;
    2cde:	19 86       	std	Y+9, r1	; 0x09
	IdleTask.period.secs = 0;
    2ce0:	1c 86       	std	Y+12, r1	; 0x0c
    2ce2:	1d 86       	std	Y+13, r1	; 0x0d
    2ce4:	1e 86       	std	Y+14, r1	; 0x0e
    2ce6:	1f 86       	std	Y+15, r1	; 0x0f
	IdleTask.period.nano_secs = 0;
    2ce8:	18 8a       	std	Y+16, r1	; 0x10
    2cea:	19 8a       	std	Y+17, r1	; 0x11
    2cec:	1a 8a       	std	Y+18, r1	; 0x12
    2cee:	1b 8a       	std	Y+19, r1	; 0x13
	IdleTask.cpu_reserve.secs = 0;
    2cf0:	1c 8a       	std	Y+20, r1	; 0x14
    2cf2:	1d 8a       	std	Y+21, r1	; 0x15
    2cf4:	1e 8a       	std	Y+22, r1	; 0x16
    2cf6:	1f 8a       	std	Y+23, r1	; 0x17
	IdleTask.cpu_reserve.nano_secs = 0;
    2cf8:	18 8e       	std	Y+24, r1	; 0x18
    2cfa:	19 8e       	std	Y+25, r1	; 0x19
    2cfc:	1a 8e       	std	Y+26, r1	; 0x1a
    2cfe:	1b 8e       	std	Y+27, r1	; 0x1b
	IdleTask.offset.secs = 0;
    2d00:	1c 8e       	std	Y+28, r1	; 0x1c
    2d02:	1d 8e       	std	Y+29, r1	; 0x1d
    2d04:	1e 8e       	std	Y+30, r1	; 0x1e
    2d06:	1f 8e       	std	Y+31, r1	; 0x1f
	IdleTask.offset.nano_secs = 0;
    2d08:	18 a2       	std	Y+32, r1	; 0x20
    2d0a:	19 a2       	std	Y+33, r1	; 0x21
    2d0c:	1a a2       	std	Y+34, r1	; 0x22
    2d0e:	1b a2       	std	Y+35, r1	; 0x23
	IdleTask.FirstActivation = TRUE;
    2d10:	91 e0       	ldi	r25, 0x01	; 1
    2d12:	98 87       	std	Y+8, r25	; 0x08
	IdleTask.Type = IDLE_TASK;
    2d14:	82 e0       	ldi	r24, 0x02	; 2
    2d16:	8a 87       	std	Y+10, r24	; 0x0a
	IdleTask.SchType = PREEMPTIVE;
    2d18:	9b 87       	std	Y+11, r25	; 0x0b
	nrk_activate_task(&IdleTask);
    2d1a:	c8 01       	movw	r24, r16
    2d1c:	0e 94 ad 26 	call	0x4d5a	; 0x4d5a <nrk_activate_task>
	
}
    2d20:	a4 96       	adiw	r28, 0x24	; 36
    2d22:	0f b6       	in	r0, 0x3f	; 63
    2d24:	f8 94       	cli
    2d26:	de bf       	out	0x3e, r29	; 62
    2d28:	0f be       	out	0x3f, r0	; 63
    2d2a:	cd bf       	out	0x3d, r28	; 61
    2d2c:	cf 91       	pop	r28
    2d2e:	df 91       	pop	r29
    2d30:	1f 91       	pop	r17
    2d32:	0f 91       	pop	r16
    2d34:	08 95       	ret

00002d36 <nrk_stats_reset>:
#ifdef NRK_STATS_TRACKER
void nrk_stats_reset()
{
    uint8_t i;

    _nrk_stats_sleep_time.secs=0;
    2d36:	10 92 65 04 	sts	0x0465, r1
    2d3a:	10 92 66 04 	sts	0x0466, r1
    2d3e:	10 92 67 04 	sts	0x0467, r1
    2d42:	10 92 68 04 	sts	0x0468, r1
    _nrk_stats_sleep_time.nano_secs=0;
    2d46:	10 92 69 04 	sts	0x0469, r1
    2d4a:	10 92 6a 04 	sts	0x046A, r1
    2d4e:	10 92 6b 04 	sts	0x046B, r1
    2d52:	10 92 6c 04 	sts	0x046C, r1
    2d56:	ed e9       	ldi	r30, 0x9D	; 157
    2d58:	f5 e0       	ldi	r31, 0x05	; 5
    for(i=0; i<NRK_MAX_TASKS; i++ )
    {
        cur_task_stats[i].total_ticks=0;
    2d5a:	10 82       	st	Z, r1
    2d5c:	11 82       	std	Z+1, r1	; 0x01
    2d5e:	12 82       	std	Z+2, r1	; 0x02
    2d60:	13 82       	std	Z+3, r1	; 0x03
        cur_task_stats[i].max_exec_ticks=0;
    2d62:	10 86       	std	Z+8, r1	; 0x08
    2d64:	11 86       	std	Z+9, r1	; 0x09
    2d66:	12 86       	std	Z+10, r1	; 0x0a
    2d68:	13 86       	std	Z+11, r1	; 0x0b
        cur_task_stats[i].min_exec_ticks=0;
    2d6a:	14 82       	std	Z+4, r1	; 0x04
    2d6c:	15 82       	std	Z+5, r1	; 0x05
    2d6e:	16 82       	std	Z+6, r1	; 0x06
    2d70:	17 82       	std	Z+7, r1	; 0x07
        cur_task_stats[i].last_exec_ticks=0;
    2d72:	14 86       	std	Z+12, r1	; 0x0c
    2d74:	15 86       	std	Z+13, r1	; 0x0d
    2d76:	16 86       	std	Z+14, r1	; 0x0e
    2d78:	17 86       	std	Z+15, r1	; 0x0f
        cur_task_stats[i].swapped_in=0;
    2d7a:	10 8a       	std	Z+16, r1	; 0x10
    2d7c:	11 8a       	std	Z+17, r1	; 0x11
    2d7e:	12 8a       	std	Z+18, r1	; 0x12
    2d80:	13 8a       	std	Z+19, r1	; 0x13
        cur_task_stats[i].preempted=0;
    2d82:	10 8e       	std	Z+24, r1	; 0x18
    2d84:	11 8e       	std	Z+25, r1	; 0x19
    2d86:	12 8e       	std	Z+26, r1	; 0x1a
    2d88:	13 8e       	std	Z+27, r1	; 0x1b
        cur_task_stats[i].violations=0;
    2d8a:	14 8e       	std	Z+28, r1	; 0x1c
        cur_task_stats[i].overflow=0;
    2d8c:	15 8e       	std	Z+29, r1	; 0x1d
    2d8e:	7e 96       	adiw	r30, 0x1e	; 30
{
    uint8_t i;

    _nrk_stats_sleep_time.secs=0;
    _nrk_stats_sleep_time.nano_secs=0;
    for(i=0; i<NRK_MAX_TASKS; i++ )
    2d90:	86 e0       	ldi	r24, 0x06	; 6
    2d92:	e3 33       	cpi	r30, 0x33	; 51
    2d94:	f8 07       	cpc	r31, r24
    2d96:	09 f7       	brne	.-62     	; 0x2d5a <nrk_stats_reset+0x24>
        cur_task_stats[i].preempted=0;
        cur_task_stats[i].violations=0;
        cur_task_stats[i].overflow=0;
    }

}
    2d98:	08 95       	ret

00002d9a <nrk_stats_get_deep_sleep>:
    _nrk_stats_sleep_time.nano_secs+=t*NANOS_PER_TICK;
    nrk_time_compact_nanos(&_nrk_stats_sleep_time);
}

void nrk_stats_get_deep_sleep(nrk_time_t *t)
{
    2d9a:	fc 01       	movw	r30, r24
    t->secs=_nrk_stats_sleep_time.secs;
    2d9c:	80 91 65 04 	lds	r24, 0x0465
    2da0:	90 91 66 04 	lds	r25, 0x0466
    2da4:	a0 91 67 04 	lds	r26, 0x0467
    2da8:	b0 91 68 04 	lds	r27, 0x0468
    2dac:	80 83       	st	Z, r24
    2dae:	91 83       	std	Z+1, r25	; 0x01
    2db0:	a2 83       	std	Z+2, r26	; 0x02
    2db2:	b3 83       	std	Z+3, r27	; 0x03
    t->nano_secs=_nrk_stats_sleep_time.nano_secs;
    2db4:	80 91 69 04 	lds	r24, 0x0469
    2db8:	90 91 6a 04 	lds	r25, 0x046A
    2dbc:	a0 91 6b 04 	lds	r26, 0x046B
    2dc0:	b0 91 6c 04 	lds	r27, 0x046C
    2dc4:	84 83       	std	Z+4, r24	; 0x04
    2dc6:	95 83       	std	Z+5, r25	; 0x05
    2dc8:	a6 83       	std	Z+6, r26	; 0x06
    2dca:	b7 83       	std	Z+7, r27	; 0x07
}
    2dcc:	08 95       	ret

00002dce <_nrk_stats_add_violation>:

void _nrk_stats_add_violation(uint8_t task_id)
{
    2dce:	38 2f       	mov	r19, r24
    if( cur_task_stats[task_id].overflow==1) return;
    2dd0:	90 e0       	ldi	r25, 0x00	; 0
    2dd2:	fc 01       	movw	r30, r24
    2dd4:	b5 e0       	ldi	r27, 0x05	; 5
    2dd6:	ee 0f       	add	r30, r30
    2dd8:	ff 1f       	adc	r31, r31
    2dda:	ba 95       	dec	r27
    2ddc:	e1 f7       	brne	.-8      	; 0x2dd6 <_nrk_stats_add_violation+0x8>
    2dde:	88 0f       	add	r24, r24
    2de0:	99 1f       	adc	r25, r25
    2de2:	e8 1b       	sub	r30, r24
    2de4:	f9 0b       	sbc	r31, r25
    2de6:	e3 56       	subi	r30, 0x63	; 99
    2de8:	fa 4f       	sbci	r31, 0xFA	; 250
    2dea:	85 8d       	ldd	r24, Z+29	; 0x1d
    2dec:	81 30       	cpi	r24, 0x01	; 1
    2dee:	89 f1       	breq	.+98     	; 0x2e52 <_nrk_stats_add_violation+0x84>
    cur_task_stats[task_id].violations++;
    2df0:	83 2f       	mov	r24, r19
    2df2:	90 e0       	ldi	r25, 0x00	; 0
    2df4:	fc 01       	movw	r30, r24
    2df6:	75 e0       	ldi	r23, 0x05	; 5
    2df8:	ee 0f       	add	r30, r30
    2dfa:	ff 1f       	adc	r31, r31
    2dfc:	7a 95       	dec	r23
    2dfe:	e1 f7       	brne	.-8      	; 0x2df8 <_nrk_stats_add_violation+0x2a>
    2e00:	88 0f       	add	r24, r24
    2e02:	99 1f       	adc	r25, r25
    2e04:	e8 1b       	sub	r30, r24
    2e06:	f9 0b       	sbc	r31, r25
    2e08:	e3 56       	subi	r30, 0x63	; 99
    2e0a:	fa 4f       	sbci	r31, 0xFA	; 250
    2e0c:	24 8d       	ldd	r18, Z+28	; 0x1c
    2e0e:	2f 5f       	subi	r18, 0xFF	; 255
    2e10:	83 2f       	mov	r24, r19
    2e12:	90 e0       	ldi	r25, 0x00	; 0
    2e14:	fc 01       	movw	r30, r24
    2e16:	55 e0       	ldi	r21, 0x05	; 5
    2e18:	ee 0f       	add	r30, r30
    2e1a:	ff 1f       	adc	r31, r31
    2e1c:	5a 95       	dec	r21
    2e1e:	e1 f7       	brne	.-8      	; 0x2e18 <_nrk_stats_add_violation+0x4a>
    2e20:	88 0f       	add	r24, r24
    2e22:	99 1f       	adc	r25, r25
    2e24:	e8 1b       	sub	r30, r24
    2e26:	f9 0b       	sbc	r31, r25
    2e28:	e3 56       	subi	r30, 0x63	; 99
    2e2a:	fa 4f       	sbci	r31, 0xFA	; 250
    2e2c:	24 8f       	std	Z+28, r18	; 0x1c
    if(cur_task_stats[task_id].violations==255) cur_task_stats[task_id].overflow=1;
    2e2e:	2f 3f       	cpi	r18, 0xFF	; 255
    2e30:	81 f4       	brne	.+32     	; 0x2e52 <_nrk_stats_add_violation+0x84>
    2e32:	83 2f       	mov	r24, r19
    2e34:	90 e0       	ldi	r25, 0x00	; 0
    2e36:	fc 01       	movw	r30, r24
    2e38:	35 e0       	ldi	r19, 0x05	; 5
    2e3a:	ee 0f       	add	r30, r30
    2e3c:	ff 1f       	adc	r31, r31
    2e3e:	3a 95       	dec	r19
    2e40:	e1 f7       	brne	.-8      	; 0x2e3a <_nrk_stats_add_violation+0x6c>
    2e42:	88 0f       	add	r24, r24
    2e44:	99 1f       	adc	r25, r25
    2e46:	e8 1b       	sub	r30, r24
    2e48:	f9 0b       	sbc	r31, r25
    2e4a:	e3 56       	subi	r30, 0x63	; 99
    2e4c:	fa 4f       	sbci	r31, 0xFA	; 250
    2e4e:	81 e0       	ldi	r24, 0x01	; 1
    2e50:	85 8f       	std	Z+29, r24	; 0x1d
    2e52:	08 95       	ret

00002e54 <_nrk_stats_task_start>:
}


// task_id is the PID of the task in question
void _nrk_stats_task_start(uint8_t task_id)
{
    2e54:	68 2f       	mov	r22, r24
    if( cur_task_stats[task_id].overflow==1) return;
    2e56:	90 e0       	ldi	r25, 0x00	; 0
    2e58:	fc 01       	movw	r30, r24
    2e5a:	75 e0       	ldi	r23, 0x05	; 5
    2e5c:	ee 0f       	add	r30, r30
    2e5e:	ff 1f       	adc	r31, r31
    2e60:	7a 95       	dec	r23
    2e62:	e1 f7       	brne	.-8      	; 0x2e5c <_nrk_stats_task_start+0x8>
    2e64:	88 0f       	add	r24, r24
    2e66:	99 1f       	adc	r25, r25
    2e68:	e8 1b       	sub	r30, r24
    2e6a:	f9 0b       	sbc	r31, r25
    2e6c:	e3 56       	subi	r30, 0x63	; 99
    2e6e:	fa 4f       	sbci	r31, 0xFA	; 250
    2e70:	85 8d       	ldd	r24, Z+29	; 0x1d
    2e72:	81 30       	cpi	r24, 0x01	; 1
    2e74:	09 f4       	brne	.+2      	; 0x2e78 <_nrk_stats_task_start+0x24>
    2e76:	4f c0       	rjmp	.+158    	; 0x2f16 <_nrk_stats_task_start+0xc2>
    cur_task_stats[task_id].cur_ticks=0;
    2e78:	86 2f       	mov	r24, r22
    2e7a:	90 e0       	ldi	r25, 0x00	; 0
    2e7c:	fc 01       	movw	r30, r24
    2e7e:	45 e0       	ldi	r20, 0x05	; 5
    2e80:	ee 0f       	add	r30, r30
    2e82:	ff 1f       	adc	r31, r31
    2e84:	4a 95       	dec	r20
    2e86:	e1 f7       	brne	.-8      	; 0x2e80 <_nrk_stats_task_start+0x2c>
    2e88:	88 0f       	add	r24, r24
    2e8a:	99 1f       	adc	r25, r25
    2e8c:	e8 1b       	sub	r30, r24
    2e8e:	f9 0b       	sbc	r31, r25
    2e90:	e3 56       	subi	r30, 0x63	; 99
    2e92:	fa 4f       	sbci	r31, 0xFA	; 250
    2e94:	14 8a       	std	Z+20, r1	; 0x14
    2e96:	15 8a       	std	Z+21, r1	; 0x15
    2e98:	16 8a       	std	Z+22, r1	; 0x16
    2e9a:	17 8a       	std	Z+23, r1	; 0x17
    cur_task_stats[task_id].swapped_in++;
    2e9c:	86 2f       	mov	r24, r22
    2e9e:	90 e0       	ldi	r25, 0x00	; 0
    2ea0:	fc 01       	movw	r30, r24
    2ea2:	25 e0       	ldi	r18, 0x05	; 5
    2ea4:	ee 0f       	add	r30, r30
    2ea6:	ff 1f       	adc	r31, r31
    2ea8:	2a 95       	dec	r18
    2eaa:	e1 f7       	brne	.-8      	; 0x2ea4 <_nrk_stats_task_start+0x50>
    2eac:	88 0f       	add	r24, r24
    2eae:	99 1f       	adc	r25, r25
    2eb0:	e8 1b       	sub	r30, r24
    2eb2:	f9 0b       	sbc	r31, r25
    2eb4:	e3 56       	subi	r30, 0x63	; 99
    2eb6:	fa 4f       	sbci	r31, 0xFA	; 250
    2eb8:	20 89       	ldd	r18, Z+16	; 0x10
    2eba:	31 89       	ldd	r19, Z+17	; 0x11
    2ebc:	42 89       	ldd	r20, Z+18	; 0x12
    2ebe:	53 89       	ldd	r21, Z+19	; 0x13
    2ec0:	2f 5f       	subi	r18, 0xFF	; 255
    2ec2:	3f 4f       	sbci	r19, 0xFF	; 255
    2ec4:	4f 4f       	sbci	r20, 0xFF	; 255
    2ec6:	5f 4f       	sbci	r21, 0xFF	; 255
    2ec8:	86 2f       	mov	r24, r22
    2eca:	90 e0       	ldi	r25, 0x00	; 0
    2ecc:	fc 01       	movw	r30, r24
    2ece:	a5 e0       	ldi	r26, 0x05	; 5
    2ed0:	ee 0f       	add	r30, r30
    2ed2:	ff 1f       	adc	r31, r31
    2ed4:	aa 95       	dec	r26
    2ed6:	e1 f7       	brne	.-8      	; 0x2ed0 <_nrk_stats_task_start+0x7c>
    2ed8:	88 0f       	add	r24, r24
    2eda:	99 1f       	adc	r25, r25
    2edc:	e8 1b       	sub	r30, r24
    2ede:	f9 0b       	sbc	r31, r25
    2ee0:	e3 56       	subi	r30, 0x63	; 99
    2ee2:	fa 4f       	sbci	r31, 0xFA	; 250
    2ee4:	20 8b       	std	Z+16, r18	; 0x10
    2ee6:	31 8b       	std	Z+17, r19	; 0x11
    2ee8:	42 8b       	std	Z+18, r20	; 0x12
    2eea:	53 8b       	std	Z+19, r21	; 0x13
    if(cur_task_stats[task_id].swapped_in==(UINT32_MAX-1)) cur_task_stats[task_id].overflow=1;
    2eec:	2e 5f       	subi	r18, 0xFE	; 254
    2eee:	3f 4f       	sbci	r19, 0xFF	; 255
    2ef0:	4f 4f       	sbci	r20, 0xFF	; 255
    2ef2:	5f 4f       	sbci	r21, 0xFF	; 255
    2ef4:	81 f4       	brne	.+32     	; 0x2f16 <_nrk_stats_task_start+0xc2>
    2ef6:	86 2f       	mov	r24, r22
    2ef8:	90 e0       	ldi	r25, 0x00	; 0
    2efa:	fc 01       	movw	r30, r24
    2efc:	35 e0       	ldi	r19, 0x05	; 5
    2efe:	ee 0f       	add	r30, r30
    2f00:	ff 1f       	adc	r31, r31
    2f02:	3a 95       	dec	r19
    2f04:	e1 f7       	brne	.-8      	; 0x2efe <_nrk_stats_task_start+0xaa>
    2f06:	88 0f       	add	r24, r24
    2f08:	99 1f       	adc	r25, r25
    2f0a:	e8 1b       	sub	r30, r24
    2f0c:	f9 0b       	sbc	r31, r25
    2f0e:	e3 56       	subi	r30, 0x63	; 99
    2f10:	fa 4f       	sbci	r31, 0xFA	; 250
    2f12:	81 e0       	ldi	r24, 0x01	; 1
    2f14:	85 8f       	std	Z+29, r24	; 0x1d
    2f16:	08 95       	ret

00002f18 <_nrk_stats_task_preempted>:
}


void _nrk_stats_task_preempted(uint8_t task_id, uint8_t ticks)
{
    2f18:	1f 93       	push	r17
    2f1a:	18 2f       	mov	r17, r24
    if( cur_task_stats[task_id].overflow==1) return;
    2f1c:	90 e0       	ldi	r25, 0x00	; 0
    2f1e:	fc 01       	movw	r30, r24
    2f20:	a5 e0       	ldi	r26, 0x05	; 5
    2f22:	ee 0f       	add	r30, r30
    2f24:	ff 1f       	adc	r31, r31
    2f26:	aa 95       	dec	r26
    2f28:	e1 f7       	brne	.-8      	; 0x2f22 <_nrk_stats_task_preempted+0xa>
    2f2a:	88 0f       	add	r24, r24
    2f2c:	99 1f       	adc	r25, r25
    2f2e:	e8 1b       	sub	r30, r24
    2f30:	f9 0b       	sbc	r31, r25
    2f32:	e3 56       	subi	r30, 0x63	; 99
    2f34:	fa 4f       	sbci	r31, 0xFA	; 250
    2f36:	85 8d       	ldd	r24, Z+29	; 0x1d
    2f38:	81 30       	cpi	r24, 0x01	; 1
    2f3a:	09 f4       	brne	.+2      	; 0x2f3e <_nrk_stats_task_preempted+0x26>
    2f3c:	a5 c0       	rjmp	.+330    	; 0x3088 <_nrk_stats_task_preempted+0x170>
    cur_task_stats[task_id].preempted++;
    2f3e:	81 2f       	mov	r24, r17
    2f40:	90 e0       	ldi	r25, 0x00	; 0
    2f42:	9c 01       	movw	r18, r24
    2f44:	55 e0       	ldi	r21, 0x05	; 5
    2f46:	22 0f       	add	r18, r18
    2f48:	33 1f       	adc	r19, r19
    2f4a:	5a 95       	dec	r21
    2f4c:	e1 f7       	brne	.-8      	; 0x2f46 <_nrk_stats_task_preempted+0x2e>
    2f4e:	88 0f       	add	r24, r24
    2f50:	99 1f       	adc	r25, r25
    2f52:	28 1b       	sub	r18, r24
    2f54:	39 0b       	sbc	r19, r25
    2f56:	23 56       	subi	r18, 0x63	; 99
    2f58:	3a 4f       	sbci	r19, 0xFA	; 250
    2f5a:	81 2f       	mov	r24, r17
    2f5c:	90 e0       	ldi	r25, 0x00	; 0
    2f5e:	fc 01       	movw	r30, r24
    2f60:	b5 e0       	ldi	r27, 0x05	; 5
    2f62:	ee 0f       	add	r30, r30
    2f64:	ff 1f       	adc	r31, r31
    2f66:	ba 95       	dec	r27
    2f68:	e1 f7       	brne	.-8      	; 0x2f62 <_nrk_stats_task_preempted+0x4a>
    2f6a:	88 0f       	add	r24, r24
    2f6c:	99 1f       	adc	r25, r25
    2f6e:	e8 1b       	sub	r30, r24
    2f70:	f9 0b       	sbc	r31, r25
    2f72:	e3 56       	subi	r30, 0x63	; 99
    2f74:	fa 4f       	sbci	r31, 0xFA	; 250
    2f76:	80 8d       	ldd	r24, Z+24	; 0x18
    2f78:	91 8d       	ldd	r25, Z+25	; 0x19
    2f7a:	a2 8d       	ldd	r26, Z+26	; 0x1a
    2f7c:	b3 8d       	ldd	r27, Z+27	; 0x1b
    2f7e:	01 96       	adiw	r24, 0x01	; 1
    2f80:	a1 1d       	adc	r26, r1
    2f82:	b1 1d       	adc	r27, r1
    2f84:	f9 01       	movw	r30, r18
    2f86:	80 8f       	std	Z+24, r24	; 0x18
    2f88:	91 8f       	std	Z+25, r25	; 0x19
    2f8a:	a2 8f       	std	Z+26, r26	; 0x1a
    2f8c:	b3 8f       	std	Z+27, r27	; 0x1b
    cur_task_stats[task_id].cur_ticks+=ticks;
    2f8e:	46 2f       	mov	r20, r22
    2f90:	50 e0       	ldi	r21, 0x00	; 0
    2f92:	60 e0       	ldi	r22, 0x00	; 0
    2f94:	70 e0       	ldi	r23, 0x00	; 0
    2f96:	81 2f       	mov	r24, r17
    2f98:	90 e0       	ldi	r25, 0x00	; 0
    2f9a:	9c 01       	movw	r18, r24
    2f9c:	f5 e0       	ldi	r31, 0x05	; 5
    2f9e:	22 0f       	add	r18, r18
    2fa0:	33 1f       	adc	r19, r19
    2fa2:	fa 95       	dec	r31
    2fa4:	e1 f7       	brne	.-8      	; 0x2f9e <_nrk_stats_task_preempted+0x86>
    2fa6:	88 0f       	add	r24, r24
    2fa8:	99 1f       	adc	r25, r25
    2faa:	28 1b       	sub	r18, r24
    2fac:	39 0b       	sbc	r19, r25
    2fae:	23 56       	subi	r18, 0x63	; 99
    2fb0:	3a 4f       	sbci	r19, 0xFA	; 250
    2fb2:	81 2f       	mov	r24, r17
    2fb4:	90 e0       	ldi	r25, 0x00	; 0
    2fb6:	fc 01       	movw	r30, r24
    2fb8:	b5 e0       	ldi	r27, 0x05	; 5
    2fba:	ee 0f       	add	r30, r30
    2fbc:	ff 1f       	adc	r31, r31
    2fbe:	ba 95       	dec	r27
    2fc0:	e1 f7       	brne	.-8      	; 0x2fba <_nrk_stats_task_preempted+0xa2>
    2fc2:	88 0f       	add	r24, r24
    2fc4:	99 1f       	adc	r25, r25
    2fc6:	e8 1b       	sub	r30, r24
    2fc8:	f9 0b       	sbc	r31, r25
    2fca:	e3 56       	subi	r30, 0x63	; 99
    2fcc:	fa 4f       	sbci	r31, 0xFA	; 250
    2fce:	84 89       	ldd	r24, Z+20	; 0x14
    2fd0:	95 89       	ldd	r25, Z+21	; 0x15
    2fd2:	a6 89       	ldd	r26, Z+22	; 0x16
    2fd4:	b7 89       	ldd	r27, Z+23	; 0x17
    2fd6:	84 0f       	add	r24, r20
    2fd8:	95 1f       	adc	r25, r21
    2fda:	a6 1f       	adc	r26, r22
    2fdc:	b7 1f       	adc	r27, r23
    2fde:	f9 01       	movw	r30, r18
    2fe0:	84 8b       	std	Z+20, r24	; 0x14
    2fe2:	95 8b       	std	Z+21, r25	; 0x15
    2fe4:	a6 8b       	std	Z+22, r26	; 0x16
    2fe6:	b7 8b       	std	Z+23, r27	; 0x17
    cur_task_stats[task_id].total_ticks+=ticks;
    2fe8:	81 2f       	mov	r24, r17
    2fea:	90 e0       	ldi	r25, 0x00	; 0
    2fec:	9c 01       	movw	r18, r24
    2fee:	f5 e0       	ldi	r31, 0x05	; 5
    2ff0:	22 0f       	add	r18, r18
    2ff2:	33 1f       	adc	r19, r19
    2ff4:	fa 95       	dec	r31
    2ff6:	e1 f7       	brne	.-8      	; 0x2ff0 <_nrk_stats_task_preempted+0xd8>
    2ff8:	88 0f       	add	r24, r24
    2ffa:	99 1f       	adc	r25, r25
    2ffc:	28 1b       	sub	r18, r24
    2ffe:	39 0b       	sbc	r19, r25
    3000:	23 56       	subi	r18, 0x63	; 99
    3002:	3a 4f       	sbci	r19, 0xFA	; 250
    3004:	81 2f       	mov	r24, r17
    3006:	90 e0       	ldi	r25, 0x00	; 0
    3008:	fc 01       	movw	r30, r24
    300a:	b5 e0       	ldi	r27, 0x05	; 5
    300c:	ee 0f       	add	r30, r30
    300e:	ff 1f       	adc	r31, r31
    3010:	ba 95       	dec	r27
    3012:	e1 f7       	brne	.-8      	; 0x300c <_nrk_stats_task_preempted+0xf4>
    3014:	88 0f       	add	r24, r24
    3016:	99 1f       	adc	r25, r25
    3018:	e8 1b       	sub	r30, r24
    301a:	f9 0b       	sbc	r31, r25
    301c:	e3 56       	subi	r30, 0x63	; 99
    301e:	fa 4f       	sbci	r31, 0xFA	; 250
    3020:	80 81       	ld	r24, Z
    3022:	91 81       	ldd	r25, Z+1	; 0x01
    3024:	a2 81       	ldd	r26, Z+2	; 0x02
    3026:	b3 81       	ldd	r27, Z+3	; 0x03
    3028:	48 0f       	add	r20, r24
    302a:	59 1f       	adc	r21, r25
    302c:	6a 1f       	adc	r22, r26
    302e:	7b 1f       	adc	r23, r27
    3030:	f9 01       	movw	r30, r18
    3032:	40 83       	st	Z, r20
    3034:	51 83       	std	Z+1, r21	; 0x01
    3036:	62 83       	std	Z+2, r22	; 0x02
    3038:	73 83       	std	Z+3, r23	; 0x03
    if(cur_task_stats[task_id].preempted==(UINT32_MAX-1)) cur_task_stats[task_id].overflow=1;
    303a:	81 2f       	mov	r24, r17
    303c:	90 e0       	ldi	r25, 0x00	; 0
    303e:	fc 01       	movw	r30, r24
    3040:	35 e0       	ldi	r19, 0x05	; 5
    3042:	ee 0f       	add	r30, r30
    3044:	ff 1f       	adc	r31, r31
    3046:	3a 95       	dec	r19
    3048:	e1 f7       	brne	.-8      	; 0x3042 <_nrk_stats_task_preempted+0x12a>
    304a:	88 0f       	add	r24, r24
    304c:	99 1f       	adc	r25, r25
    304e:	e8 1b       	sub	r30, r24
    3050:	f9 0b       	sbc	r31, r25
    3052:	e3 56       	subi	r30, 0x63	; 99
    3054:	fa 4f       	sbci	r31, 0xFA	; 250
    3056:	80 8d       	ldd	r24, Z+24	; 0x18
    3058:	91 8d       	ldd	r25, Z+25	; 0x19
    305a:	a2 8d       	ldd	r26, Z+26	; 0x1a
    305c:	b3 8d       	ldd	r27, Z+27	; 0x1b
    305e:	8e 5f       	subi	r24, 0xFE	; 254
    3060:	9f 4f       	sbci	r25, 0xFF	; 255
    3062:	af 4f       	sbci	r26, 0xFF	; 255
    3064:	bf 4f       	sbci	r27, 0xFF	; 255
    3066:	81 f4       	brne	.+32     	; 0x3088 <_nrk_stats_task_preempted+0x170>
    3068:	81 2f       	mov	r24, r17
    306a:	90 e0       	ldi	r25, 0x00	; 0
    306c:	fc 01       	movw	r30, r24
    306e:	b5 e0       	ldi	r27, 0x05	; 5
    3070:	ee 0f       	add	r30, r30
    3072:	ff 1f       	adc	r31, r31
    3074:	ba 95       	dec	r27
    3076:	e1 f7       	brne	.-8      	; 0x3070 <_nrk_stats_task_preempted+0x158>
    3078:	88 0f       	add	r24, r24
    307a:	99 1f       	adc	r25, r25
    307c:	e8 1b       	sub	r30, r24
    307e:	f9 0b       	sbc	r31, r25
    3080:	e3 56       	subi	r30, 0x63	; 99
    3082:	fa 4f       	sbci	r31, 0xFA	; 250
    3084:	81 e0       	ldi	r24, 0x01	; 1
    3086:	85 8f       	std	Z+29, r24	; 0x1d
}
    3088:	1f 91       	pop	r17
    308a:	08 95       	ret

0000308c <_nrk_stats_task_suspend>:

void _nrk_stats_task_suspend(uint8_t task_id, uint8_t ticks)
{
    308c:	1f 93       	push	r17
    308e:	18 2f       	mov	r17, r24
    if( cur_task_stats[task_id].overflow==1) return;
    3090:	90 e0       	ldi	r25, 0x00	; 0
    3092:	fc 01       	movw	r30, r24
    3094:	b5 e0       	ldi	r27, 0x05	; 5
    3096:	ee 0f       	add	r30, r30
    3098:	ff 1f       	adc	r31, r31
    309a:	ba 95       	dec	r27
    309c:	e1 f7       	brne	.-8      	; 0x3096 <_nrk_stats_task_suspend+0xa>
    309e:	88 0f       	add	r24, r24
    30a0:	99 1f       	adc	r25, r25
    30a2:	e8 1b       	sub	r30, r24
    30a4:	f9 0b       	sbc	r31, r25
    30a6:	e3 56       	subi	r30, 0x63	; 99
    30a8:	fa 4f       	sbci	r31, 0xFA	; 250
    30aa:	85 8d       	ldd	r24, Z+29	; 0x1d
    30ac:	81 30       	cpi	r24, 0x01	; 1
    30ae:	09 f4       	brne	.+2      	; 0x30b2 <_nrk_stats_task_suspend+0x26>
    30b0:	e4 c0       	rjmp	.+456    	; 0x327a <_nrk_stats_task_suspend+0x1ee>
    cur_task_stats[task_id].last_exec_ticks = cur_task_stats[task_id].cur_ticks+ticks;
    30b2:	46 2f       	mov	r20, r22
    30b4:	50 e0       	ldi	r21, 0x00	; 0
    30b6:	60 e0       	ldi	r22, 0x00	; 0
    30b8:	70 e0       	ldi	r23, 0x00	; 0
    30ba:	81 2f       	mov	r24, r17
    30bc:	90 e0       	ldi	r25, 0x00	; 0
    30be:	9c 01       	movw	r18, r24
    30c0:	f5 e0       	ldi	r31, 0x05	; 5
    30c2:	22 0f       	add	r18, r18
    30c4:	33 1f       	adc	r19, r19
    30c6:	fa 95       	dec	r31
    30c8:	e1 f7       	brne	.-8      	; 0x30c2 <_nrk_stats_task_suspend+0x36>
    30ca:	88 0f       	add	r24, r24
    30cc:	99 1f       	adc	r25, r25
    30ce:	28 1b       	sub	r18, r24
    30d0:	39 0b       	sbc	r19, r25
    30d2:	23 56       	subi	r18, 0x63	; 99
    30d4:	3a 4f       	sbci	r19, 0xFA	; 250
    30d6:	81 2f       	mov	r24, r17
    30d8:	90 e0       	ldi	r25, 0x00	; 0
    30da:	fc 01       	movw	r30, r24
    30dc:	b5 e0       	ldi	r27, 0x05	; 5
    30de:	ee 0f       	add	r30, r30
    30e0:	ff 1f       	adc	r31, r31
    30e2:	ba 95       	dec	r27
    30e4:	e1 f7       	brne	.-8      	; 0x30de <_nrk_stats_task_suspend+0x52>
    30e6:	88 0f       	add	r24, r24
    30e8:	99 1f       	adc	r25, r25
    30ea:	e8 1b       	sub	r30, r24
    30ec:	f9 0b       	sbc	r31, r25
    30ee:	e3 56       	subi	r30, 0x63	; 99
    30f0:	fa 4f       	sbci	r31, 0xFA	; 250
    30f2:	84 89       	ldd	r24, Z+20	; 0x14
    30f4:	95 89       	ldd	r25, Z+21	; 0x15
    30f6:	a6 89       	ldd	r26, Z+22	; 0x16
    30f8:	b7 89       	ldd	r27, Z+23	; 0x17
    30fa:	84 0f       	add	r24, r20
    30fc:	95 1f       	adc	r25, r21
    30fe:	a6 1f       	adc	r26, r22
    3100:	b7 1f       	adc	r27, r23
    3102:	f9 01       	movw	r30, r18
    3104:	84 87       	std	Z+12, r24	; 0x0c
    3106:	95 87       	std	Z+13, r25	; 0x0d
    3108:	a6 87       	std	Z+14, r26	; 0x0e
    310a:	b7 87       	std	Z+15, r27	; 0x0f
    cur_task_stats[task_id].total_ticks+=ticks;
    310c:	81 2f       	mov	r24, r17
    310e:	90 e0       	ldi	r25, 0x00	; 0
    3110:	9c 01       	movw	r18, r24
    3112:	f5 e0       	ldi	r31, 0x05	; 5
    3114:	22 0f       	add	r18, r18
    3116:	33 1f       	adc	r19, r19
    3118:	fa 95       	dec	r31
    311a:	e1 f7       	brne	.-8      	; 0x3114 <_nrk_stats_task_suspend+0x88>
    311c:	88 0f       	add	r24, r24
    311e:	99 1f       	adc	r25, r25
    3120:	28 1b       	sub	r18, r24
    3122:	39 0b       	sbc	r19, r25
    3124:	23 56       	subi	r18, 0x63	; 99
    3126:	3a 4f       	sbci	r19, 0xFA	; 250
    3128:	81 2f       	mov	r24, r17
    312a:	90 e0       	ldi	r25, 0x00	; 0
    312c:	fc 01       	movw	r30, r24
    312e:	b5 e0       	ldi	r27, 0x05	; 5
    3130:	ee 0f       	add	r30, r30
    3132:	ff 1f       	adc	r31, r31
    3134:	ba 95       	dec	r27
    3136:	e1 f7       	brne	.-8      	; 0x3130 <_nrk_stats_task_suspend+0xa4>
    3138:	88 0f       	add	r24, r24
    313a:	99 1f       	adc	r25, r25
    313c:	e8 1b       	sub	r30, r24
    313e:	f9 0b       	sbc	r31, r25
    3140:	e3 56       	subi	r30, 0x63	; 99
    3142:	fa 4f       	sbci	r31, 0xFA	; 250
    3144:	80 81       	ld	r24, Z
    3146:	91 81       	ldd	r25, Z+1	; 0x01
    3148:	a2 81       	ldd	r26, Z+2	; 0x02
    314a:	b3 81       	ldd	r27, Z+3	; 0x03
    314c:	48 0f       	add	r20, r24
    314e:	59 1f       	adc	r21, r25
    3150:	6a 1f       	adc	r22, r26
    3152:	7b 1f       	adc	r23, r27
    3154:	f9 01       	movw	r30, r18
    3156:	40 83       	st	Z, r20
    3158:	51 83       	std	Z+1, r21	; 0x01
    315a:	62 83       	std	Z+2, r22	; 0x02
    315c:	73 83       	std	Z+3, r23	; 0x03

    if(cur_task_stats[task_id].min_exec_ticks==0 || cur_task_stats[task_id].last_exec_ticks<cur_task_stats[task_id].min_exec_ticks)
    315e:	81 2f       	mov	r24, r17
    3160:	90 e0       	ldi	r25, 0x00	; 0
    3162:	fc 01       	movw	r30, r24
    3164:	35 e0       	ldi	r19, 0x05	; 5
    3166:	ee 0f       	add	r30, r30
    3168:	ff 1f       	adc	r31, r31
    316a:	3a 95       	dec	r19
    316c:	e1 f7       	brne	.-8      	; 0x3166 <_nrk_stats_task_suspend+0xda>
    316e:	88 0f       	add	r24, r24
    3170:	99 1f       	adc	r25, r25
    3172:	e8 1b       	sub	r30, r24
    3174:	f9 0b       	sbc	r31, r25
    3176:	e3 56       	subi	r30, 0x63	; 99
    3178:	fa 4f       	sbci	r31, 0xFA	; 250
    317a:	24 81       	ldd	r18, Z+4	; 0x04
    317c:	35 81       	ldd	r19, Z+5	; 0x05
    317e:	46 81       	ldd	r20, Z+6	; 0x06
    3180:	57 81       	ldd	r21, Z+7	; 0x07
    3182:	21 15       	cp	r18, r1
    3184:	31 05       	cpc	r19, r1
    3186:	41 05       	cpc	r20, r1
    3188:	51 05       	cpc	r21, r1
    318a:	b9 f0       	breq	.+46     	; 0x31ba <_nrk_stats_task_suspend+0x12e>
    318c:	81 2f       	mov	r24, r17
    318e:	90 e0       	ldi	r25, 0x00	; 0
    3190:	fc 01       	movw	r30, r24
    3192:	b5 e0       	ldi	r27, 0x05	; 5
    3194:	ee 0f       	add	r30, r30
    3196:	ff 1f       	adc	r31, r31
    3198:	ba 95       	dec	r27
    319a:	e1 f7       	brne	.-8      	; 0x3194 <_nrk_stats_task_suspend+0x108>
    319c:	88 0f       	add	r24, r24
    319e:	99 1f       	adc	r25, r25
    31a0:	e8 1b       	sub	r30, r24
    31a2:	f9 0b       	sbc	r31, r25
    31a4:	e3 56       	subi	r30, 0x63	; 99
    31a6:	fa 4f       	sbci	r31, 0xFA	; 250
    31a8:	84 85       	ldd	r24, Z+12	; 0x0c
    31aa:	95 85       	ldd	r25, Z+13	; 0x0d
    31ac:	a6 85       	ldd	r26, Z+14	; 0x0e
    31ae:	b7 85       	ldd	r27, Z+15	; 0x0f
    31b0:	82 17       	cp	r24, r18
    31b2:	93 07       	cpc	r25, r19
    31b4:	a4 07       	cpc	r26, r20
    31b6:	b5 07       	cpc	r27, r21
    31b8:	28 f5       	brcc	.+74     	; 0x3204 <_nrk_stats_task_suspend+0x178>
        cur_task_stats[task_id].min_exec_ticks=cur_task_stats[task_id].last_exec_ticks;
    31ba:	81 2f       	mov	r24, r17
    31bc:	90 e0       	ldi	r25, 0x00	; 0
    31be:	9c 01       	movw	r18, r24
    31c0:	75 e0       	ldi	r23, 0x05	; 5
    31c2:	22 0f       	add	r18, r18
    31c4:	33 1f       	adc	r19, r19
    31c6:	7a 95       	dec	r23
    31c8:	e1 f7       	brne	.-8      	; 0x31c2 <_nrk_stats_task_suspend+0x136>
    31ca:	88 0f       	add	r24, r24
    31cc:	99 1f       	adc	r25, r25
    31ce:	28 1b       	sub	r18, r24
    31d0:	39 0b       	sbc	r19, r25
    31d2:	23 56       	subi	r18, 0x63	; 99
    31d4:	3a 4f       	sbci	r19, 0xFA	; 250
    31d6:	81 2f       	mov	r24, r17
    31d8:	90 e0       	ldi	r25, 0x00	; 0
    31da:	fc 01       	movw	r30, r24
    31dc:	55 e0       	ldi	r21, 0x05	; 5
    31de:	ee 0f       	add	r30, r30
    31e0:	ff 1f       	adc	r31, r31
    31e2:	5a 95       	dec	r21
    31e4:	e1 f7       	brne	.-8      	; 0x31de <_nrk_stats_task_suspend+0x152>
    31e6:	88 0f       	add	r24, r24
    31e8:	99 1f       	adc	r25, r25
    31ea:	e8 1b       	sub	r30, r24
    31ec:	f9 0b       	sbc	r31, r25
    31ee:	e3 56       	subi	r30, 0x63	; 99
    31f0:	fa 4f       	sbci	r31, 0xFA	; 250
    31f2:	84 85       	ldd	r24, Z+12	; 0x0c
    31f4:	95 85       	ldd	r25, Z+13	; 0x0d
    31f6:	a6 85       	ldd	r26, Z+14	; 0x0e
    31f8:	b7 85       	ldd	r27, Z+15	; 0x0f
    31fa:	f9 01       	movw	r30, r18
    31fc:	84 83       	std	Z+4, r24	; 0x04
    31fe:	95 83       	std	Z+5, r25	; 0x05
    3200:	a6 83       	std	Z+6, r26	; 0x06
    3202:	b7 83       	std	Z+7, r27	; 0x07

    if(cur_task_stats[task_id].last_exec_ticks>cur_task_stats[task_id].max_exec_ticks)
    3204:	81 2f       	mov	r24, r17
    3206:	90 e0       	ldi	r25, 0x00	; 0
    3208:	fc 01       	movw	r30, r24
    320a:	b5 e0       	ldi	r27, 0x05	; 5
    320c:	ee 0f       	add	r30, r30
    320e:	ff 1f       	adc	r31, r31
    3210:	ba 95       	dec	r27
    3212:	e1 f7       	brne	.-8      	; 0x320c <_nrk_stats_task_suspend+0x180>
    3214:	88 0f       	add	r24, r24
    3216:	99 1f       	adc	r25, r25
    3218:	e8 1b       	sub	r30, r24
    321a:	f9 0b       	sbc	r31, r25
    321c:	e3 56       	subi	r30, 0x63	; 99
    321e:	fa 4f       	sbci	r31, 0xFA	; 250
    3220:	24 85       	ldd	r18, Z+12	; 0x0c
    3222:	35 85       	ldd	r19, Z+13	; 0x0d
    3224:	46 85       	ldd	r20, Z+14	; 0x0e
    3226:	57 85       	ldd	r21, Z+15	; 0x0f
    3228:	81 2f       	mov	r24, r17
    322a:	90 e0       	ldi	r25, 0x00	; 0
    322c:	fc 01       	movw	r30, r24
    322e:	75 e0       	ldi	r23, 0x05	; 5
    3230:	ee 0f       	add	r30, r30
    3232:	ff 1f       	adc	r31, r31
    3234:	7a 95       	dec	r23
    3236:	e1 f7       	brne	.-8      	; 0x3230 <_nrk_stats_task_suspend+0x1a4>
    3238:	88 0f       	add	r24, r24
    323a:	99 1f       	adc	r25, r25
    323c:	e8 1b       	sub	r30, r24
    323e:	f9 0b       	sbc	r31, r25
    3240:	e3 56       	subi	r30, 0x63	; 99
    3242:	fa 4f       	sbci	r31, 0xFA	; 250
    3244:	80 85       	ldd	r24, Z+8	; 0x08
    3246:	91 85       	ldd	r25, Z+9	; 0x09
    3248:	a2 85       	ldd	r26, Z+10	; 0x0a
    324a:	b3 85       	ldd	r27, Z+11	; 0x0b
    324c:	82 17       	cp	r24, r18
    324e:	93 07       	cpc	r25, r19
    3250:	a4 07       	cpc	r26, r20
    3252:	b5 07       	cpc	r27, r21
    3254:	90 f4       	brcc	.+36     	; 0x327a <_nrk_stats_task_suspend+0x1ee>
        cur_task_stats[task_id].max_exec_ticks=cur_task_stats[task_id].last_exec_ticks;
    3256:	81 2f       	mov	r24, r17
    3258:	90 e0       	ldi	r25, 0x00	; 0
    325a:	fc 01       	movw	r30, r24
    325c:	15 e0       	ldi	r17, 0x05	; 5
    325e:	ee 0f       	add	r30, r30
    3260:	ff 1f       	adc	r31, r31
    3262:	1a 95       	dec	r17
    3264:	e1 f7       	brne	.-8      	; 0x325e <_nrk_stats_task_suspend+0x1d2>
    3266:	88 0f       	add	r24, r24
    3268:	99 1f       	adc	r25, r25
    326a:	e8 1b       	sub	r30, r24
    326c:	f9 0b       	sbc	r31, r25
    326e:	e3 56       	subi	r30, 0x63	; 99
    3270:	fa 4f       	sbci	r31, 0xFA	; 250
    3272:	20 87       	std	Z+8, r18	; 0x08
    3274:	31 87       	std	Z+9, r19	; 0x09
    3276:	42 87       	std	Z+10, r20	; 0x0a
    3278:	53 87       	std	Z+11, r21	; 0x0b

}
    327a:	1f 91       	pop	r17
    327c:	08 95       	ret

0000327e <nrk_stats_get>:
        nrk_stats_display_pid(i);
}


int8_t nrk_stats_get(uint8_t pid, nrk_task_stat_t *t)
{
    327e:	cf 93       	push	r28
    3280:	df 93       	push	r29
    3282:	28 2f       	mov	r18, r24
    3284:	eb 01       	movw	r28, r22
    if(pid>=NRK_MAX_TASKS) return NRK_ERROR;
    3286:	85 30       	cpi	r24, 0x05	; 5
    3288:	10 f0       	brcs	.+4      	; 0x328e <nrk_stats_get+0x10>
    328a:	8f ef       	ldi	r24, 0xFF	; 255
    328c:	ba c0       	rjmp	.+372    	; 0x3402 <nrk_stats_get+0x184>

    t->total_ticks=cur_task_stats[pid].total_ticks;
    328e:	90 e0       	ldi	r25, 0x00	; 0
    3290:	fc 01       	movw	r30, r24
    3292:	55 e0       	ldi	r21, 0x05	; 5
    3294:	ee 0f       	add	r30, r30
    3296:	ff 1f       	adc	r31, r31
    3298:	5a 95       	dec	r21
    329a:	e1 f7       	brne	.-8      	; 0x3294 <nrk_stats_get+0x16>
    329c:	88 0f       	add	r24, r24
    329e:	99 1f       	adc	r25, r25
    32a0:	e8 1b       	sub	r30, r24
    32a2:	f9 0b       	sbc	r31, r25
    32a4:	e3 56       	subi	r30, 0x63	; 99
    32a6:	fa 4f       	sbci	r31, 0xFA	; 250
    32a8:	80 81       	ld	r24, Z
    32aa:	91 81       	ldd	r25, Z+1	; 0x01
    32ac:	a2 81       	ldd	r26, Z+2	; 0x02
    32ae:	b3 81       	ldd	r27, Z+3	; 0x03
    32b0:	88 83       	st	Y, r24
    32b2:	99 83       	std	Y+1, r25	; 0x01
    32b4:	aa 83       	std	Y+2, r26	; 0x02
    32b6:	bb 83       	std	Y+3, r27	; 0x03
    t->min_exec_ticks=cur_task_stats[pid].min_exec_ticks;
    32b8:	82 2f       	mov	r24, r18
    32ba:	90 e0       	ldi	r25, 0x00	; 0
    32bc:	fc 01       	movw	r30, r24
    32be:	35 e0       	ldi	r19, 0x05	; 5
    32c0:	ee 0f       	add	r30, r30
    32c2:	ff 1f       	adc	r31, r31
    32c4:	3a 95       	dec	r19
    32c6:	e1 f7       	brne	.-8      	; 0x32c0 <nrk_stats_get+0x42>
    32c8:	88 0f       	add	r24, r24
    32ca:	99 1f       	adc	r25, r25
    32cc:	e8 1b       	sub	r30, r24
    32ce:	f9 0b       	sbc	r31, r25
    32d0:	e3 56       	subi	r30, 0x63	; 99
    32d2:	fa 4f       	sbci	r31, 0xFA	; 250
    32d4:	84 81       	ldd	r24, Z+4	; 0x04
    32d6:	95 81       	ldd	r25, Z+5	; 0x05
    32d8:	a6 81       	ldd	r26, Z+6	; 0x06
    32da:	b7 81       	ldd	r27, Z+7	; 0x07
    32dc:	8c 83       	std	Y+4, r24	; 0x04
    32de:	9d 83       	std	Y+5, r25	; 0x05
    32e0:	ae 83       	std	Y+6, r26	; 0x06
    32e2:	bf 83       	std	Y+7, r27	; 0x07
    t->max_exec_ticks=cur_task_stats[pid].max_exec_ticks;
    32e4:	82 2f       	mov	r24, r18
    32e6:	90 e0       	ldi	r25, 0x00	; 0
    32e8:	fc 01       	movw	r30, r24
    32ea:	a5 e0       	ldi	r26, 0x05	; 5
    32ec:	ee 0f       	add	r30, r30
    32ee:	ff 1f       	adc	r31, r31
    32f0:	aa 95       	dec	r26
    32f2:	e1 f7       	brne	.-8      	; 0x32ec <nrk_stats_get+0x6e>
    32f4:	88 0f       	add	r24, r24
    32f6:	99 1f       	adc	r25, r25
    32f8:	e8 1b       	sub	r30, r24
    32fa:	f9 0b       	sbc	r31, r25
    32fc:	e3 56       	subi	r30, 0x63	; 99
    32fe:	fa 4f       	sbci	r31, 0xFA	; 250
    3300:	80 85       	ldd	r24, Z+8	; 0x08
    3302:	91 85       	ldd	r25, Z+9	; 0x09
    3304:	a2 85       	ldd	r26, Z+10	; 0x0a
    3306:	b3 85       	ldd	r27, Z+11	; 0x0b
    3308:	88 87       	std	Y+8, r24	; 0x08
    330a:	99 87       	std	Y+9, r25	; 0x09
    330c:	aa 87       	std	Y+10, r26	; 0x0a
    330e:	bb 87       	std	Y+11, r27	; 0x0b
    t->last_exec_ticks=cur_task_stats[pid].last_exec_ticks;
    3310:	82 2f       	mov	r24, r18
    3312:	90 e0       	ldi	r25, 0x00	; 0
    3314:	fc 01       	movw	r30, r24
    3316:	65 e0       	ldi	r22, 0x05	; 5
    3318:	ee 0f       	add	r30, r30
    331a:	ff 1f       	adc	r31, r31
    331c:	6a 95       	dec	r22
    331e:	e1 f7       	brne	.-8      	; 0x3318 <nrk_stats_get+0x9a>
    3320:	88 0f       	add	r24, r24
    3322:	99 1f       	adc	r25, r25
    3324:	e8 1b       	sub	r30, r24
    3326:	f9 0b       	sbc	r31, r25
    3328:	e3 56       	subi	r30, 0x63	; 99
    332a:	fa 4f       	sbci	r31, 0xFA	; 250
    332c:	84 85       	ldd	r24, Z+12	; 0x0c
    332e:	95 85       	ldd	r25, Z+13	; 0x0d
    3330:	a6 85       	ldd	r26, Z+14	; 0x0e
    3332:	b7 85       	ldd	r27, Z+15	; 0x0f
    3334:	8c 87       	std	Y+12, r24	; 0x0c
    3336:	9d 87       	std	Y+13, r25	; 0x0d
    3338:	ae 87       	std	Y+14, r26	; 0x0e
    333a:	bf 87       	std	Y+15, r27	; 0x0f
    t->swapped_in=cur_task_stats[pid].swapped_in;
    333c:	82 2f       	mov	r24, r18
    333e:	90 e0       	ldi	r25, 0x00	; 0
    3340:	fc 01       	movw	r30, r24
    3342:	45 e0       	ldi	r20, 0x05	; 5
    3344:	ee 0f       	add	r30, r30
    3346:	ff 1f       	adc	r31, r31
    3348:	4a 95       	dec	r20
    334a:	e1 f7       	brne	.-8      	; 0x3344 <nrk_stats_get+0xc6>
    334c:	88 0f       	add	r24, r24
    334e:	99 1f       	adc	r25, r25
    3350:	e8 1b       	sub	r30, r24
    3352:	f9 0b       	sbc	r31, r25
    3354:	e3 56       	subi	r30, 0x63	; 99
    3356:	fa 4f       	sbci	r31, 0xFA	; 250
    3358:	80 89       	ldd	r24, Z+16	; 0x10
    335a:	91 89       	ldd	r25, Z+17	; 0x11
    335c:	a2 89       	ldd	r26, Z+18	; 0x12
    335e:	b3 89       	ldd	r27, Z+19	; 0x13
    3360:	88 8b       	std	Y+16, r24	; 0x10
    3362:	99 8b       	std	Y+17, r25	; 0x11
    3364:	aa 8b       	std	Y+18, r26	; 0x12
    3366:	bb 8b       	std	Y+19, r27	; 0x13
    t->cur_ticks=cur_task_stats[pid].cur_ticks;
    3368:	82 2f       	mov	r24, r18
    336a:	90 e0       	ldi	r25, 0x00	; 0
    336c:	fc 01       	movw	r30, r24
    336e:	b5 e0       	ldi	r27, 0x05	; 5
    3370:	ee 0f       	add	r30, r30
    3372:	ff 1f       	adc	r31, r31
    3374:	ba 95       	dec	r27
    3376:	e1 f7       	brne	.-8      	; 0x3370 <nrk_stats_get+0xf2>
    3378:	88 0f       	add	r24, r24
    337a:	99 1f       	adc	r25, r25
    337c:	e8 1b       	sub	r30, r24
    337e:	f9 0b       	sbc	r31, r25
    3380:	e3 56       	subi	r30, 0x63	; 99
    3382:	fa 4f       	sbci	r31, 0xFA	; 250
    3384:	84 89       	ldd	r24, Z+20	; 0x14
    3386:	95 89       	ldd	r25, Z+21	; 0x15
    3388:	a6 89       	ldd	r26, Z+22	; 0x16
    338a:	b7 89       	ldd	r27, Z+23	; 0x17
    338c:	8c 8b       	std	Y+20, r24	; 0x14
    338e:	9d 8b       	std	Y+21, r25	; 0x15
    3390:	ae 8b       	std	Y+22, r26	; 0x16
    3392:	bf 8b       	std	Y+23, r27	; 0x17
    t->preempted=cur_task_stats[pid].preempted;
    3394:	82 2f       	mov	r24, r18
    3396:	90 e0       	ldi	r25, 0x00	; 0
    3398:	fc 01       	movw	r30, r24
    339a:	75 e0       	ldi	r23, 0x05	; 5
    339c:	ee 0f       	add	r30, r30
    339e:	ff 1f       	adc	r31, r31
    33a0:	7a 95       	dec	r23
    33a2:	e1 f7       	brne	.-8      	; 0x339c <nrk_stats_get+0x11e>
    33a4:	88 0f       	add	r24, r24
    33a6:	99 1f       	adc	r25, r25
    33a8:	e8 1b       	sub	r30, r24
    33aa:	f9 0b       	sbc	r31, r25
    33ac:	e3 56       	subi	r30, 0x63	; 99
    33ae:	fa 4f       	sbci	r31, 0xFA	; 250
    33b0:	80 8d       	ldd	r24, Z+24	; 0x18
    33b2:	91 8d       	ldd	r25, Z+25	; 0x19
    33b4:	a2 8d       	ldd	r26, Z+26	; 0x1a
    33b6:	b3 8d       	ldd	r27, Z+27	; 0x1b
    33b8:	88 8f       	std	Y+24, r24	; 0x18
    33ba:	99 8f       	std	Y+25, r25	; 0x19
    33bc:	aa 8f       	std	Y+26, r26	; 0x1a
    33be:	bb 8f       	std	Y+27, r27	; 0x1b
    t->violations=cur_task_stats[pid].violations;
    33c0:	82 2f       	mov	r24, r18
    33c2:	90 e0       	ldi	r25, 0x00	; 0
    33c4:	fc 01       	movw	r30, r24
    33c6:	55 e0       	ldi	r21, 0x05	; 5
    33c8:	ee 0f       	add	r30, r30
    33ca:	ff 1f       	adc	r31, r31
    33cc:	5a 95       	dec	r21
    33ce:	e1 f7       	brne	.-8      	; 0x33c8 <nrk_stats_get+0x14a>
    33d0:	88 0f       	add	r24, r24
    33d2:	99 1f       	adc	r25, r25
    33d4:	e8 1b       	sub	r30, r24
    33d6:	f9 0b       	sbc	r31, r25
    33d8:	e3 56       	subi	r30, 0x63	; 99
    33da:	fa 4f       	sbci	r31, 0xFA	; 250
    33dc:	84 8d       	ldd	r24, Z+28	; 0x1c
    33de:	8c 8f       	std	Y+28, r24	; 0x1c
    t->overflow=cur_task_stats[pid].overflow;
    33e0:	82 2f       	mov	r24, r18
    33e2:	90 e0       	ldi	r25, 0x00	; 0
    33e4:	fc 01       	movw	r30, r24
    33e6:	35 e0       	ldi	r19, 0x05	; 5
    33e8:	ee 0f       	add	r30, r30
    33ea:	ff 1f       	adc	r31, r31
    33ec:	3a 95       	dec	r19
    33ee:	e1 f7       	brne	.-8      	; 0x33e8 <nrk_stats_get+0x16a>
    33f0:	88 0f       	add	r24, r24
    33f2:	99 1f       	adc	r25, r25
    33f4:	e8 1b       	sub	r30, r24
    33f6:	f9 0b       	sbc	r31, r25
    33f8:	e3 56       	subi	r30, 0x63	; 99
    33fa:	fa 4f       	sbci	r31, 0xFA	; 250
    33fc:	85 8d       	ldd	r24, Z+29	; 0x1d
    33fe:	8d 8f       	std	Y+29, r24	; 0x1d
    3400:	81 e0       	ldi	r24, 0x01	; 1

    return NRK_OK;
}
    3402:	df 91       	pop	r29
    3404:	cf 91       	pop	r28
    3406:	08 95       	ret

00003408 <nrk_stats_display_pid>:
}



void nrk_stats_display_pid(uint8_t pid)
{
    3408:	df 92       	push	r13
    340a:	ef 92       	push	r14
    340c:	ff 92       	push	r15
    340e:	0f 93       	push	r16
    3410:	1f 93       	push	r17
    3412:	df 93       	push	r29
    3414:	cf 93       	push	r28
    3416:	cd b7       	in	r28, 0x3d	; 61
    3418:	de b7       	in	r29, 0x3e	; 62
    341a:	60 97       	sbiw	r28, 0x10	; 16
    341c:	0f b6       	in	r0, 0x3f	; 63
    341e:	f8 94       	cli
    3420:	de bf       	out	0x3e, r29	; 62
    3422:	0f be       	out	0x3f, r0	; 63
    3424:	cd bf       	out	0x3d, r28	; 61
    3426:	d8 2e       	mov	r13, r24
    nrk_time_t t;

    nrk_kprintf( PSTR( " Task ID: "));
    3428:	8b e1       	ldi	r24, 0x1B	; 27
    342a:	92 e0       	ldi	r25, 0x02	; 2
    342c:	0e 94 a9 13 	call	0x2752	; 0x2752 <nrk_kprintf>
    printf( "%d",pid );
    3430:	00 d0       	rcall	.+0      	; 0x3432 <nrk_stats_display_pid+0x2a>
    3432:	00 d0       	rcall	.+0      	; 0x3434 <nrk_stats_display_pid+0x2c>
    3434:	ed b7       	in	r30, 0x3d	; 61
    3436:	fe b7       	in	r31, 0x3e	; 62
    3438:	31 96       	adiw	r30, 0x01	; 1
    343a:	83 ef       	ldi	r24, 0xF3	; 243
    343c:	91 e0       	ldi	r25, 0x01	; 1
    343e:	ad b7       	in	r26, 0x3d	; 61
    3440:	be b7       	in	r27, 0x3e	; 62
    3442:	12 96       	adiw	r26, 0x02	; 2
    3444:	9c 93       	st	X, r25
    3446:	8e 93       	st	-X, r24
    3448:	11 97       	sbiw	r26, 0x01	; 1
    344a:	d2 82       	std	Z+2, r13	; 0x02
    344c:	13 82       	std	Z+3, r1	; 0x03
    344e:	0e 94 c3 4c 	call	0x9986	; 0x9986 <printf>
    if(pid==NRK_IDLE_TASK_ID)
    3452:	0f 90       	pop	r0
    3454:	0f 90       	pop	r0
    3456:	0f 90       	pop	r0
    3458:	0f 90       	pop	r0
    345a:	dd 20       	and	r13, r13
    345c:	09 f0       	breq	.+2      	; 0x3460 <nrk_stats_display_pid+0x58>
    345e:	80 c0       	rjmp	.+256    	; 0x3560 <nrk_stats_display_pid+0x158>
    {
        nrk_kprintf( PSTR( "\r\n   Total System Uptime: "));
    3460:	80 e0       	ldi	r24, 0x00	; 0
    3462:	92 e0       	ldi	r25, 0x02	; 2
    3464:	0e 94 a9 13 	call	0x2752	; 0x2752 <nrk_kprintf>
        nrk_time_get(&t);
    3468:	ce 01       	movw	r24, r28
    346a:	01 96       	adiw	r24, 0x01	; 1
    346c:	0e 94 9d 29 	call	0x533a	; 0x533a <nrk_time_get>
        printf( "%lu secs %lu ms", t.secs, t.nano_secs/NANOS_PER_MS );
    3470:	ed b7       	in	r30, 0x3d	; 61
    3472:	fe b7       	in	r31, 0x3e	; 62
    3474:	3a 97       	sbiw	r30, 0x0a	; 10
    3476:	0f b6       	in	r0, 0x3f	; 63
    3478:	f8 94       	cli
    347a:	fe bf       	out	0x3e, r31	; 62
    347c:	0f be       	out	0x3f, r0	; 63
    347e:	ed bf       	out	0x3d, r30	; 61
    3480:	0d b7       	in	r16, 0x3d	; 61
    3482:	1e b7       	in	r17, 0x3e	; 62
    3484:	0f 5f       	subi	r16, 0xFF	; 255
    3486:	1f 4f       	sbci	r17, 0xFF	; 255
    3488:	66 ef       	ldi	r22, 0xF6	; 246
    348a:	e6 2e       	mov	r14, r22
    348c:	61 e0       	ldi	r22, 0x01	; 1
    348e:	f6 2e       	mov	r15, r22
    3490:	f2 82       	std	Z+2, r15	; 0x02
    3492:	e1 82       	std	Z+1, r14	; 0x01
    3494:	89 81       	ldd	r24, Y+1	; 0x01
    3496:	9a 81       	ldd	r25, Y+2	; 0x02
    3498:	ab 81       	ldd	r26, Y+3	; 0x03
    349a:	bc 81       	ldd	r27, Y+4	; 0x04
    349c:	f8 01       	movw	r30, r16
    349e:	82 83       	std	Z+2, r24	; 0x02
    34a0:	93 83       	std	Z+3, r25	; 0x03
    34a2:	a4 83       	std	Z+4, r26	; 0x04
    34a4:	b5 83       	std	Z+5, r27	; 0x05
    34a6:	6d 81       	ldd	r22, Y+5	; 0x05
    34a8:	7e 81       	ldd	r23, Y+6	; 0x06
    34aa:	8f 81       	ldd	r24, Y+7	; 0x07
    34ac:	98 85       	ldd	r25, Y+8	; 0x08
    34ae:	20 e4       	ldi	r18, 0x40	; 64
    34b0:	32 e4       	ldi	r19, 0x42	; 66
    34b2:	4f e0       	ldi	r20, 0x0F	; 15
    34b4:	50 e0       	ldi	r21, 0x00	; 0
    34b6:	0e 94 c2 4a 	call	0x9584	; 0x9584 <__udivmodsi4>
    34ba:	d8 01       	movw	r26, r16
    34bc:	16 96       	adiw	r26, 0x06	; 6
    34be:	2d 93       	st	X+, r18
    34c0:	3d 93       	st	X+, r19
    34c2:	4d 93       	st	X+, r20
    34c4:	5c 93       	st	X, r21
    34c6:	19 97       	sbiw	r26, 0x09	; 9
    34c8:	0e 94 c3 4c 	call	0x9986	; 0x9986 <printf>
        nrk_kprintf( PSTR( "\r\n   Idle Task Deep Sleep Time: "));
    34cc:	ed b7       	in	r30, 0x3d	; 61
    34ce:	fe b7       	in	r31, 0x3e	; 62
    34d0:	3a 96       	adiw	r30, 0x0a	; 10
    34d2:	0f b6       	in	r0, 0x3f	; 63
    34d4:	f8 94       	cli
    34d6:	fe bf       	out	0x3e, r31	; 62
    34d8:	0f be       	out	0x3f, r0	; 63
    34da:	ed bf       	out	0x3d, r30	; 61
    34dc:	8f ed       	ldi	r24, 0xDF	; 223
    34de:	91 e0       	ldi	r25, 0x01	; 1
    34e0:	0e 94 a9 13 	call	0x2752	; 0x2752 <nrk_kprintf>
        //t=_nrk_ticks_to_time(_nrk_stats_sleep_time);
        //printf( "%lu secs %lu ms", t.secs, t.nano_secs/NANOS_PER_MS );
        printf( "%lu secs %lu ms", _nrk_stats_sleep_time.secs, _nrk_stats_sleep_time.nano_secs/NANOS_PER_MS);
    34e4:	8d b7       	in	r24, 0x3d	; 61
    34e6:	9e b7       	in	r25, 0x3e	; 62
    34e8:	0a 97       	sbiw	r24, 0x0a	; 10
    34ea:	0f b6       	in	r0, 0x3f	; 63
    34ec:	f8 94       	cli
    34ee:	9e bf       	out	0x3e, r25	; 62
    34f0:	0f be       	out	0x3f, r0	; 63
    34f2:	8d bf       	out	0x3d, r24	; 61
    34f4:	0d b7       	in	r16, 0x3d	; 61
    34f6:	1e b7       	in	r17, 0x3e	; 62
    34f8:	0f 5f       	subi	r16, 0xFF	; 255
    34fa:	1f 4f       	sbci	r17, 0xFF	; 255
    34fc:	ad b7       	in	r26, 0x3d	; 61
    34fe:	be b7       	in	r27, 0x3e	; 62
    3500:	12 96       	adiw	r26, 0x02	; 2
    3502:	fc 92       	st	X, r15
    3504:	ee 92       	st	-X, r14
    3506:	11 97       	sbiw	r26, 0x01	; 1
    3508:	80 91 65 04 	lds	r24, 0x0465
    350c:	90 91 66 04 	lds	r25, 0x0466
    3510:	a0 91 67 04 	lds	r26, 0x0467
    3514:	b0 91 68 04 	lds	r27, 0x0468
    3518:	f8 01       	movw	r30, r16
    351a:	82 83       	std	Z+2, r24	; 0x02
    351c:	93 83       	std	Z+3, r25	; 0x03
    351e:	a4 83       	std	Z+4, r26	; 0x04
    3520:	b5 83       	std	Z+5, r27	; 0x05
    3522:	60 91 69 04 	lds	r22, 0x0469
    3526:	70 91 6a 04 	lds	r23, 0x046A
    352a:	80 91 6b 04 	lds	r24, 0x046B
    352e:	90 91 6c 04 	lds	r25, 0x046C
    3532:	20 e4       	ldi	r18, 0x40	; 64
    3534:	32 e4       	ldi	r19, 0x42	; 66
    3536:	4f e0       	ldi	r20, 0x0F	; 15
    3538:	50 e0       	ldi	r21, 0x00	; 0
    353a:	0e 94 c2 4a 	call	0x9584	; 0x9584 <__udivmodsi4>
    353e:	d8 01       	movw	r26, r16
    3540:	16 96       	adiw	r26, 0x06	; 6
    3542:	2d 93       	st	X+, r18
    3544:	3d 93       	st	X+, r19
    3546:	4d 93       	st	X+, r20
    3548:	5c 93       	st	X, r21
    354a:	19 97       	sbiw	r26, 0x09	; 9
    354c:	0e 94 c3 4c 	call	0x9986	; 0x9986 <printf>
    3550:	ed b7       	in	r30, 0x3d	; 61
    3552:	fe b7       	in	r31, 0x3e	; 62
    3554:	3a 96       	adiw	r30, 0x0a	; 10
    3556:	0f b6       	in	r0, 0x3f	; 63
    3558:	f8 94       	cli
    355a:	fe bf       	out	0x3e, r31	; 62
    355c:	0f be       	out	0x3f, r0	; 63
    355e:	ed bf       	out	0x3d, r30	; 61
    }
    nrk_kprintf( PSTR( "\r\n   Total CPU: "));
    3560:	8e ec       	ldi	r24, 0xCE	; 206
    3562:	91 e0       	ldi	r25, 0x01	; 1
    3564:	0e 94 a9 13 	call	0x2752	; 0x2752 <nrk_kprintf>
    t=_nrk_ticks_to_time(cur_task_stats[pid].total_ticks);
    3568:	8d 2d       	mov	r24, r13
    356a:	90 e0       	ldi	r25, 0x00	; 0
    356c:	fc 01       	movw	r30, r24
    356e:	55 e0       	ldi	r21, 0x05	; 5
    3570:	ee 0f       	add	r30, r30
    3572:	ff 1f       	adc	r31, r31
    3574:	5a 95       	dec	r21
    3576:	e1 f7       	brne	.-8      	; 0x3570 <nrk_stats_display_pid+0x168>
    3578:	88 0f       	add	r24, r24
    357a:	99 1f       	adc	r25, r25
    357c:	e8 1b       	sub	r30, r24
    357e:	f9 0b       	sbc	r31, r25
    3580:	e3 56       	subi	r30, 0x63	; 99
    3582:	fa 4f       	sbci	r31, 0xFA	; 250
    3584:	60 81       	ld	r22, Z
    3586:	71 81       	ldd	r23, Z+1	; 0x01
    3588:	82 81       	ldd	r24, Z+2	; 0x02
    358a:	93 81       	ldd	r25, Z+3	; 0x03
    358c:	0e 94 d3 28 	call	0x51a6	; 0x51a6 <_nrk_ticks_to_time>
    3590:	29 87       	std	Y+9, r18	; 0x09
    3592:	3a 87       	std	Y+10, r19	; 0x0a
    3594:	4b 87       	std	Y+11, r20	; 0x0b
    3596:	5c 87       	std	Y+12, r21	; 0x0c
    3598:	6d 87       	std	Y+13, r22	; 0x0d
    359a:	7e 87       	std	Y+14, r23	; 0x0e
    359c:	8f 87       	std	Y+15, r24	; 0x0f
    359e:	98 8b       	std	Y+16, r25	; 0x10
    35a0:	de 01       	movw	r26, r28
    35a2:	11 96       	adiw	r26, 0x01	; 1
    35a4:	fe 01       	movw	r30, r28
    35a6:	39 96       	adiw	r30, 0x09	; 9
    35a8:	88 e0       	ldi	r24, 0x08	; 8
    35aa:	01 90       	ld	r0, Z+
    35ac:	0d 92       	st	X+, r0
    35ae:	81 50       	subi	r24, 0x01	; 1
    35b0:	e1 f7       	brne	.-8      	; 0x35aa <nrk_stats_display_pid+0x1a2>
    printf( "%lu secs %lu ms", t.secs, t.nano_secs/NANOS_PER_MS );
    35b2:	8d b7       	in	r24, 0x3d	; 61
    35b4:	9e b7       	in	r25, 0x3e	; 62
    35b6:	0a 97       	sbiw	r24, 0x0a	; 10
    35b8:	0f b6       	in	r0, 0x3f	; 63
    35ba:	f8 94       	cli
    35bc:	9e bf       	out	0x3e, r25	; 62
    35be:	0f be       	out	0x3f, r0	; 63
    35c0:	8d bf       	out	0x3d, r24	; 61
    35c2:	0d b7       	in	r16, 0x3d	; 61
    35c4:	1e b7       	in	r17, 0x3e	; 62
    35c6:	0f 5f       	subi	r16, 0xFF	; 255
    35c8:	1f 4f       	sbci	r17, 0xFF	; 255
    35ca:	86 ef       	ldi	r24, 0xF6	; 246
    35cc:	91 e0       	ldi	r25, 0x01	; 1
    35ce:	ad b7       	in	r26, 0x3d	; 61
    35d0:	be b7       	in	r27, 0x3e	; 62
    35d2:	12 96       	adiw	r26, 0x02	; 2
    35d4:	9c 93       	st	X, r25
    35d6:	8e 93       	st	-X, r24
    35d8:	11 97       	sbiw	r26, 0x01	; 1
    35da:	89 81       	ldd	r24, Y+1	; 0x01
    35dc:	9a 81       	ldd	r25, Y+2	; 0x02
    35de:	ab 81       	ldd	r26, Y+3	; 0x03
    35e0:	bc 81       	ldd	r27, Y+4	; 0x04
    35e2:	f8 01       	movw	r30, r16
    35e4:	82 83       	std	Z+2, r24	; 0x02
    35e6:	93 83       	std	Z+3, r25	; 0x03
    35e8:	a4 83       	std	Z+4, r26	; 0x04
    35ea:	b5 83       	std	Z+5, r27	; 0x05
    35ec:	6d 81       	ldd	r22, Y+5	; 0x05
    35ee:	7e 81       	ldd	r23, Y+6	; 0x06
    35f0:	8f 81       	ldd	r24, Y+7	; 0x07
    35f2:	98 85       	ldd	r25, Y+8	; 0x08
    35f4:	20 e4       	ldi	r18, 0x40	; 64
    35f6:	32 e4       	ldi	r19, 0x42	; 66
    35f8:	4f e0       	ldi	r20, 0x0F	; 15
    35fa:	50 e0       	ldi	r21, 0x00	; 0
    35fc:	0e 94 c2 4a 	call	0x9584	; 0x9584 <__udivmodsi4>
    3600:	d8 01       	movw	r26, r16
    3602:	16 96       	adiw	r26, 0x06	; 6
    3604:	2d 93       	st	X+, r18
    3606:	3d 93       	st	X+, r19
    3608:	4d 93       	st	X+, r20
    360a:	5c 93       	st	X, r21
    360c:	19 97       	sbiw	r26, 0x09	; 9
    360e:	0e 94 c3 4c 	call	0x9986	; 0x9986 <printf>
    nrk_kprintf( PSTR( "\r\n   Time [Min,Last,Max]: "));
    3612:	ed b7       	in	r30, 0x3d	; 61
    3614:	fe b7       	in	r31, 0x3e	; 62
    3616:	3a 96       	adiw	r30, 0x0a	; 10
    3618:	0f b6       	in	r0, 0x3f	; 63
    361a:	f8 94       	cli
    361c:	fe bf       	out	0x3e, r31	; 62
    361e:	0f be       	out	0x3f, r0	; 63
    3620:	ed bf       	out	0x3d, r30	; 61
    3622:	83 eb       	ldi	r24, 0xB3	; 179
    3624:	91 e0       	ldi	r25, 0x01	; 1
    3626:	0e 94 a9 13 	call	0x2752	; 0x2752 <nrk_kprintf>
    t=_nrk_ticks_to_time(cur_task_stats[pid].min_exec_ticks);
    362a:	8d 2d       	mov	r24, r13
    362c:	90 e0       	ldi	r25, 0x00	; 0
    362e:	fc 01       	movw	r30, r24
    3630:	35 e0       	ldi	r19, 0x05	; 5
    3632:	ee 0f       	add	r30, r30
    3634:	ff 1f       	adc	r31, r31
    3636:	3a 95       	dec	r19
    3638:	e1 f7       	brne	.-8      	; 0x3632 <nrk_stats_display_pid+0x22a>
    363a:	88 0f       	add	r24, r24
    363c:	99 1f       	adc	r25, r25
    363e:	e8 1b       	sub	r30, r24
    3640:	f9 0b       	sbc	r31, r25
    3642:	e3 56       	subi	r30, 0x63	; 99
    3644:	fa 4f       	sbci	r31, 0xFA	; 250
    3646:	64 81       	ldd	r22, Z+4	; 0x04
    3648:	75 81       	ldd	r23, Z+5	; 0x05
    364a:	86 81       	ldd	r24, Z+6	; 0x06
    364c:	97 81       	ldd	r25, Z+7	; 0x07
    364e:	0e 94 d3 28 	call	0x51a6	; 0x51a6 <_nrk_ticks_to_time>
    3652:	29 87       	std	Y+9, r18	; 0x09
    3654:	3a 87       	std	Y+10, r19	; 0x0a
    3656:	4b 87       	std	Y+11, r20	; 0x0b
    3658:	5c 87       	std	Y+12, r21	; 0x0c
    365a:	6d 87       	std	Y+13, r22	; 0x0d
    365c:	7e 87       	std	Y+14, r23	; 0x0e
    365e:	8f 87       	std	Y+15, r24	; 0x0f
    3660:	98 8b       	std	Y+16, r25	; 0x10
    3662:	de 01       	movw	r26, r28
    3664:	11 96       	adiw	r26, 0x01	; 1
    3666:	fe 01       	movw	r30, r28
    3668:	39 96       	adiw	r30, 0x09	; 9
    366a:	88 e0       	ldi	r24, 0x08	; 8
    366c:	01 90       	ld	r0, Z+
    366e:	0d 92       	st	X+, r0
    3670:	81 50       	subi	r24, 0x01	; 1
    3672:	e1 f7       	brne	.-8      	; 0x366c <nrk_stats_display_pid+0x264>
    printf( "%lu secs %lu ms, ", t.secs, t.nano_secs/NANOS_PER_MS );
    3674:	8d b7       	in	r24, 0x3d	; 61
    3676:	9e b7       	in	r25, 0x3e	; 62
    3678:	0a 97       	sbiw	r24, 0x0a	; 10
    367a:	0f b6       	in	r0, 0x3f	; 63
    367c:	f8 94       	cli
    367e:	9e bf       	out	0x3e, r25	; 62
    3680:	0f be       	out	0x3f, r0	; 63
    3682:	8d bf       	out	0x3d, r24	; 61
    3684:	0d b7       	in	r16, 0x3d	; 61
    3686:	1e b7       	in	r17, 0x3e	; 62
    3688:	0f 5f       	subi	r16, 0xFF	; 255
    368a:	1f 4f       	sbci	r17, 0xFF	; 255
    368c:	86 e0       	ldi	r24, 0x06	; 6
    368e:	92 e0       	ldi	r25, 0x02	; 2
    3690:	ad b7       	in	r26, 0x3d	; 61
    3692:	be b7       	in	r27, 0x3e	; 62
    3694:	12 96       	adiw	r26, 0x02	; 2
    3696:	9c 93       	st	X, r25
    3698:	8e 93       	st	-X, r24
    369a:	11 97       	sbiw	r26, 0x01	; 1
    369c:	89 81       	ldd	r24, Y+1	; 0x01
    369e:	9a 81       	ldd	r25, Y+2	; 0x02
    36a0:	ab 81       	ldd	r26, Y+3	; 0x03
    36a2:	bc 81       	ldd	r27, Y+4	; 0x04
    36a4:	f8 01       	movw	r30, r16
    36a6:	82 83       	std	Z+2, r24	; 0x02
    36a8:	93 83       	std	Z+3, r25	; 0x03
    36aa:	a4 83       	std	Z+4, r26	; 0x04
    36ac:	b5 83       	std	Z+5, r27	; 0x05
    36ae:	6d 81       	ldd	r22, Y+5	; 0x05
    36b0:	7e 81       	ldd	r23, Y+6	; 0x06
    36b2:	8f 81       	ldd	r24, Y+7	; 0x07
    36b4:	98 85       	ldd	r25, Y+8	; 0x08
    36b6:	20 e4       	ldi	r18, 0x40	; 64
    36b8:	32 e4       	ldi	r19, 0x42	; 66
    36ba:	4f e0       	ldi	r20, 0x0F	; 15
    36bc:	50 e0       	ldi	r21, 0x00	; 0
    36be:	0e 94 c2 4a 	call	0x9584	; 0x9584 <__udivmodsi4>
    36c2:	d8 01       	movw	r26, r16
    36c4:	16 96       	adiw	r26, 0x06	; 6
    36c6:	2d 93       	st	X+, r18
    36c8:	3d 93       	st	X+, r19
    36ca:	4d 93       	st	X+, r20
    36cc:	5c 93       	st	X, r21
    36ce:	19 97       	sbiw	r26, 0x09	; 9
    36d0:	0e 94 c3 4c 	call	0x9986	; 0x9986 <printf>
    t=_nrk_ticks_to_time(cur_task_stats[pid].last_exec_ticks);
    36d4:	ed b7       	in	r30, 0x3d	; 61
    36d6:	fe b7       	in	r31, 0x3e	; 62
    36d8:	3a 96       	adiw	r30, 0x0a	; 10
    36da:	0f b6       	in	r0, 0x3f	; 63
    36dc:	f8 94       	cli
    36de:	fe bf       	out	0x3e, r31	; 62
    36e0:	0f be       	out	0x3f, r0	; 63
    36e2:	ed bf       	out	0x3d, r30	; 61
    36e4:	8d 2d       	mov	r24, r13
    36e6:	90 e0       	ldi	r25, 0x00	; 0
    36e8:	fc 01       	movw	r30, r24
    36ea:	05 e0       	ldi	r16, 0x05	; 5
    36ec:	ee 0f       	add	r30, r30
    36ee:	ff 1f       	adc	r31, r31
    36f0:	0a 95       	dec	r16
    36f2:	e1 f7       	brne	.-8      	; 0x36ec <nrk_stats_display_pid+0x2e4>
    36f4:	88 0f       	add	r24, r24
    36f6:	99 1f       	adc	r25, r25
    36f8:	e8 1b       	sub	r30, r24
    36fa:	f9 0b       	sbc	r31, r25
    36fc:	e3 56       	subi	r30, 0x63	; 99
    36fe:	fa 4f       	sbci	r31, 0xFA	; 250
    3700:	64 85       	ldd	r22, Z+12	; 0x0c
    3702:	75 85       	ldd	r23, Z+13	; 0x0d
    3704:	86 85       	ldd	r24, Z+14	; 0x0e
    3706:	97 85       	ldd	r25, Z+15	; 0x0f
    3708:	0e 94 d3 28 	call	0x51a6	; 0x51a6 <_nrk_ticks_to_time>
    370c:	29 87       	std	Y+9, r18	; 0x09
    370e:	3a 87       	std	Y+10, r19	; 0x0a
    3710:	4b 87       	std	Y+11, r20	; 0x0b
    3712:	5c 87       	std	Y+12, r21	; 0x0c
    3714:	6d 87       	std	Y+13, r22	; 0x0d
    3716:	7e 87       	std	Y+14, r23	; 0x0e
    3718:	8f 87       	std	Y+15, r24	; 0x0f
    371a:	98 8b       	std	Y+16, r25	; 0x10
    371c:	de 01       	movw	r26, r28
    371e:	11 96       	adiw	r26, 0x01	; 1
    3720:	fe 01       	movw	r30, r28
    3722:	39 96       	adiw	r30, 0x09	; 9
    3724:	88 e0       	ldi	r24, 0x08	; 8
    3726:	01 90       	ld	r0, Z+
    3728:	0d 92       	st	X+, r0
    372a:	81 50       	subi	r24, 0x01	; 1
    372c:	e1 f7       	brne	.-8      	; 0x3726 <nrk_stats_display_pid+0x31e>
    printf( "%lu secs %lu ms, ", t.secs, t.nano_secs/NANOS_PER_MS );
    372e:	8d b7       	in	r24, 0x3d	; 61
    3730:	9e b7       	in	r25, 0x3e	; 62
    3732:	0a 97       	sbiw	r24, 0x0a	; 10
    3734:	0f b6       	in	r0, 0x3f	; 63
    3736:	f8 94       	cli
    3738:	9e bf       	out	0x3e, r25	; 62
    373a:	0f be       	out	0x3f, r0	; 63
    373c:	8d bf       	out	0x3d, r24	; 61
    373e:	0d b7       	in	r16, 0x3d	; 61
    3740:	1e b7       	in	r17, 0x3e	; 62
    3742:	0f 5f       	subi	r16, 0xFF	; 255
    3744:	1f 4f       	sbci	r17, 0xFF	; 255
    3746:	86 e0       	ldi	r24, 0x06	; 6
    3748:	92 e0       	ldi	r25, 0x02	; 2
    374a:	ad b7       	in	r26, 0x3d	; 61
    374c:	be b7       	in	r27, 0x3e	; 62
    374e:	12 96       	adiw	r26, 0x02	; 2
    3750:	9c 93       	st	X, r25
    3752:	8e 93       	st	-X, r24
    3754:	11 97       	sbiw	r26, 0x01	; 1
    3756:	89 81       	ldd	r24, Y+1	; 0x01
    3758:	9a 81       	ldd	r25, Y+2	; 0x02
    375a:	ab 81       	ldd	r26, Y+3	; 0x03
    375c:	bc 81       	ldd	r27, Y+4	; 0x04
    375e:	f8 01       	movw	r30, r16
    3760:	82 83       	std	Z+2, r24	; 0x02
    3762:	93 83       	std	Z+3, r25	; 0x03
    3764:	a4 83       	std	Z+4, r26	; 0x04
    3766:	b5 83       	std	Z+5, r27	; 0x05
    3768:	6d 81       	ldd	r22, Y+5	; 0x05
    376a:	7e 81       	ldd	r23, Y+6	; 0x06
    376c:	8f 81       	ldd	r24, Y+7	; 0x07
    376e:	98 85       	ldd	r25, Y+8	; 0x08
    3770:	20 e4       	ldi	r18, 0x40	; 64
    3772:	32 e4       	ldi	r19, 0x42	; 66
    3774:	4f e0       	ldi	r20, 0x0F	; 15
    3776:	50 e0       	ldi	r21, 0x00	; 0
    3778:	0e 94 c2 4a 	call	0x9584	; 0x9584 <__udivmodsi4>
    377c:	d8 01       	movw	r26, r16
    377e:	16 96       	adiw	r26, 0x06	; 6
    3780:	2d 93       	st	X+, r18
    3782:	3d 93       	st	X+, r19
    3784:	4d 93       	st	X+, r20
    3786:	5c 93       	st	X, r21
    3788:	19 97       	sbiw	r26, 0x09	; 9
    378a:	0e 94 c3 4c 	call	0x9986	; 0x9986 <printf>
    t=_nrk_ticks_to_time(cur_task_stats[pid].max_exec_ticks);
    378e:	ed b7       	in	r30, 0x3d	; 61
    3790:	fe b7       	in	r31, 0x3e	; 62
    3792:	3a 96       	adiw	r30, 0x0a	; 10
    3794:	0f b6       	in	r0, 0x3f	; 63
    3796:	f8 94       	cli
    3798:	fe bf       	out	0x3e, r31	; 62
    379a:	0f be       	out	0x3f, r0	; 63
    379c:	ed bf       	out	0x3d, r30	; 61
    379e:	8d 2d       	mov	r24, r13
    37a0:	90 e0       	ldi	r25, 0x00	; 0
    37a2:	fc 01       	movw	r30, r24
    37a4:	b5 e0       	ldi	r27, 0x05	; 5
    37a6:	ee 0f       	add	r30, r30
    37a8:	ff 1f       	adc	r31, r31
    37aa:	ba 95       	dec	r27
    37ac:	e1 f7       	brne	.-8      	; 0x37a6 <nrk_stats_display_pid+0x39e>
    37ae:	88 0f       	add	r24, r24
    37b0:	99 1f       	adc	r25, r25
    37b2:	e8 1b       	sub	r30, r24
    37b4:	f9 0b       	sbc	r31, r25
    37b6:	e3 56       	subi	r30, 0x63	; 99
    37b8:	fa 4f       	sbci	r31, 0xFA	; 250
    37ba:	60 85       	ldd	r22, Z+8	; 0x08
    37bc:	71 85       	ldd	r23, Z+9	; 0x09
    37be:	82 85       	ldd	r24, Z+10	; 0x0a
    37c0:	93 85       	ldd	r25, Z+11	; 0x0b
    37c2:	0e 94 d3 28 	call	0x51a6	; 0x51a6 <_nrk_ticks_to_time>
    37c6:	29 87       	std	Y+9, r18	; 0x09
    37c8:	3a 87       	std	Y+10, r19	; 0x0a
    37ca:	4b 87       	std	Y+11, r20	; 0x0b
    37cc:	5c 87       	std	Y+12, r21	; 0x0c
    37ce:	6d 87       	std	Y+13, r22	; 0x0d
    37d0:	7e 87       	std	Y+14, r23	; 0x0e
    37d2:	8f 87       	std	Y+15, r24	; 0x0f
    37d4:	98 8b       	std	Y+16, r25	; 0x10
    37d6:	de 01       	movw	r26, r28
    37d8:	11 96       	adiw	r26, 0x01	; 1
    37da:	fe 01       	movw	r30, r28
    37dc:	39 96       	adiw	r30, 0x09	; 9
    37de:	88 e0       	ldi	r24, 0x08	; 8
    37e0:	01 90       	ld	r0, Z+
    37e2:	0d 92       	st	X+, r0
    37e4:	81 50       	subi	r24, 0x01	; 1
    37e6:	e1 f7       	brne	.-8      	; 0x37e0 <nrk_stats_display_pid+0x3d8>
    printf( "%lu secs %lu ms", t.secs, t.nano_secs/NANOS_PER_MS );
    37e8:	8d b7       	in	r24, 0x3d	; 61
    37ea:	9e b7       	in	r25, 0x3e	; 62
    37ec:	0a 97       	sbiw	r24, 0x0a	; 10
    37ee:	0f b6       	in	r0, 0x3f	; 63
    37f0:	f8 94       	cli
    37f2:	9e bf       	out	0x3e, r25	; 62
    37f4:	0f be       	out	0x3f, r0	; 63
    37f6:	8d bf       	out	0x3d, r24	; 61
    37f8:	0d b7       	in	r16, 0x3d	; 61
    37fa:	1e b7       	in	r17, 0x3e	; 62
    37fc:	0f 5f       	subi	r16, 0xFF	; 255
    37fe:	1f 4f       	sbci	r17, 0xFF	; 255
    3800:	86 ef       	ldi	r24, 0xF6	; 246
    3802:	91 e0       	ldi	r25, 0x01	; 1
    3804:	ad b7       	in	r26, 0x3d	; 61
    3806:	be b7       	in	r27, 0x3e	; 62
    3808:	12 96       	adiw	r26, 0x02	; 2
    380a:	9c 93       	st	X, r25
    380c:	8e 93       	st	-X, r24
    380e:	11 97       	sbiw	r26, 0x01	; 1
    3810:	89 81       	ldd	r24, Y+1	; 0x01
    3812:	9a 81       	ldd	r25, Y+2	; 0x02
    3814:	ab 81       	ldd	r26, Y+3	; 0x03
    3816:	bc 81       	ldd	r27, Y+4	; 0x04
    3818:	f8 01       	movw	r30, r16
    381a:	82 83       	std	Z+2, r24	; 0x02
    381c:	93 83       	std	Z+3, r25	; 0x03
    381e:	a4 83       	std	Z+4, r26	; 0x04
    3820:	b5 83       	std	Z+5, r27	; 0x05
    3822:	6d 81       	ldd	r22, Y+5	; 0x05
    3824:	7e 81       	ldd	r23, Y+6	; 0x06
    3826:	8f 81       	ldd	r24, Y+7	; 0x07
    3828:	98 85       	ldd	r25, Y+8	; 0x08
    382a:	20 e4       	ldi	r18, 0x40	; 64
    382c:	32 e4       	ldi	r19, 0x42	; 66
    382e:	4f e0       	ldi	r20, 0x0F	; 15
    3830:	50 e0       	ldi	r21, 0x00	; 0
    3832:	0e 94 c2 4a 	call	0x9584	; 0x9584 <__udivmodsi4>
    3836:	d8 01       	movw	r26, r16
    3838:	16 96       	adiw	r26, 0x06	; 6
    383a:	2d 93       	st	X+, r18
    383c:	3d 93       	st	X+, r19
    383e:	4d 93       	st	X+, r20
    3840:	5c 93       	st	X, r21
    3842:	19 97       	sbiw	r26, 0x09	; 9
    3844:	0e 94 c3 4c 	call	0x9986	; 0x9986 <printf>
    nrk_kprintf( PSTR( "\r\n   Swap-ins: "));
    3848:	ed b7       	in	r30, 0x3d	; 61
    384a:	fe b7       	in	r31, 0x3e	; 62
    384c:	3a 96       	adiw	r30, 0x0a	; 10
    384e:	0f b6       	in	r0, 0x3f	; 63
    3850:	f8 94       	cli
    3852:	fe bf       	out	0x3e, r31	; 62
    3854:	0f be       	out	0x3f, r0	; 63
    3856:	ed bf       	out	0x3d, r30	; 61
    3858:	83 ea       	ldi	r24, 0xA3	; 163
    385a:	91 e0       	ldi	r25, 0x01	; 1
    385c:	0e 94 a9 13 	call	0x2752	; 0x2752 <nrk_kprintf>
    printf( "%lu",cur_task_stats[pid].swapped_in );
    3860:	00 d0       	rcall	.+0      	; 0x3862 <nrk_stats_display_pid+0x45a>
    3862:	00 d0       	rcall	.+0      	; 0x3864 <nrk_stats_display_pid+0x45c>
    3864:	00 d0       	rcall	.+0      	; 0x3866 <nrk_stats_display_pid+0x45e>
    3866:	08 e1       	ldi	r16, 0x18	; 24
    3868:	12 e0       	ldi	r17, 0x02	; 2
    386a:	ad b7       	in	r26, 0x3d	; 61
    386c:	be b7       	in	r27, 0x3e	; 62
    386e:	12 96       	adiw	r26, 0x02	; 2
    3870:	1c 93       	st	X, r17
    3872:	0e 93       	st	-X, r16
    3874:	11 97       	sbiw	r26, 0x01	; 1
    3876:	8d 2d       	mov	r24, r13
    3878:	90 e0       	ldi	r25, 0x00	; 0
    387a:	fc 01       	movw	r30, r24
    387c:	75 e0       	ldi	r23, 0x05	; 5
    387e:	ee 0f       	add	r30, r30
    3880:	ff 1f       	adc	r31, r31
    3882:	7a 95       	dec	r23
    3884:	e1 f7       	brne	.-8      	; 0x387e <nrk_stats_display_pid+0x476>
    3886:	88 0f       	add	r24, r24
    3888:	99 1f       	adc	r25, r25
    388a:	e8 1b       	sub	r30, r24
    388c:	f9 0b       	sbc	r31, r25
    388e:	e3 56       	subi	r30, 0x63	; 99
    3890:	fa 4f       	sbci	r31, 0xFA	; 250
    3892:	80 89       	ldd	r24, Z+16	; 0x10
    3894:	91 89       	ldd	r25, Z+17	; 0x11
    3896:	a2 89       	ldd	r26, Z+18	; 0x12
    3898:	b3 89       	ldd	r27, Z+19	; 0x13
    389a:	ed b7       	in	r30, 0x3d	; 61
    389c:	fe b7       	in	r31, 0x3e	; 62
    389e:	83 83       	std	Z+3, r24	; 0x03
    38a0:	94 83       	std	Z+4, r25	; 0x04
    38a2:	a5 83       	std	Z+5, r26	; 0x05
    38a4:	b6 83       	std	Z+6, r27	; 0x06
    38a6:	0e 94 c3 4c 	call	0x9986	; 0x9986 <printf>
    nrk_kprintf( PSTR( "\r\n   Preemptions: "));
    38aa:	8d b7       	in	r24, 0x3d	; 61
    38ac:	9e b7       	in	r25, 0x3e	; 62
    38ae:	06 96       	adiw	r24, 0x06	; 6
    38b0:	0f b6       	in	r0, 0x3f	; 63
    38b2:	f8 94       	cli
    38b4:	9e bf       	out	0x3e, r25	; 62
    38b6:	0f be       	out	0x3f, r0	; 63
    38b8:	8d bf       	out	0x3d, r24	; 61
    38ba:	80 e9       	ldi	r24, 0x90	; 144
    38bc:	91 e0       	ldi	r25, 0x01	; 1
    38be:	0e 94 a9 13 	call	0x2752	; 0x2752 <nrk_kprintf>
    printf( "%lu",cur_task_stats[pid].preempted);
    38c2:	00 d0       	rcall	.+0      	; 0x38c4 <nrk_stats_display_pid+0x4bc>
    38c4:	00 d0       	rcall	.+0      	; 0x38c6 <nrk_stats_display_pid+0x4be>
    38c6:	00 d0       	rcall	.+0      	; 0x38c8 <nrk_stats_display_pid+0x4c0>
    38c8:	ad b7       	in	r26, 0x3d	; 61
    38ca:	be b7       	in	r27, 0x3e	; 62
    38cc:	12 96       	adiw	r26, 0x02	; 2
    38ce:	1c 93       	st	X, r17
    38d0:	0e 93       	st	-X, r16
    38d2:	11 97       	sbiw	r26, 0x01	; 1
    38d4:	8d 2d       	mov	r24, r13
    38d6:	90 e0       	ldi	r25, 0x00	; 0
    38d8:	fc 01       	movw	r30, r24
    38da:	55 e0       	ldi	r21, 0x05	; 5
    38dc:	ee 0f       	add	r30, r30
    38de:	ff 1f       	adc	r31, r31
    38e0:	5a 95       	dec	r21
    38e2:	e1 f7       	brne	.-8      	; 0x38dc <nrk_stats_display_pid+0x4d4>
    38e4:	88 0f       	add	r24, r24
    38e6:	99 1f       	adc	r25, r25
    38e8:	e8 1b       	sub	r30, r24
    38ea:	f9 0b       	sbc	r31, r25
    38ec:	e3 56       	subi	r30, 0x63	; 99
    38ee:	fa 4f       	sbci	r31, 0xFA	; 250
    38f0:	80 8d       	ldd	r24, Z+24	; 0x18
    38f2:	91 8d       	ldd	r25, Z+25	; 0x19
    38f4:	a2 8d       	ldd	r26, Z+26	; 0x1a
    38f6:	b3 8d       	ldd	r27, Z+27	; 0x1b
    38f8:	ed b7       	in	r30, 0x3d	; 61
    38fa:	fe b7       	in	r31, 0x3e	; 62
    38fc:	83 83       	std	Z+3, r24	; 0x03
    38fe:	94 83       	std	Z+4, r25	; 0x04
    3900:	a5 83       	std	Z+5, r26	; 0x05
    3902:	b6 83       	std	Z+6, r27	; 0x06
    3904:	0e 94 c3 4c 	call	0x9986	; 0x9986 <printf>
    nrk_kprintf( PSTR( "\r\n   Kernel Violations: "));
    3908:	8d b7       	in	r24, 0x3d	; 61
    390a:	9e b7       	in	r25, 0x3e	; 62
    390c:	06 96       	adiw	r24, 0x06	; 6
    390e:	0f b6       	in	r0, 0x3f	; 63
    3910:	f8 94       	cli
    3912:	9e bf       	out	0x3e, r25	; 62
    3914:	0f be       	out	0x3f, r0	; 63
    3916:	8d bf       	out	0x3d, r24	; 61
    3918:	87 e7       	ldi	r24, 0x77	; 119
    391a:	91 e0       	ldi	r25, 0x01	; 1
    391c:	0e 94 a9 13 	call	0x2752	; 0x2752 <nrk_kprintf>
    printf( "%u",cur_task_stats[pid].violations);
    3920:	00 d0       	rcall	.+0      	; 0x3922 <nrk_stats_display_pid+0x51a>
    3922:	00 d0       	rcall	.+0      	; 0x3924 <nrk_stats_display_pid+0x51c>
    3924:	ad b7       	in	r26, 0x3d	; 61
    3926:	be b7       	in	r27, 0x3e	; 62
    3928:	11 96       	adiw	r26, 0x01	; 1
    392a:	0c e1       	ldi	r16, 0x1C	; 28
    392c:	12 e0       	ldi	r17, 0x02	; 2
    392e:	ed b7       	in	r30, 0x3d	; 61
    3930:	fe b7       	in	r31, 0x3e	; 62
    3932:	12 83       	std	Z+2, r17	; 0x02
    3934:	01 83       	std	Z+1, r16	; 0x01
    3936:	8d 2d       	mov	r24, r13
    3938:	90 e0       	ldi	r25, 0x00	; 0
    393a:	fc 01       	movw	r30, r24
    393c:	35 e0       	ldi	r19, 0x05	; 5
    393e:	ee 0f       	add	r30, r30
    3940:	ff 1f       	adc	r31, r31
    3942:	3a 95       	dec	r19
    3944:	e1 f7       	brne	.-8      	; 0x393e <nrk_stats_display_pid+0x536>
    3946:	88 0f       	add	r24, r24
    3948:	99 1f       	adc	r25, r25
    394a:	e8 1b       	sub	r30, r24
    394c:	f9 0b       	sbc	r31, r25
    394e:	e3 56       	subi	r30, 0x63	; 99
    3950:	fa 4f       	sbci	r31, 0xFA	; 250
    3952:	84 8d       	ldd	r24, Z+28	; 0x1c
    3954:	12 96       	adiw	r26, 0x02	; 2
    3956:	8c 93       	st	X, r24
    3958:	12 97       	sbiw	r26, 0x02	; 2
    395a:	13 96       	adiw	r26, 0x03	; 3
    395c:	1c 92       	st	X, r1
    395e:	0e 94 c3 4c 	call	0x9986	; 0x9986 <printf>
    nrk_kprintf( PSTR( "\r\n   Overflow Error Status: "));
    3962:	0f 90       	pop	r0
    3964:	0f 90       	pop	r0
    3966:	0f 90       	pop	r0
    3968:	0f 90       	pop	r0
    396a:	8a e5       	ldi	r24, 0x5A	; 90
    396c:	91 e0       	ldi	r25, 0x01	; 1
    396e:	0e 94 a9 13 	call	0x2752	; 0x2752 <nrk_kprintf>
    printf( "%u",cur_task_stats[pid].overflow);
    3972:	00 d0       	rcall	.+0      	; 0x3974 <nrk_stats_display_pid+0x56c>
    3974:	00 d0       	rcall	.+0      	; 0x3976 <nrk_stats_display_pid+0x56e>
    3976:	ad b7       	in	r26, 0x3d	; 61
    3978:	be b7       	in	r27, 0x3e	; 62
    397a:	11 96       	adiw	r26, 0x01	; 1
    397c:	ed b7       	in	r30, 0x3d	; 61
    397e:	fe b7       	in	r31, 0x3e	; 62
    3980:	12 83       	std	Z+2, r17	; 0x02
    3982:	01 83       	std	Z+1, r16	; 0x01
    3984:	8d 2d       	mov	r24, r13
    3986:	90 e0       	ldi	r25, 0x00	; 0
    3988:	fc 01       	movw	r30, r24
    398a:	75 e0       	ldi	r23, 0x05	; 5
    398c:	ee 0f       	add	r30, r30
    398e:	ff 1f       	adc	r31, r31
    3990:	7a 95       	dec	r23
    3992:	e1 f7       	brne	.-8      	; 0x398c <nrk_stats_display_pid+0x584>
    3994:	88 0f       	add	r24, r24
    3996:	99 1f       	adc	r25, r25
    3998:	e8 1b       	sub	r30, r24
    399a:	f9 0b       	sbc	r31, r25
    399c:	e3 56       	subi	r30, 0x63	; 99
    399e:	fa 4f       	sbci	r31, 0xFA	; 250
    39a0:	85 8d       	ldd	r24, Z+29	; 0x1d
    39a2:	12 96       	adiw	r26, 0x02	; 2
    39a4:	8c 93       	st	X, r24
    39a6:	12 97       	sbiw	r26, 0x02	; 2
    39a8:	13 96       	adiw	r26, 0x03	; 3
    39aa:	1c 92       	st	X, r1
    39ac:	0e 94 c3 4c 	call	0x9986	; 0x9986 <printf>
    nrk_kprintf( PSTR("\r\n") );
    39b0:	0f 90       	pop	r0
    39b2:	0f 90       	pop	r0
    39b4:	0f 90       	pop	r0
    39b6:	0f 90       	pop	r0
    39b8:	87 e5       	ldi	r24, 0x57	; 87
    39ba:	91 e0       	ldi	r25, 0x01	; 1
    39bc:	0e 94 a9 13 	call	0x2752	; 0x2752 <nrk_kprintf>

}
    39c0:	60 96       	adiw	r28, 0x10	; 16
    39c2:	0f b6       	in	r0, 0x3f	; 63
    39c4:	f8 94       	cli
    39c6:	de bf       	out	0x3e, r29	; 62
    39c8:	0f be       	out	0x3f, r0	; 63
    39ca:	cd bf       	out	0x3d, r28	; 61
    39cc:	cf 91       	pop	r28
    39ce:	df 91       	pop	r29
    39d0:	1f 91       	pop	r17
    39d2:	0f 91       	pop	r16
    39d4:	ff 90       	pop	r15
    39d6:	ef 90       	pop	r14
    39d8:	df 90       	pop	r13
    39da:	08 95       	ret

000039dc <nrk_stats_display_all>:


void nrk_stats_display_all()
{
    39dc:	1f 93       	push	r17
    uint8_t i;
    nrk_kprintf( PSTR( "\r\nNano-RK Task Statistics:\r\n" ));
    39de:	8a e3       	ldi	r24, 0x3A	; 58
    39e0:	91 e0       	ldi	r25, 0x01	; 1
    39e2:	0e 94 a9 13 	call	0x2752	; 0x2752 <nrk_kprintf>
    39e6:	10 e0       	ldi	r17, 0x00	; 0

    for(i=0; i<NRK_MAX_TASKS; i++ )
        nrk_stats_display_pid(i);
    39e8:	81 2f       	mov	r24, r17
    39ea:	0e 94 04 1a 	call	0x3408	; 0x3408 <nrk_stats_display_pid>
void nrk_stats_display_all()
{
    uint8_t i;
    nrk_kprintf( PSTR( "\r\nNano-RK Task Statistics:\r\n" ));

    for(i=0; i<NRK_MAX_TASKS; i++ )
    39ee:	1f 5f       	subi	r17, 0xFF	; 255
    39f0:	15 30       	cpi	r17, 0x05	; 5
    39f2:	d1 f7       	brne	.-12     	; 0x39e8 <nrk_stats_display_all+0xc>
        nrk_stats_display_pid(i);
}
    39f4:	1f 91       	pop	r17
    39f6:	08 95       	ret

000039f8 <_nrk_stats_sleep>:


void _nrk_stats_sleep(uint8_t t)
{
//_nrk_stats_sleep_time+=t;
    _nrk_stats_sleep_time.nano_secs+=t*NANOS_PER_TICK;
    39f8:	90 e0       	ldi	r25, 0x00	; 0
    39fa:	a0 e0       	ldi	r26, 0x00	; 0
    39fc:	b0 e0       	ldi	r27, 0x00	; 0
    39fe:	bc 01       	movw	r22, r24
    3a00:	cd 01       	movw	r24, r26
    3a02:	23 eb       	ldi	r18, 0xB3	; 179
    3a04:	36 ee       	ldi	r19, 0xE6	; 230
    3a06:	4e e0       	ldi	r20, 0x0E	; 14
    3a08:	50 e0       	ldi	r21, 0x00	; 0
    3a0a:	0e 94 8f 4a 	call	0x951e	; 0x951e <__mulsi3>
    3a0e:	20 91 69 04 	lds	r18, 0x0469
    3a12:	30 91 6a 04 	lds	r19, 0x046A
    3a16:	40 91 6b 04 	lds	r20, 0x046B
    3a1a:	50 91 6c 04 	lds	r21, 0x046C
    3a1e:	26 0f       	add	r18, r22
    3a20:	37 1f       	adc	r19, r23
    3a22:	48 1f       	adc	r20, r24
    3a24:	59 1f       	adc	r21, r25
    3a26:	20 93 69 04 	sts	0x0469, r18
    3a2a:	30 93 6a 04 	sts	0x046A, r19
    3a2e:	40 93 6b 04 	sts	0x046B, r20
    3a32:	50 93 6c 04 	sts	0x046C, r21
    nrk_time_compact_nanos(&_nrk_stats_sleep_time);
    3a36:	85 e6       	ldi	r24, 0x65	; 101
    3a38:	94 e0       	ldi	r25, 0x04	; 4
    3a3a:	0e 94 08 28 	call	0x5010	; 0x5010 <nrk_time_compact_nanos>
}
    3a3e:	08 95       	ret

00003a40 <_nrk_errno_set>:
void blink_morse_code_error( uint8_t number );


void _nrk_errno_set (NRK_ERRNO error_code)
{
    nrk_cur_task_TCB->errno = error_code;
    3a40:	e0 91 3e 08 	lds	r30, 0x083E
    3a44:	f0 91 3f 08 	lds	r31, 0x083F
    3a48:	84 87       	std	Z+12, r24	; 0x0c
}
    3a4a:	08 95       	ret

00003a4c <nrk_errno_get>:

uint8_t nrk_errno_get ()
{
    3a4c:	e0 91 3e 08 	lds	r30, 0x083E
    3a50:	f0 91 3f 08 	lds	r31, 0x083F
    return nrk_cur_task_TCB->errno;
}
    3a54:	84 85       	ldd	r24, Z+12	; 0x0c
    3a56:	08 95       	ret

00003a58 <nrk_error_get>:

}


uint8_t nrk_error_get (uint8_t * task_id, uint8_t * code)
{
    3a58:	dc 01       	movw	r26, r24
    3a5a:	fb 01       	movw	r30, r22
    if (error_num == 0)
    3a5c:	80 91 33 06 	lds	r24, 0x0633
    3a60:	88 23       	and	r24, r24
    3a62:	29 f0       	breq	.+10     	; 0x3a6e <nrk_error_get+0x16>
        return 0;
    *code = error_num;
    3a64:	80 83       	st	Z, r24
    *task_id = error_task;
    3a66:	80 91 3f 04 	lds	r24, 0x043F
    3a6a:	8c 93       	st	X, r24
    3a6c:	81 e0       	ldi	r24, 0x01	; 1
    return 1;
}
    3a6e:	08 95       	ret

00003a70 <pause>:
    }

}

void pause()
{
    3a70:	df 93       	push	r29
    3a72:	cf 93       	push	r28
    3a74:	0f 92       	push	r0
    3a76:	cd b7       	in	r28, 0x3d	; 61
    3a78:	de b7       	in	r29, 0x3e	; 62
    volatile uint8_t t;
    for (t = 0; t < 100; t++)
    3a7a:	19 82       	std	Y+1, r1	; 0x01
    3a7c:	07 c0       	rjmp	.+14     	; 0x3a8c <pause+0x1c>
        nrk_spin_wait_us (2000);
    3a7e:	80 ed       	ldi	r24, 0xD0	; 208
    3a80:	97 e0       	ldi	r25, 0x07	; 7
    3a82:	0e 94 1b 2e 	call	0x5c36	; 0x5c36 <nrk_spin_wait_us>
}

void pause()
{
    volatile uint8_t t;
    for (t = 0; t < 100; t++)
    3a86:	89 81       	ldd	r24, Y+1	; 0x01
    3a88:	8f 5f       	subi	r24, 0xFF	; 255
    3a8a:	89 83       	std	Y+1, r24	; 0x01
    3a8c:	89 81       	ldd	r24, Y+1	; 0x01
    3a8e:	84 36       	cpi	r24, 0x64	; 100
    3a90:	b0 f3       	brcs	.-20     	; 0x3a7e <pause+0xe>
        nrk_spin_wait_us (2000);
}
    3a92:	0f 90       	pop	r0
    3a94:	cf 91       	pop	r28
    3a96:	df 91       	pop	r29
    3a98:	08 95       	ret

00003a9a <blink_dot>:
    pause();
}

void blink_dot()
{
    nrk_led_set(GREEN_LED);
    3a9a:	81 e0       	ldi	r24, 0x01	; 1
    3a9c:	90 e0       	ldi	r25, 0x00	; 0
    3a9e:	0e 94 34 13 	call	0x2668	; 0x2668 <nrk_led_set>
    pause();
    3aa2:	0e 94 38 1d 	call	0x3a70	; 0x3a70 <pause>
    nrk_led_clr(GREEN_LED);
    3aa6:	81 e0       	ldi	r24, 0x01	; 1
    3aa8:	90 e0       	ldi	r25, 0x00	; 0
    3aaa:	0e 94 fb 12 	call	0x25f6	; 0x25f6 <nrk_led_clr>
    pause();
    3aae:	0e 94 38 1d 	call	0x3a70	; 0x3a70 <pause>
}
    3ab2:	08 95       	ret

00003ab4 <blink_dash>:
    return t;
}

void blink_dash()
{
    nrk_led_set (GREEN_LED);
    3ab4:	81 e0       	ldi	r24, 0x01	; 1
    3ab6:	90 e0       	ldi	r25, 0x00	; 0
    3ab8:	0e 94 34 13 	call	0x2668	; 0x2668 <nrk_led_set>
    pause();
    3abc:	0e 94 38 1d 	call	0x3a70	; 0x3a70 <pause>
    pause();
    3ac0:	0e 94 38 1d 	call	0x3a70	; 0x3a70 <pause>
    pause();
    3ac4:	0e 94 38 1d 	call	0x3a70	; 0x3a70 <pause>
    nrk_led_clr(GREEN_LED);
    3ac8:	81 e0       	ldi	r24, 0x01	; 1
    3aca:	90 e0       	ldi	r25, 0x00	; 0
    3acc:	0e 94 fb 12 	call	0x25f6	; 0x25f6 <nrk_led_clr>
    pause();
    3ad0:	0e 94 38 1d 	call	0x3a70	; 0x3a70 <pause>
}
    3ad4:	08 95       	ret

00003ad6 <blink_morse_code_error>:
    pause();
}


void blink_morse_code_error( uint8_t number )
{
    3ad6:	ff 92       	push	r15
    3ad8:	0f 93       	push	r16
    3ada:	1f 93       	push	r17
    3adc:	df 93       	push	r29
    3ade:	cf 93       	push	r28
    3ae0:	00 d0       	rcall	.+0      	; 0x3ae2 <blink_morse_code_error+0xc>
    3ae2:	0f 92       	push	r0
    3ae4:	cd b7       	in	r28, 0x3d	; 61
    3ae6:	de b7       	in	r29, 0x3e	; 62
    uint8_t i;
    char str[3];

    sprintf( str,"%d",number );
    3ae8:	00 d0       	rcall	.+0      	; 0x3aea <blink_morse_code_error+0x14>
    3aea:	00 d0       	rcall	.+0      	; 0x3aec <blink_morse_code_error+0x16>
    3aec:	00 d0       	rcall	.+0      	; 0x3aee <blink_morse_code_error+0x18>
    3aee:	ed b7       	in	r30, 0x3d	; 61
    3af0:	fe b7       	in	r31, 0x3e	; 62
    3af2:	31 96       	adiw	r30, 0x01	; 1
    3af4:	8e 01       	movw	r16, r28
    3af6:	0f 5f       	subi	r16, 0xFF	; 255
    3af8:	1f 4f       	sbci	r17, 0xFF	; 255
    3afa:	ad b7       	in	r26, 0x3d	; 61
    3afc:	be b7       	in	r27, 0x3e	; 62
    3afe:	12 96       	adiw	r26, 0x02	; 2
    3b00:	1c 93       	st	X, r17
    3b02:	0e 93       	st	-X, r16
    3b04:	11 97       	sbiw	r26, 0x01	; 1
    3b06:	2f e1       	ldi	r18, 0x1F	; 31
    3b08:	32 e0       	ldi	r19, 0x02	; 2
    3b0a:	33 83       	std	Z+3, r19	; 0x03
    3b0c:	22 83       	std	Z+2, r18	; 0x02
    3b0e:	84 83       	std	Z+4, r24	; 0x04
    3b10:	15 82       	std	Z+5, r1	; 0x05
    3b12:	0e 94 d5 4c 	call	0x99aa	; 0x99aa <sprintf>
    3b16:	ff 24       	eor	r15, r15
    3b18:	8d b7       	in	r24, 0x3d	; 61
    3b1a:	9e b7       	in	r25, 0x3e	; 62
    3b1c:	06 96       	adiw	r24, 0x06	; 6
    3b1e:	0f b6       	in	r0, 0x3f	; 63
    3b20:	f8 94       	cli
    3b22:	9e bf       	out	0x3e, r25	; 62
    3b24:	0f be       	out	0x3f, r0	; 63
    3b26:	8d bf       	out	0x3d, r24	; 61
    3b28:	71 c0       	rjmp	.+226    	; 0x3c0c <blink_morse_code_error+0x136>

    for(i=0; i<strlen(str); i++ )
    {
        switch( str[i])
    3b2a:	a0 0f       	add	r26, r16
    3b2c:	b1 1f       	adc	r27, r17
    3b2e:	8c 91       	ld	r24, X
    3b30:	84 33       	cpi	r24, 0x34	; 52
    3b32:	d1 f1       	breq	.+116    	; 0x3ba8 <blink_morse_code_error+0xd2>
    3b34:	85 33       	cpi	r24, 0x35	; 53
    3b36:	70 f4       	brcc	.+28     	; 0x3b54 <blink_morse_code_error+0x7e>
    3b38:	81 33       	cpi	r24, 0x31	; 49
    3b3a:	f9 f0       	breq	.+62     	; 0x3b7a <blink_morse_code_error+0xa4>
    3b3c:	82 33       	cpi	r24, 0x32	; 50
    3b3e:	20 f4       	brcc	.+8      	; 0x3b48 <blink_morse_code_error+0x72>
    3b40:	80 33       	cpi	r24, 0x30	; 48
    3b42:	09 f0       	breq	.+2      	; 0x3b46 <blink_morse_code_error+0x70>
    3b44:	5c c0       	rjmp	.+184    	; 0x3bfe <blink_morse_code_error+0x128>
    3b46:	16 c0       	rjmp	.+44     	; 0x3b74 <blink_morse_code_error+0x9e>
    3b48:	82 33       	cpi	r24, 0x32	; 50
    3b4a:	11 f1       	breq	.+68     	; 0x3b90 <blink_morse_code_error+0xba>
    3b4c:	83 33       	cpi	r24, 0x33	; 51
    3b4e:	09 f0       	breq	.+2      	; 0x3b52 <blink_morse_code_error+0x7c>
    3b50:	56 c0       	rjmp	.+172    	; 0x3bfe <blink_morse_code_error+0x128>
    3b52:	23 c0       	rjmp	.+70     	; 0x3b9a <blink_morse_code_error+0xc4>
    3b54:	87 33       	cpi	r24, 0x37	; 55
    3b56:	c9 f1       	breq	.+114    	; 0x3bca <blink_morse_code_error+0xf4>
    3b58:	88 33       	cpi	r24, 0x38	; 56
    3b5a:	30 f4       	brcc	.+12     	; 0x3b68 <blink_morse_code_error+0x92>
    3b5c:	85 33       	cpi	r24, 0x35	; 53
    3b5e:	69 f1       	breq	.+90     	; 0x3bba <blink_morse_code_error+0xe4>
    3b60:	86 33       	cpi	r24, 0x36	; 54
    3b62:	09 f0       	breq	.+2      	; 0x3b66 <blink_morse_code_error+0x90>
    3b64:	4c c0       	rjmp	.+152    	; 0x3bfe <blink_morse_code_error+0x128>
    3b66:	2c c0       	rjmp	.+88     	; 0x3bc0 <blink_morse_code_error+0xea>
    3b68:	88 33       	cpi	r24, 0x38	; 56
    3b6a:	b1 f1       	breq	.+108    	; 0x3bd8 <blink_morse_code_error+0x102>
    3b6c:	89 33       	cpi	r24, 0x39	; 57
    3b6e:	09 f0       	breq	.+2      	; 0x3b72 <blink_morse_code_error+0x9c>
    3b70:	46 c0       	rjmp	.+140    	; 0x3bfe <blink_morse_code_error+0x128>
    3b72:	3b c0       	rjmp	.+118    	; 0x3bea <blink_morse_code_error+0x114>
        {
        case '0':
            blink_dash();
    3b74:	0e 94 5a 1d 	call	0x3ab4	; 0x3ab4 <blink_dash>
    3b78:	02 c0       	rjmp	.+4      	; 0x3b7e <blink_morse_code_error+0xa8>
            blink_dash();
            blink_dash();
            blink_dash();
            break;
        case '1':
            blink_dot();
    3b7a:	0e 94 4d 1d 	call	0x3a9a	; 0x3a9a <blink_dot>
            blink_dash();
    3b7e:	0e 94 5a 1d 	call	0x3ab4	; 0x3ab4 <blink_dash>
            blink_dash();
    3b82:	0e 94 5a 1d 	call	0x3ab4	; 0x3ab4 <blink_dash>
            blink_dash();
    3b86:	0e 94 5a 1d 	call	0x3ab4	; 0x3ab4 <blink_dash>
            blink_dash();
    3b8a:	0e 94 5a 1d 	call	0x3ab4	; 0x3ab4 <blink_dash>
    3b8e:	37 c0       	rjmp	.+110    	; 0x3bfe <blink_morse_code_error+0x128>
            break;
        case '2':
            blink_dot();
    3b90:	0e 94 4d 1d 	call	0x3a9a	; 0x3a9a <blink_dot>
            blink_dot();
    3b94:	0e 94 4d 1d 	call	0x3a9a	; 0x3a9a <blink_dot>
    3b98:	f4 cf       	rjmp	.-24     	; 0x3b82 <blink_morse_code_error+0xac>
            blink_dash();
            blink_dash();
            blink_dash();
            break;
        case '3':
            blink_dot();
    3b9a:	0e 94 4d 1d 	call	0x3a9a	; 0x3a9a <blink_dot>
            blink_dot();
    3b9e:	0e 94 4d 1d 	call	0x3a9a	; 0x3a9a <blink_dot>
            blink_dot();
    3ba2:	0e 94 4d 1d 	call	0x3a9a	; 0x3a9a <blink_dot>
    3ba6:	ef cf       	rjmp	.-34     	; 0x3b86 <blink_morse_code_error+0xb0>
            blink_dash();
            blink_dash();
            break;
        case '4':
            blink_dot();
    3ba8:	0e 94 4d 1d 	call	0x3a9a	; 0x3a9a <blink_dot>
            blink_dot();
    3bac:	0e 94 4d 1d 	call	0x3a9a	; 0x3a9a <blink_dot>
            blink_dot();
    3bb0:	0e 94 4d 1d 	call	0x3a9a	; 0x3a9a <blink_dot>
            blink_dot();
    3bb4:	0e 94 4d 1d 	call	0x3a9a	; 0x3a9a <blink_dot>
    3bb8:	e8 cf       	rjmp	.-48     	; 0x3b8a <blink_morse_code_error+0xb4>
            blink_dash();
            break;
        case '5':
            blink_dot();
    3bba:	0e 94 4d 1d 	call	0x3a9a	; 0x3a9a <blink_dot>
    3bbe:	02 c0       	rjmp	.+4      	; 0x3bc4 <blink_morse_code_error+0xee>
            blink_dot();
            blink_dot();
            blink_dot();
            break;
        case '6':
            blink_dash();
    3bc0:	0e 94 5a 1d 	call	0x3ab4	; 0x3ab4 <blink_dash>
            blink_dot();
    3bc4:	0e 94 4d 1d 	call	0x3a9a	; 0x3a9a <blink_dot>
    3bc8:	04 c0       	rjmp	.+8      	; 0x3bd2 <blink_morse_code_error+0xfc>
            blink_dot();
            blink_dot();
            blink_dot();
            break;
        case '7':
            blink_dash();
    3bca:	0e 94 5a 1d 	call	0x3ab4	; 0x3ab4 <blink_dash>
            blink_dash();
    3bce:	0e 94 5a 1d 	call	0x3ab4	; 0x3ab4 <blink_dash>
            blink_dot();
    3bd2:	0e 94 4d 1d 	call	0x3a9a	; 0x3a9a <blink_dot>
    3bd6:	06 c0       	rjmp	.+12     	; 0x3be4 <blink_morse_code_error+0x10e>
            blink_dot();
            blink_dot();
            break;
        case '8':
            blink_dash();
    3bd8:	0e 94 5a 1d 	call	0x3ab4	; 0x3ab4 <blink_dash>
            blink_dash();
    3bdc:	0e 94 5a 1d 	call	0x3ab4	; 0x3ab4 <blink_dash>
            blink_dash();
    3be0:	0e 94 5a 1d 	call	0x3ab4	; 0x3ab4 <blink_dash>
            blink_dot();
    3be4:	0e 94 4d 1d 	call	0x3a9a	; 0x3a9a <blink_dot>
    3be8:	08 c0       	rjmp	.+16     	; 0x3bfa <blink_morse_code_error+0x124>
            blink_dot();
            break;
        case '9':
            blink_dash();
    3bea:	0e 94 5a 1d 	call	0x3ab4	; 0x3ab4 <blink_dash>
            blink_dash();
    3bee:	0e 94 5a 1d 	call	0x3ab4	; 0x3ab4 <blink_dash>
            blink_dash();
    3bf2:	0e 94 5a 1d 	call	0x3ab4	; 0x3ab4 <blink_dash>
            blink_dash();
    3bf6:	0e 94 5a 1d 	call	0x3ab4	; 0x3ab4 <blink_dash>
            blink_dot();
    3bfa:	0e 94 4d 1d 	call	0x3a9a	; 0x3a9a <blink_dot>
            break;
        }
        pause();
    3bfe:	0e 94 38 1d 	call	0x3a70	; 0x3a70 <pause>
        pause();
    3c02:	0e 94 38 1d 	call	0x3a70	; 0x3a70 <pause>
        pause();
    3c06:	0e 94 38 1d 	call	0x3a70	; 0x3a70 <pause>
    uint8_t i;
    char str[3];

    sprintf( str,"%d",number );

    for(i=0; i<strlen(str); i++ )
    3c0a:	f3 94       	inc	r15
    3c0c:	f8 01       	movw	r30, r16
    3c0e:	01 90       	ld	r0, Z+
    3c10:	00 20       	and	r0, r0
    3c12:	e9 f7       	brne	.-6      	; 0x3c0e <blink_morse_code_error+0x138>
    3c14:	31 97       	sbiw	r30, 0x01	; 1
    3c16:	e0 1b       	sub	r30, r16
    3c18:	f1 0b       	sbc	r31, r17
    3c1a:	af 2d       	mov	r26, r15
    3c1c:	b0 e0       	ldi	r27, 0x00	; 0
    3c1e:	ae 17       	cp	r26, r30
    3c20:	bf 07       	cpc	r27, r31
    3c22:	08 f4       	brcc	.+2      	; 0x3c26 <blink_morse_code_error+0x150>
    3c24:	82 cf       	rjmp	.-252    	; 0x3b2a <blink_morse_code_error+0x54>
        pause();
        pause();
        pause();
    }

}
    3c26:	0f 90       	pop	r0
    3c28:	0f 90       	pop	r0
    3c2a:	0f 90       	pop	r0
    3c2c:	cf 91       	pop	r28
    3c2e:	df 91       	pop	r29
    3c30:	1f 91       	pop	r17
    3c32:	0f 91       	pop	r16
    3c34:	ff 90       	pop	r15
    3c36:	08 95       	ret

00003c38 <nrk_error_print>:
}

int8_t nrk_error_print ()
{
    int8_t t=0,i=0;
    if (error_num == 0)
    3c38:	80 91 33 06 	lds	r24, 0x0633
    3c3c:	88 23       	and	r24, r24
    3c3e:	09 f4       	brne	.+2      	; 0x3c42 <nrk_error_print+0xa>
    3c40:	9b c0       	rjmp	.+310    	; 0x3d78 <nrk_error_print+0x140>
    while (1)
    {

#endif

        nrk_kprintf (PSTR ("*NRK ERROR("));
    3c42:	82 e5       	ldi	r24, 0x52	; 82
    3c44:	94 e0       	ldi	r25, 0x04	; 4
    3c46:	0e 94 a9 13 	call	0x2752	; 0x2752 <nrk_kprintf>
        printf ("%d", error_task);
    3c4a:	00 d0       	rcall	.+0      	; 0x3c4c <nrk_error_print+0x14>
    3c4c:	00 d0       	rcall	.+0      	; 0x3c4e <nrk_error_print+0x16>
    3c4e:	ed b7       	in	r30, 0x3d	; 61
    3c50:	fe b7       	in	r31, 0x3e	; 62
    3c52:	31 96       	adiw	r30, 0x01	; 1
    3c54:	8f e1       	ldi	r24, 0x1F	; 31
    3c56:	92 e0       	ldi	r25, 0x02	; 2
    3c58:	ad b7       	in	r26, 0x3d	; 61
    3c5a:	be b7       	in	r27, 0x3e	; 62
    3c5c:	12 96       	adiw	r26, 0x02	; 2
    3c5e:	9c 93       	st	X, r25
    3c60:	8e 93       	st	-X, r24
    3c62:	11 97       	sbiw	r26, 0x01	; 1
    3c64:	80 91 3f 04 	lds	r24, 0x043F
    3c68:	82 83       	std	Z+2, r24	; 0x02
    3c6a:	13 82       	std	Z+3, r1	; 0x03
    3c6c:	0e 94 c3 4c 	call	0x9986	; 0x9986 <printf>
        nrk_kprintf (PSTR ("): "));
    3c70:	0f 90       	pop	r0
    3c72:	0f 90       	pop	r0
    3c74:	0f 90       	pop	r0
    3c76:	0f 90       	pop	r0
    3c78:	8e e4       	ldi	r24, 0x4E	; 78
    3c7a:	94 e0       	ldi	r25, 0x04	; 4
    3c7c:	0e 94 a9 13 	call	0x2752	; 0x2752 <nrk_kprintf>
        if (error_num > NRK_NUM_ERRORS)
    3c80:	80 91 33 06 	lds	r24, 0x0633
    3c84:	88 31       	cpi	r24, 0x18	; 24
    3c86:	10 f0       	brcs	.+4      	; 0x3c8c <nrk_error_print+0x54>
            error_num = NRK_UNKOWN;
    3c88:	10 92 33 06 	sts	0x0633, r1
        switch (error_num)
    3c8c:	80 91 33 06 	lds	r24, 0x0633
    3c90:	90 e0       	ldi	r25, 0x00	; 0
    3c92:	fc 01       	movw	r30, r24
    3c94:	31 97       	sbiw	r30, 0x01	; 1
    3c96:	e6 31       	cpi	r30, 0x16	; 22
    3c98:	f1 05       	cpc	r31, r1
    3c9a:	08 f0       	brcs	.+2      	; 0x3c9e <nrk_error_print+0x66>
    3c9c:	4a c0       	rjmp	.+148    	; 0x3d32 <nrk_error_print+0xfa>
    3c9e:	ea 5b       	subi	r30, 0xBA	; 186
    3ca0:	ff 4f       	sbci	r31, 0xFF	; 255
    3ca2:	ee 0f       	add	r30, r30
    3ca4:	ff 1f       	adc	r31, r31
    3ca6:	05 90       	lpm	r0, Z+
    3ca8:	f4 91       	lpm	r31, Z+
    3caa:	e0 2d       	mov	r30, r0
    3cac:	09 94       	ijmp
        {
        case NRK_PERIOD_OVERFLOW:
            nrk_kprintf (PSTR ("Task period too large. Period must be less than 61 seconds."));
    3cae:	82 e1       	ldi	r24, 0x12	; 18
    3cb0:	94 e0       	ldi	r25, 0x04	; 4
    3cb2:	41 c0       	rjmp	.+130    	; 0x3d36 <nrk_error_print+0xfe>
            break;
        case NRK_STACK_TOO_SMALL:
            nrk_kprintf (PSTR ("Stack was not defined as large enough!"));
    3cb4:	8b ee       	ldi	r24, 0xEB	; 235
    3cb6:	93 e0       	ldi	r25, 0x03	; 3
    3cb8:	3e c0       	rjmp	.+124    	; 0x3d36 <nrk_error_print+0xfe>
            break;
        case NRK_STACK_OVERFLOW:
            nrk_kprintf (PSTR ("Task Stack Overflow"));
    3cba:	87 ed       	ldi	r24, 0xD7	; 215
    3cbc:	93 e0       	ldi	r25, 0x03	; 3
    3cbe:	3b c0       	rjmp	.+118    	; 0x3d36 <nrk_error_print+0xfe>
            break;
        case NRK_INVALID_STACK_POINTER:
            nrk_kprintf (PSTR ("Invalid Stack Pointer"));
    3cc0:	81 ec       	ldi	r24, 0xC1	; 193
    3cc2:	93 e0       	ldi	r25, 0x03	; 3
    3cc4:	38 c0       	rjmp	.+112    	; 0x3d36 <nrk_error_print+0xfe>
            break;
        case NRK_RESERVE_ERROR:
            nrk_kprintf (PSTR ("Reserve Error in Scheduler"));
    3cc6:	86 ea       	ldi	r24, 0xA6	; 166
    3cc8:	93 e0       	ldi	r25, 0x03	; 3
    3cca:	35 c0       	rjmp	.+106    	; 0x3d36 <nrk_error_print+0xfe>
            break;
        case NRK_RESERVE_VIOLATED:
            nrk_kprintf (PSTR ("Task Reserve Violated"));
    3ccc:	80 e9       	ldi	r24, 0x90	; 144
    3cce:	93 e0       	ldi	r25, 0x03	; 3
    3cd0:	32 c0       	rjmp	.+100    	; 0x3d36 <nrk_error_print+0xfe>
            break;
        case NRK_WAKEUP_MISSED:
            nrk_kprintf (PSTR ("Scheduler Missed Wakeup"));
    3cd2:	88 e7       	ldi	r24, 0x78	; 120
    3cd4:	93 e0       	ldi	r25, 0x03	; 3
    3cd6:	2f c0       	rjmp	.+94     	; 0x3d36 <nrk_error_print+0xfe>
            break;
        case NRK_DUP_TASK_ID:
            nrk_kprintf (PSTR ("Duplicated Task ID"));
    3cd8:	85 e6       	ldi	r24, 0x65	; 101
    3cda:	93 e0       	ldi	r25, 0x03	; 3
    3cdc:	2c c0       	rjmp	.+88     	; 0x3d36 <nrk_error_print+0xfe>
            break;
        case NRK_BAD_STARTUP:
            nrk_kprintf (PSTR ("Unexpected Restart"));
    3cde:	82 e5       	ldi	r24, 0x52	; 82
    3ce0:	93 e0       	ldi	r25, 0x03	; 3
    3ce2:	29 c0       	rjmp	.+82     	; 0x3d36 <nrk_error_print+0xfe>
            break;
        case NRK_STACK_SMASH:
            nrk_kprintf (PSTR ("Idle or Kernel Stack Overflow"));
    3ce4:	84 e3       	ldi	r24, 0x34	; 52
    3ce6:	93 e0       	ldi	r25, 0x03	; 3
    3ce8:	26 c0       	rjmp	.+76     	; 0x3d36 <nrk_error_print+0xfe>
            break;
        case NRK_EXTRA_TASK:
            nrk_kprintf (PSTR ("Extra Task started, is nrk_cfg.h ok?"));
    3cea:	8f e0       	ldi	r24, 0x0F	; 15
    3cec:	93 e0       	ldi	r25, 0x03	; 3
    3cee:	23 c0       	rjmp	.+70     	; 0x3d36 <nrk_error_print+0xfe>
            break;
        case NRK_LOW_VOLTAGE:
            nrk_kprintf (PSTR ("Low Voltage"));
    3cf0:	83 e0       	ldi	r24, 0x03	; 3
    3cf2:	93 e0       	ldi	r25, 0x03	; 3
    3cf4:	20 c0       	rjmp	.+64     	; 0x3d36 <nrk_error_print+0xfe>
            break;
        case NRK_SEG_FAULT:
            nrk_kprintf (PSTR ("Unhandled Interrupt Vector"));
    3cf6:	88 ee       	ldi	r24, 0xE8	; 232
    3cf8:	92 e0       	ldi	r25, 0x02	; 2
    3cfa:	1d c0       	rjmp	.+58     	; 0x3d36 <nrk_error_print+0xfe>
            break;
        case NRK_TIMER_OVERFLOW:
            nrk_kprintf (PSTR ("Timer Overflow"));
    3cfc:	89 ed       	ldi	r24, 0xD9	; 217
    3cfe:	92 e0       	ldi	r25, 0x02	; 2
    3d00:	1a c0       	rjmp	.+52     	; 0x3d36 <nrk_error_print+0xfe>
            break;
        case NRK_SW_WATCHDOG_ERROR:
            nrk_kprintf (PSTR ("SW Watchdog Restart"));
    3d02:	85 ec       	ldi	r24, 0xC5	; 197
    3d04:	92 e0       	ldi	r25, 0x02	; 2
    3d06:	17 c0       	rjmp	.+46     	; 0x3d36 <nrk_error_print+0xfe>
            break;
        case NRK_WATCHDOG_ERROR:
            nrk_kprintf (PSTR ("Watchdog Restart"));
    3d08:	84 eb       	ldi	r24, 0xB4	; 180
    3d0a:	92 e0       	ldi	r25, 0x02	; 2
    3d0c:	14 c0       	rjmp	.+40     	; 0x3d36 <nrk_error_print+0xfe>
            break;
        case NRK_DEVICE_DRIVER:
            nrk_kprintf (PSTR ("Device Driver Error"));
    3d0e:	80 ea       	ldi	r24, 0xA0	; 160
    3d10:	92 e0       	ldi	r25, 0x02	; 2
    3d12:	11 c0       	rjmp	.+34     	; 0x3d36 <nrk_error_print+0xfe>
            break;
        case NRK_UNIMPLEMENTED:
            nrk_kprintf (PSTR ("Kernel function not implemented"));
    3d14:	80 e8       	ldi	r24, 0x80	; 128
    3d16:	92 e0       	ldi	r25, 0x02	; 2
    3d18:	0e c0       	rjmp	.+28     	; 0x3d36 <nrk_error_print+0xfe>
            break;
        case NRK_SIGNAL_CREATE_ERROR:
            nrk_kprintf (PSTR ("Failed to create Signal"));
    3d1a:	88 e6       	ldi	r24, 0x68	; 104
    3d1c:	92 e0       	ldi	r25, 0x02	; 2
    3d1e:	0b c0       	rjmp	.+22     	; 0x3d36 <nrk_error_print+0xfe>
            break;
        case NRK_SEMAPHORE_CREATE_ERROR:
            nrk_kprintf (PSTR ("Failed to create Semaphore"));
    3d20:	8d e4       	ldi	r24, 0x4D	; 77
    3d22:	92 e0       	ldi	r25, 0x02	; 2
    3d24:	08 c0       	rjmp	.+16     	; 0x3d36 <nrk_error_print+0xfe>
            break;
        case NRK_BOD_ERROR:
            nrk_kprintf (PSTR ("Brown Out Detect"));
    3d26:	8c e3       	ldi	r24, 0x3C	; 60
    3d28:	92 e0       	ldi	r25, 0x02	; 2
    3d2a:	05 c0       	rjmp	.+10     	; 0x3d36 <nrk_error_print+0xfe>
            break;
        case NRK_EXT_RST_ERROR:
            nrk_kprintf (PSTR ("External Reset"));
    3d2c:	8d e2       	ldi	r24, 0x2D	; 45
    3d2e:	92 e0       	ldi	r25, 0x02	; 2
    3d30:	02 c0       	rjmp	.+4      	; 0x3d36 <nrk_error_print+0xfe>
            break;
        default:
            nrk_kprintf (PSTR ("UNKOWN"));
    3d32:	86 e2       	ldi	r24, 0x26	; 38
    3d34:	92 e0       	ldi	r25, 0x02	; 2
    3d36:	0e 94 a9 13 	call	0x2752	; 0x2752 <nrk_kprintf>
        }
        putchar ('\r');
    3d3a:	60 91 a7 08 	lds	r22, 0x08A7
    3d3e:	70 91 a8 08 	lds	r23, 0x08A8
    3d42:	8d e0       	ldi	r24, 0x0D	; 13
    3d44:	90 e0       	ldi	r25, 0x00	; 0
    3d46:	0e 94 97 4c 	call	0x992e	; 0x992e <fputc>
        putchar ('\n');
    3d4a:	60 91 a7 08 	lds	r22, 0x08A7
    3d4e:	70 91 a8 08 	lds	r23, 0x08A8
    3d52:	8a e0       	ldi	r24, 0x0A	; 10
    3d54:	90 e0       	ldi	r25, 0x00	; 0
    3d56:	0e 94 97 4c 	call	0x992e	; 0x992e <fputc>
                        ::);
#endif

#ifdef NRK_REBOOT_ON_ERROR
        // wait for watchdog to kick in
        if(error_num!=NRK_WATCHDOG_ERROR && error_num!=NRK_BOD_ERROR && error_num!=NRK_EXT_RST_ERROR)
    3d5a:	80 91 33 06 	lds	r24, 0x0633
    3d5e:	80 31       	cpi	r24, 0x10	; 16
    3d60:	49 f0       	breq	.+18     	; 0x3d74 <nrk_error_print+0x13c>
    3d62:	83 31       	cpi	r24, 0x13	; 19
    3d64:	39 f0       	breq	.+14     	; 0x3d74 <nrk_error_print+0x13c>
    3d66:	84 31       	cpi	r24, 0x14	; 20
    3d68:	29 f0       	breq	.+10     	; 0x3d74 <nrk_error_print+0x13c>
        {
            nrk_watchdog_enable();
    3d6a:	0e 94 f6 2f 	call	0x5fec	; 0x5fec <nrk_watchdog_enable>
            nrk_int_disable();
    3d6e:	0e 94 60 14 	call	0x28c0	; 0x28c0 <nrk_int_disable>
    3d72:	ff cf       	rjmp	.-2      	; 0x3d72 <nrk_error_print+0x13a>
        pause();
        blink_morse_code_error( error_num);
    }

#endif  /*  */
    error_num = 0;
    3d74:	10 92 33 06 	sts	0x0633, r1
    return t;
}
    3d78:	80 e0       	ldi	r24, 0x00	; 0
    3d7a:	08 95       	ret

00003d7c <_nrk_log_error>:
    return nrk_cur_task_TCB->errno;
}

#ifdef NRK_LOG_ERRORS
void _nrk_log_error(uint8_t error_num, uint8_t error_task)
{
    3d7c:	ff 92       	push	r15
    3d7e:	0f 93       	push	r16
    3d80:	1f 93       	push	r17
    3d82:	08 2f       	mov	r16, r24
    3d84:	f6 2e       	mov	r15, r22

    // 1) Load error cnt and add 1
    error_cnt=nrk_eeprom_read_byte(NRK_ERROR_EEPROM_INDEX);
    3d86:	80 e0       	ldi	r24, 0x00	; 0
    3d88:	92 e0       	ldi	r25, 0x02	; 2
    3d8a:	0e 94 5d 14 	call	0x28ba	; 0x28ba <nrk_eeprom_read_byte>
    error_cnt++;
    3d8e:	8f 5f       	subi	r24, 0xFF	; 255
    3d90:	80 93 86 03 	sts	0x0386, r24
    if(error_cnt==255) error_cnt=0;
    3d94:	8f 3f       	cpi	r24, 0xFF	; 255
    3d96:	11 f4       	brne	.+4      	; 0x3d9c <_nrk_log_error+0x20>
    3d98:	10 92 86 03 	sts	0x0386, r1
    // 2) write error
    nrk_eeprom_write_byte(NRK_ERROR_EEPROM_INDEX+1+((uint16_t)error_cnt*6),error_num);
    3d9c:	80 91 86 03 	lds	r24, 0x0386
    3da0:	16 e0       	ldi	r17, 0x06	; 6
    3da2:	81 9f       	mul	r24, r17
    3da4:	c0 01       	movw	r24, r0
    3da6:	11 24       	eor	r1, r1
    3da8:	8f 5f       	subi	r24, 0xFF	; 255
    3daa:	9d 4f       	sbci	r25, 0xFD	; 253
    3dac:	60 2f       	mov	r22, r16
    3dae:	0e 94 ea 13 	call	0x27d4	; 0x27d4 <nrk_eeprom_write_byte>
    nrk_eeprom_write_byte(NRK_ERROR_EEPROM_INDEX+1+((uint16_t)error_cnt*6+1),error_task);
    3db2:	80 91 86 03 	lds	r24, 0x0386
    3db6:	81 9f       	mul	r24, r17
    3db8:	c0 01       	movw	r24, r0
    3dba:	11 24       	eor	r1, r1
    3dbc:	8e 5f       	subi	r24, 0xFE	; 254
    3dbe:	9d 4f       	sbci	r25, 0xFD	; 253
    3dc0:	6f 2d       	mov	r22, r15
    3dc2:	0e 94 ea 13 	call	0x27d4	; 0x27d4 <nrk_eeprom_write_byte>
    nrk_eeprom_write_byte(NRK_ERROR_EEPROM_INDEX+1+((uint16_t)error_cnt*6+2),(nrk_system_time.secs>>24)&0xff);
    3dc6:	80 91 86 03 	lds	r24, 0x0386
    3dca:	23 e0       	ldi	r18, 0x03	; 3
    3dcc:	82 9f       	mul	r24, r18
    3dce:	c0 01       	movw	r24, r0
    3dd0:	11 24       	eor	r1, r1
    3dd2:	88 0f       	add	r24, r24
    3dd4:	99 1f       	adc	r25, r25
    3dd6:	20 91 35 08 	lds	r18, 0x0835
    3dda:	30 91 36 08 	lds	r19, 0x0836
    3dde:	40 91 37 08 	lds	r20, 0x0837
    3de2:	50 91 38 08 	lds	r21, 0x0838
    3de6:	25 2f       	mov	r18, r21
    3de8:	33 27       	eor	r19, r19
    3dea:	44 27       	eor	r20, r20
    3dec:	55 27       	eor	r21, r21
    3dee:	8d 5f       	subi	r24, 0xFD	; 253
    3df0:	9d 4f       	sbci	r25, 0xFD	; 253
    3df2:	62 2f       	mov	r22, r18
    3df4:	0e 94 ea 13 	call	0x27d4	; 0x27d4 <nrk_eeprom_write_byte>
    nrk_eeprom_write_byte(NRK_ERROR_EEPROM_INDEX+1+((uint16_t)error_cnt*6+3),(nrk_system_time.secs>>16)&0xff);
    3df8:	80 91 86 03 	lds	r24, 0x0386
    3dfc:	81 9f       	mul	r24, r17
    3dfe:	c0 01       	movw	r24, r0
    3e00:	11 24       	eor	r1, r1
    3e02:	20 91 35 08 	lds	r18, 0x0835
    3e06:	30 91 36 08 	lds	r19, 0x0836
    3e0a:	40 91 37 08 	lds	r20, 0x0837
    3e0e:	50 91 38 08 	lds	r21, 0x0838
    3e12:	9a 01       	movw	r18, r20
    3e14:	44 27       	eor	r20, r20
    3e16:	55 27       	eor	r21, r21
    3e18:	8c 5f       	subi	r24, 0xFC	; 252
    3e1a:	9d 4f       	sbci	r25, 0xFD	; 253
    3e1c:	62 2f       	mov	r22, r18
    3e1e:	0e 94 ea 13 	call	0x27d4	; 0x27d4 <nrk_eeprom_write_byte>
    nrk_eeprom_write_byte(NRK_ERROR_EEPROM_INDEX+1+((uint16_t)error_cnt*6+4),(nrk_system_time.secs>>8)&0xff);
    3e22:	80 91 86 03 	lds	r24, 0x0386
    3e26:	81 9f       	mul	r24, r17
    3e28:	c0 01       	movw	r24, r0
    3e2a:	11 24       	eor	r1, r1
    3e2c:	20 91 35 08 	lds	r18, 0x0835
    3e30:	30 91 36 08 	lds	r19, 0x0836
    3e34:	40 91 37 08 	lds	r20, 0x0837
    3e38:	50 91 38 08 	lds	r21, 0x0838
    3e3c:	23 2f       	mov	r18, r19
    3e3e:	34 2f       	mov	r19, r20
    3e40:	45 2f       	mov	r20, r21
    3e42:	55 27       	eor	r21, r21
    3e44:	8b 5f       	subi	r24, 0xFB	; 251
    3e46:	9d 4f       	sbci	r25, 0xFD	; 253
    3e48:	62 2f       	mov	r22, r18
    3e4a:	0e 94 ea 13 	call	0x27d4	; 0x27d4 <nrk_eeprom_write_byte>
    nrk_eeprom_write_byte(NRK_ERROR_EEPROM_INDEX+1+((uint16_t)error_cnt*6+5),(nrk_system_time.secs)&0xff);
    3e4e:	80 91 86 03 	lds	r24, 0x0386
    3e52:	81 9f       	mul	r24, r17
    3e54:	c0 01       	movw	r24, r0
    3e56:	11 24       	eor	r1, r1
    3e58:	8a 5f       	subi	r24, 0xFA	; 250
    3e5a:	9d 4f       	sbci	r25, 0xFD	; 253
    3e5c:	60 91 35 08 	lds	r22, 0x0835
    3e60:	0e 94 ea 13 	call	0x27d4	; 0x27d4 <nrk_eeprom_write_byte>
    // 3) write error cnt back
    nrk_eeprom_write_byte(NRK_ERROR_EEPROM_INDEX,error_cnt);
    3e64:	80 e0       	ldi	r24, 0x00	; 0
    3e66:	92 e0       	ldi	r25, 0x02	; 2
    3e68:	60 91 86 03 	lds	r22, 0x0386
    3e6c:	0e 94 ea 13 	call	0x27d4	; 0x27d4 <nrk_eeprom_write_byte>
}
    3e70:	1f 91       	pop	r17
    3e72:	0f 91       	pop	r16
    3e74:	ff 90       	pop	r15
    3e76:	08 95       	ret

00003e78 <nrk_kernel_error_add>:
    nrk_error_print ();
#endif  /*  */
}

void nrk_kernel_error_add (uint8_t n, uint8_t task)
{
    3e78:	1f 93       	push	r17
    3e7a:	18 2f       	mov	r17, r24
    error_num = n;
    3e7c:	80 93 33 06 	sts	0x0633, r24
    error_task = task;
    3e80:	60 93 3f 04 	sts	0x043F, r22

#ifdef NRK_LOG_ERRORS
    _nrk_log_error(error_num, error_task);
    3e84:	0e 94 be 1e 	call	0x3d7c	; 0x3d7c <_nrk_log_error>
#endif

#ifdef NRK_REPORT_ERRORS
    nrk_error_print ();
    3e88:	0e 94 1c 1e 	call	0x3c38	; 0x3c38 <nrk_error_print>
    asm volatile("jmp 0x0000\n\t" ::);
#endif

#ifdef NRK_REBOOT_ON_ERROR
    // wait for watchdog to kick in
    if(n!=NRK_WATCHDOG_ERROR && n!=NRK_BOD_ERROR && n!=NRK_EXT_RST_ERROR)
    3e8c:	10 31       	cpi	r17, 0x10	; 16
    3e8e:	49 f0       	breq	.+18     	; 0x3ea2 <nrk_kernel_error_add+0x2a>
    3e90:	13 31       	cpi	r17, 0x13	; 19
    3e92:	39 f0       	breq	.+14     	; 0x3ea2 <nrk_kernel_error_add+0x2a>
    3e94:	14 31       	cpi	r17, 0x14	; 20
    3e96:	29 f0       	breq	.+10     	; 0x3ea2 <nrk_kernel_error_add+0x2a>
    {
        nrk_watchdog_enable();
    3e98:	0e 94 f6 2f 	call	0x5fec	; 0x5fec <nrk_watchdog_enable>
        nrk_int_disable();
    3e9c:	0e 94 60 14 	call	0x28c0	; 0x28c0 <nrk_int_disable>
    3ea0:	ff cf       	rjmp	.-2      	; 0x3ea0 <nrk_kernel_error_add+0x28>
#endif  /*  */




}
    3ea2:	1f 91       	pop	r17
    3ea4:	08 95       	ret

00003ea6 <nrk_error_add>:
}
#endif

void nrk_error_add (uint8_t n)
{
    error_num = n;
    3ea6:	80 93 33 06 	sts	0x0633, r24
    error_task = nrk_cur_task_TCB->task_ID;
    3eaa:	e0 91 3e 08 	lds	r30, 0x083E
    3eae:	f0 91 3f 08 	lds	r31, 0x083F
    3eb2:	60 85       	ldd	r22, Z+8	; 0x08
    3eb4:	60 93 3f 04 	sts	0x043F, r22

#ifdef NRK_LOG_ERRORS
    _nrk_log_error(error_num, error_task);
    3eb8:	0e 94 be 1e 	call	0x3d7c	; 0x3d7c <_nrk_log_error>
#endif

#ifdef NRK_REPORT_ERRORS
    nrk_error_print ();
    3ebc:	0e 94 1c 1e 	call	0x3c38	; 0x3c38 <nrk_error_print>
#endif  /*  */
}
    3ec0:	08 95       	ret

00003ec2 <nrk_stack_check_pid>:
#ifdef NRK_STACK_CHECK

    unsigned int *stk ;  // 2 bytes
    unsigned char *stkc; // 1 byte

    stk  = (unsigned int *)nrk_task_TCB[pid].OSTCBStkBottom;          /* Load stack pointer */
    3ec2:	99 27       	eor	r25, r25
    3ec4:	87 fd       	sbrc	r24, 7
    3ec6:	90 95       	com	r25
    3ec8:	23 e2       	ldi	r18, 0x23	; 35
    3eca:	30 e0       	ldi	r19, 0x00	; 0
    3ecc:	82 9f       	mul	r24, r18
    3ece:	f0 01       	movw	r30, r0
    3ed0:	83 9f       	mul	r24, r19
    3ed2:	f0 0d       	add	r31, r0
    3ed4:	92 9f       	mul	r25, r18
    3ed6:	f0 0d       	add	r31, r0
    3ed8:	11 24       	eor	r1, r1
    3eda:	e7 58       	subi	r30, 0x87	; 135
    3edc:	f8 4f       	sbci	r31, 0xF8	; 248
    3ede:	a2 81       	ldd	r26, Z+2	; 0x02
    3ee0:	b3 81       	ldd	r27, Z+3	; 0x03
    stkc = (unsigned char*)stk;
    if(*stkc != STK_CANARY_VAL)
    3ee2:	8c 91       	ld	r24, X
    3ee4:	85 35       	cpi	r24, 0x55	; 85
    3ee6:	21 f0       	breq	.+8      	; 0x3ef0 <nrk_stack_check_pid+0x2e>
    {
        *stkc=STK_CANARY_VAL;
    3ee8:	85 e5       	ldi	r24, 0x55	; 85
    3eea:	8c 93       	st	X, r24
    3eec:	8f ef       	ldi	r24, 0xFF	; 255
    3eee:	08 95       	ret
        return NRK_ERROR;
    }
    stk  = (unsigned int *)nrk_task_TCB[pid].OSTaskStkPtr;          /* Load stack pointer */
    stkc = (unsigned char*)stk;
    if(stkc > (unsigned char *)RAMEND )
    3ef0:	80 81       	ld	r24, Z
    3ef2:	91 81       	ldd	r25, Z+1	; 0x01
    3ef4:	80 50       	subi	r24, 0x00	; 0
    3ef6:	91 41       	sbci	r25, 0x11	; 17
    3ef8:	10 f4       	brcc	.+4      	; 0x3efe <nrk_stack_check_pid+0x3c>
    3efa:	81 e0       	ldi	r24, 0x01	; 1
    3efc:	08 95       	ret
    {
        nrk_error_add( NRK_INVALID_STACK_POINTER);
    3efe:	82 e1       	ldi	r24, 0x12	; 18
    3f00:	0e 94 53 1f 	call	0x3ea6	; 0x3ea6 <nrk_error_add>
    3f04:	8f ef       	ldi	r24, 0xFF	; 255
        return NRK_ERROR;
    }
#endif
    return NRK_OK;
}
    3f06:	08 95       	ret

00003f08 <dump_stack_info>:
#include <nrk_error.h>
#include <nrk_stack_check.h>
#include <stdio.h>

void dump_stack_info()
{
    3f08:	6f 92       	push	r6
    3f0a:	7f 92       	push	r7
    3f0c:	8f 92       	push	r8
    3f0e:	9f 92       	push	r9
    3f10:	af 92       	push	r10
    3f12:	bf 92       	push	r11
    3f14:	cf 92       	push	r12
    3f16:	df 92       	push	r13
    3f18:	ef 92       	push	r14
    3f1a:	ff 92       	push	r15
    3f1c:	0f 93       	push	r16
    3f1e:	1f 93       	push	r17
    3f20:	cf 93       	push	r28
    3f22:	df 93       	push	r29
    unsigned int *stk;
    unsigned char *stkc;
    uint8_t i;

    nrk_kprintf( PSTR("\r\nSTACK DUMP\r\n"));
    3f24:	8e e5       	ldi	r24, 0x5E	; 94
    3f26:	94 e0       	ldi	r25, 0x04	; 4
    3f28:	0e 94 a9 13 	call	0x2752	; 0x2752 <nrk_kprintf>

    printf( "cur: %d ",nrk_cur_task_TCB->task_ID);
    3f2c:	00 d0       	rcall	.+0      	; 0x3f2e <dump_stack_info+0x26>
    3f2e:	00 d0       	rcall	.+0      	; 0x3f30 <dump_stack_info+0x28>
    3f30:	82 e2       	ldi	r24, 0x22	; 34
    3f32:	92 e0       	ldi	r25, 0x02	; 2
    3f34:	ad b7       	in	r26, 0x3d	; 61
    3f36:	be b7       	in	r27, 0x3e	; 62
    3f38:	12 96       	adiw	r26, 0x02	; 2
    3f3a:	9c 93       	st	X, r25
    3f3c:	8e 93       	st	-X, r24
    3f3e:	11 97       	sbiw	r26, 0x01	; 1
    3f40:	e0 91 3e 08 	lds	r30, 0x083E
    3f44:	f0 91 3f 08 	lds	r31, 0x083F
    3f48:	80 85       	ldd	r24, Z+8	; 0x08
    3f4a:	99 27       	eor	r25, r25
    3f4c:	87 fd       	sbrc	r24, 7
    3f4e:	90 95       	com	r25
    3f50:	14 96       	adiw	r26, 0x04	; 4
    3f52:	9c 93       	st	X, r25
    3f54:	8e 93       	st	-X, r24
    3f56:	13 97       	sbiw	r26, 0x03	; 3
    3f58:	0e 94 c3 4c 	call	0x9986	; 0x9986 <printf>
    stk= (unsigned int *)nrk_cur_task_TCB->OSTCBStkBottom;
    3f5c:	e0 91 3e 08 	lds	r30, 0x083E
    3f60:	f0 91 3f 08 	lds	r31, 0x083F
    3f64:	02 81       	ldd	r16, Z+2	; 0x02
    3f66:	13 81       	ldd	r17, Z+3	; 0x03
    stkc = (unsigned char*)stk;
    printf( "bottom = %x ",(uint16_t)stkc );
    3f68:	8b e2       	ldi	r24, 0x2B	; 43
    3f6a:	92 e0       	ldi	r25, 0x02	; 2
    3f6c:	ed b7       	in	r30, 0x3d	; 61
    3f6e:	fe b7       	in	r31, 0x3e	; 62
    3f70:	92 83       	std	Z+2, r25	; 0x02
    3f72:	81 83       	std	Z+1, r24	; 0x01
    3f74:	14 83       	std	Z+4, r17	; 0x04
    3f76:	03 83       	std	Z+3, r16	; 0x03
    3f78:	0e 94 c3 4c 	call	0x9986	; 0x9986 <printf>
    printf( "canary = %x ",*stkc );
    3f7c:	ed b7       	in	r30, 0x3d	; 61
    3f7e:	fe b7       	in	r31, 0x3e	; 62
    3f80:	31 96       	adiw	r30, 0x01	; 1
    3f82:	28 e3       	ldi	r18, 0x38	; 56
    3f84:	c2 2e       	mov	r12, r18
    3f86:	22 e0       	ldi	r18, 0x02	; 2
    3f88:	d2 2e       	mov	r13, r18
    3f8a:	ad b7       	in	r26, 0x3d	; 61
    3f8c:	be b7       	in	r27, 0x3e	; 62
    3f8e:	12 96       	adiw	r26, 0x02	; 2
    3f90:	dc 92       	st	X, r13
    3f92:	ce 92       	st	-X, r12
    3f94:	11 97       	sbiw	r26, 0x01	; 1
    3f96:	d8 01       	movw	r26, r16
    3f98:	8c 91       	ld	r24, X
    3f9a:	82 83       	std	Z+2, r24	; 0x02
    3f9c:	13 82       	std	Z+3, r1	; 0x03
    3f9e:	0e 94 c3 4c 	call	0x9986	; 0x9986 <printf>
    stk= (unsigned int *)nrk_cur_task_TCB->OSTaskStkPtr;
    stkc = (unsigned char*)stk;
    printf( "stk = %x ",(uint16_t)stkc );
    3fa2:	95 e4       	ldi	r25, 0x45	; 69
    3fa4:	e9 2e       	mov	r14, r25
    3fa6:	92 e0       	ldi	r25, 0x02	; 2
    3fa8:	f9 2e       	mov	r15, r25
    3faa:	ed b7       	in	r30, 0x3d	; 61
    3fac:	fe b7       	in	r31, 0x3e	; 62
    3fae:	f2 82       	std	Z+2, r15	; 0x02
    3fb0:	e1 82       	std	Z+1, r14	; 0x01
    3fb2:	e0 91 3e 08 	lds	r30, 0x083E
    3fb6:	f0 91 3f 08 	lds	r31, 0x083F
    3fba:	80 81       	ld	r24, Z
    3fbc:	91 81       	ldd	r25, Z+1	; 0x01
    3fbe:	ad b7       	in	r26, 0x3d	; 61
    3fc0:	be b7       	in	r27, 0x3e	; 62
    3fc2:	14 96       	adiw	r26, 0x04	; 4
    3fc4:	9c 93       	st	X, r25
    3fc6:	8e 93       	st	-X, r24
    3fc8:	13 97       	sbiw	r26, 0x03	; 3
    3fca:	0e 94 c3 4c 	call	0x9986	; 0x9986 <printf>
    printf( "tcb addr = %x\r\n",(uint16_t)nrk_cur_task_TCB);
    3fce:	0f e4       	ldi	r16, 0x4F	; 79
    3fd0:	12 e0       	ldi	r17, 0x02	; 2
    3fd2:	ed b7       	in	r30, 0x3d	; 61
    3fd4:	fe b7       	in	r31, 0x3e	; 62
    3fd6:	12 83       	std	Z+2, r17	; 0x02
    3fd8:	01 83       	std	Z+1, r16	; 0x01
    3fda:	80 91 3e 08 	lds	r24, 0x083E
    3fde:	90 91 3f 08 	lds	r25, 0x083F
    3fe2:	94 83       	std	Z+4, r25	; 0x04
    3fe4:	83 83       	std	Z+3, r24	; 0x03
    3fe6:	0e 94 c3 4c 	call	0x9986	; 0x9986 <printf>
    3fea:	c9 e7       	ldi	r28, 0x79	; 121
    3fec:	d7 e0       	ldi	r29, 0x07	; 7
    3fee:	aa 24       	eor	r10, r10
    3ff0:	bb 24       	eor	r11, r11
    3ff2:	0f 90       	pop	r0
    3ff4:	0f 90       	pop	r0
    3ff6:	0f 90       	pop	r0
    3ff8:	0f 90       	pop	r0

    for(i=0; i<NRK_MAX_TASKS; i++ )
    {
        stk= (unsigned int *)nrk_task_TCB[i].OSTCBStkBottom;
        stkc = (unsigned char*)stk;
        printf( "%d: bottom = %x ",i,(uint16_t)stkc );
    3ffa:	8f e5       	ldi	r24, 0x5F	; 95
    3ffc:	68 2e       	mov	r6, r24
    3ffe:	82 e0       	ldi	r24, 0x02	; 2
    4000:	78 2e       	mov	r7, r24
        printf( "canary = %x ",*stkc );
    4002:	46 01       	movw	r8, r12
        stk= (unsigned int *)nrk_task_TCB[i].OSTaskStkPtr;
        stkc = (unsigned char*)stk;
        printf( "stk = %x ",(uint16_t)stkc );
    4004:	67 01       	movw	r12, r14
        printf( "tcb addr = %x\r\n",(uint16_t)&nrk_task_TCB[i]);
    4006:	78 01       	movw	r14, r16
    printf( "stk = %x ",(uint16_t)stkc );
    printf( "tcb addr = %x\r\n",(uint16_t)nrk_cur_task_TCB);

    for(i=0; i<NRK_MAX_TASKS; i++ )
    {
        stk= (unsigned int *)nrk_task_TCB[i].OSTCBStkBottom;
    4008:	0a 81       	ldd	r16, Y+2	; 0x02
    400a:	1b 81       	ldd	r17, Y+3	; 0x03
        stkc = (unsigned char*)stk;
        printf( "%d: bottom = %x ",i,(uint16_t)stkc );
    400c:	00 d0       	rcall	.+0      	; 0x400e <dump_stack_info+0x106>
    400e:	00 d0       	rcall	.+0      	; 0x4010 <dump_stack_info+0x108>
    4010:	00 d0       	rcall	.+0      	; 0x4012 <dump_stack_info+0x10a>
    4012:	ed b7       	in	r30, 0x3d	; 61
    4014:	fe b7       	in	r31, 0x3e	; 62
    4016:	31 96       	adiw	r30, 0x01	; 1
    4018:	ad b7       	in	r26, 0x3d	; 61
    401a:	be b7       	in	r27, 0x3e	; 62
    401c:	12 96       	adiw	r26, 0x02	; 2
    401e:	7c 92       	st	X, r7
    4020:	6e 92       	st	-X, r6
    4022:	11 97       	sbiw	r26, 0x01	; 1
    4024:	b3 82       	std	Z+3, r11	; 0x03
    4026:	a2 82       	std	Z+2, r10	; 0x02
    4028:	15 83       	std	Z+5, r17	; 0x05
    402a:	04 83       	std	Z+4, r16	; 0x04
    402c:	0e 94 c3 4c 	call	0x9986	; 0x9986 <printf>
        printf( "canary = %x ",*stkc );
    4030:	0f 90       	pop	r0
    4032:	0f 90       	pop	r0
    4034:	ed b7       	in	r30, 0x3d	; 61
    4036:	fe b7       	in	r31, 0x3e	; 62
    4038:	31 96       	adiw	r30, 0x01	; 1
    403a:	ad b7       	in	r26, 0x3d	; 61
    403c:	be b7       	in	r27, 0x3e	; 62
    403e:	11 96       	adiw	r26, 0x01	; 1
    4040:	8c 92       	st	X, r8
    4042:	11 97       	sbiw	r26, 0x01	; 1
    4044:	12 96       	adiw	r26, 0x02	; 2
    4046:	9c 92       	st	X, r9
    4048:	d8 01       	movw	r26, r16
    404a:	8c 91       	ld	r24, X
    404c:	82 83       	std	Z+2, r24	; 0x02
    404e:	13 82       	std	Z+3, r1	; 0x03
    4050:	0e 94 c3 4c 	call	0x9986	; 0x9986 <printf>
        stk= (unsigned int *)nrk_task_TCB[i].OSTaskStkPtr;
        stkc = (unsigned char*)stk;
        printf( "stk = %x ",(uint16_t)stkc );
    4054:	ed b7       	in	r30, 0x3d	; 61
    4056:	fe b7       	in	r31, 0x3e	; 62
    4058:	c1 82       	std	Z+1, r12	; 0x01
    405a:	d2 82       	std	Z+2, r13	; 0x02
    405c:	88 81       	ld	r24, Y
    405e:	99 81       	ldd	r25, Y+1	; 0x01
    4060:	94 83       	std	Z+4, r25	; 0x04
    4062:	83 83       	std	Z+3, r24	; 0x03
    4064:	0e 94 c3 4c 	call	0x9986	; 0x9986 <printf>
        printf( "tcb addr = %x\r\n",(uint16_t)&nrk_task_TCB[i]);
    4068:	ad b7       	in	r26, 0x3d	; 61
    406a:	be b7       	in	r27, 0x3e	; 62
    406c:	11 96       	adiw	r26, 0x01	; 1
    406e:	ec 92       	st	X, r14
    4070:	11 97       	sbiw	r26, 0x01	; 1
    4072:	12 96       	adiw	r26, 0x02	; 2
    4074:	fc 92       	st	X, r15
    4076:	12 97       	sbiw	r26, 0x02	; 2
    4078:	14 96       	adiw	r26, 0x04	; 4
    407a:	dc 93       	st	X, r29
    407c:	ce 93       	st	-X, r28
    407e:	13 97       	sbiw	r26, 0x03	; 3
    4080:	0e 94 c3 4c 	call	0x9986	; 0x9986 <printf>
    4084:	08 94       	sec
    4086:	a1 1c       	adc	r10, r1
    4088:	b1 1c       	adc	r11, r1
    408a:	a3 96       	adiw	r28, 0x23	; 35
    stk= (unsigned int *)nrk_cur_task_TCB->OSTaskStkPtr;
    stkc = (unsigned char*)stk;
    printf( "stk = %x ",(uint16_t)stkc );
    printf( "tcb addr = %x\r\n",(uint16_t)nrk_cur_task_TCB);

    for(i=0; i<NRK_MAX_TASKS; i++ )
    408c:	0f 90       	pop	r0
    408e:	0f 90       	pop	r0
    4090:	0f 90       	pop	r0
    4092:	0f 90       	pop	r0
    4094:	b5 e0       	ldi	r27, 0x05	; 5
    4096:	ab 16       	cp	r10, r27
    4098:	b1 04       	cpc	r11, r1
    409a:	09 f0       	breq	.+2      	; 0x409e <dump_stack_info+0x196>
    409c:	b5 cf       	rjmp	.-150    	; 0x4008 <dump_stack_info+0x100>
        printf( "stk = %x ",(uint16_t)stkc );
        printf( "tcb addr = %x\r\n",(uint16_t)&nrk_task_TCB[i]);

    }

}
    409e:	df 91       	pop	r29
    40a0:	cf 91       	pop	r28
    40a2:	1f 91       	pop	r17
    40a4:	0f 91       	pop	r16
    40a6:	ff 90       	pop	r15
    40a8:	ef 90       	pop	r14
    40aa:	df 90       	pop	r13
    40ac:	cf 90       	pop	r12
    40ae:	bf 90       	pop	r11
    40b0:	af 90       	pop	r10
    40b2:	9f 90       	pop	r9
    40b4:	8f 90       	pop	r8
    40b6:	7f 90       	pop	r7
    40b8:	6f 90       	pop	r6
    40ba:	08 95       	ret

000040bc <nrk_stack_check>:
 * If the end of the stack was overwritten, then flag an error.
 *
 * */
//inline void nrk_stack_check()
void nrk_stack_check()
{
    40bc:	cf 93       	push	r28
    40be:	df 93       	push	r29
#ifdef NRK_STACK_CHECK

    unsigned int *stk ;  // 2 bytes
    unsigned char *stkc; // 1 byte

    stk  = (unsigned int *)nrk_cur_task_TCB->OSTCBStkBottom;          /* Load stack pointer */
    40c0:	e0 91 3e 08 	lds	r30, 0x083E
    40c4:	f0 91 3f 08 	lds	r31, 0x083F
    40c8:	c2 81       	ldd	r28, Z+2	; 0x02
    40ca:	d3 81       	ldd	r29, Z+3	; 0x03
    stkc = (unsigned char*)stk;
    if(*stkc != STK_CANARY_VAL)
    40cc:	88 81       	ld	r24, Y
    40ce:	85 35       	cpi	r24, 0x55	; 85
    40d0:	39 f0       	breq	.+14     	; 0x40e0 <nrk_stack_check+0x24>
    {
#ifdef NRK_REPORT_ERRORS
        dump_stack_info();
    40d2:	0e 94 84 1f 	call	0x3f08	; 0x3f08 <dump_stack_info>
#endif
        nrk_error_add( NRK_STACK_OVERFLOW );
    40d6:	81 e0       	ldi	r24, 0x01	; 1
    40d8:	0e 94 53 1f 	call	0x3ea6	; 0x3ea6 <nrk_error_add>
        *stkc=STK_CANARY_VAL;
    40dc:	85 e5       	ldi	r24, 0x55	; 85
    40de:	88 83       	st	Y, r24
    }

    stk  = (unsigned int *)nrk_cur_task_TCB->OSTaskStkPtr;          /* Load stack pointer */
    stkc = (unsigned char*)stk;
    if(stkc > (unsigned char *)RAMEND )
    40e0:	e0 91 3e 08 	lds	r30, 0x083E
    40e4:	f0 91 3f 08 	lds	r31, 0x083F
    40e8:	80 81       	ld	r24, Z
    40ea:	91 81       	ldd	r25, Z+1	; 0x01
    40ec:	80 50       	subi	r24, 0x00	; 0
    40ee:	91 41       	sbci	r25, 0x11	; 17
    40f0:	28 f0       	brcs	.+10     	; 0x40fc <nrk_stack_check+0x40>
    {
#ifdef NRK_REPORT_ERRORS
        dump_stack_info();
    40f2:	0e 94 84 1f 	call	0x3f08	; 0x3f08 <dump_stack_info>
#endif
        nrk_error_add( NRK_INVALID_STACK_POINTER);
    40f6:	82 e1       	ldi	r24, 0x12	; 18
    40f8:	0e 94 53 1f 	call	0x3ea6	; 0x3ea6 <nrk_error_add>




#endif
}
    40fc:	df 91       	pop	r29
    40fe:	cf 91       	pop	r28
    4100:	08 95       	ret

00004102 <nrk_signal_create>:
int8_t nrk_signal_create()
{
	uint8_t i=0;
	for(i=0;i<32;i++)   
	{                         
		if( !(_nrk_signal_list & SIG(i)))
    4102:	40 91 ef 04 	lds	r20, 0x04EF
    4106:	50 91 f0 04 	lds	r21, 0x04F0
    410a:	60 91 f1 04 	lds	r22, 0x04F1
    410e:	70 91 f2 04 	lds	r23, 0x04F2
    4112:	20 e0       	ldi	r18, 0x00	; 0
    4114:	30 e0       	ldi	r19, 0x00	; 0
    4116:	db 01       	movw	r26, r22
    4118:	ca 01       	movw	r24, r20
    411a:	02 2e       	mov	r0, r18
    411c:	04 c0       	rjmp	.+8      	; 0x4126 <nrk_signal_create+0x24>
    411e:	b6 95       	lsr	r27
    4120:	a7 95       	ror	r26
    4122:	97 95       	ror	r25
    4124:	87 95       	ror	r24
    4126:	0a 94       	dec	r0
    4128:	d2 f7       	brpl	.-12     	; 0x411e <nrk_signal_create+0x1c>
    412a:	81 70       	andi	r24, 0x01	; 1
    412c:	90 70       	andi	r25, 0x00	; 0
    412e:	89 2b       	or	r24, r25
    4130:	d1 f4       	brne	.+52     	; 0x4166 <nrk_signal_create+0x64>
		{    
			_nrk_signal_list|=SIG(i);
    4132:	81 e0       	ldi	r24, 0x01	; 1
    4134:	90 e0       	ldi	r25, 0x00	; 0
    4136:	a0 e0       	ldi	r26, 0x00	; 0
    4138:	b0 e0       	ldi	r27, 0x00	; 0
    413a:	02 2e       	mov	r0, r18
    413c:	04 c0       	rjmp	.+8      	; 0x4146 <nrk_signal_create+0x44>
    413e:	88 0f       	add	r24, r24
    4140:	99 1f       	adc	r25, r25
    4142:	aa 1f       	adc	r26, r26
    4144:	bb 1f       	adc	r27, r27
    4146:	0a 94       	dec	r0
    4148:	d2 f7       	brpl	.-12     	; 0x413e <nrk_signal_create+0x3c>
    414a:	84 2b       	or	r24, r20
    414c:	95 2b       	or	r25, r21
    414e:	a6 2b       	or	r26, r22
    4150:	b7 2b       	or	r27, r23
    4152:	80 93 ef 04 	sts	0x04EF, r24
    4156:	90 93 f0 04 	sts	0x04F0, r25
    415a:	a0 93 f1 04 	sts	0x04F1, r26
    415e:	b0 93 f2 04 	sts	0x04F2, r27
			return i;
    4162:	82 2f       	mov	r24, r18
    4164:	08 95       	ret
    4166:	2f 5f       	subi	r18, 0xFF	; 255
    4168:	3f 4f       	sbci	r19, 0xFF	; 255
#include <nrk_defs.h>

int8_t nrk_signal_create()
{
	uint8_t i=0;
	for(i=0;i<32;i++)   
    416a:	20 32       	cpi	r18, 0x20	; 32
    416c:	31 05       	cpc	r19, r1
    416e:	99 f6       	brne	.-90     	; 0x4116 <nrk_signal_create+0x14>
    4170:	8f ef       	ldi	r24, 0xFF	; 255
		}
	}
	return NRK_ERROR;


}
    4172:	08 95       	ret

00004174 <nrk_signal_get_registered_mask>:

uint32_t nrk_signal_get_registered_mask()
{
    4174:	e0 91 3e 08 	lds	r30, 0x083E
    4178:	f0 91 3f 08 	lds	r31, 0x083F
    417c:	65 85       	ldd	r22, Z+13	; 0x0d
    417e:	76 85       	ldd	r23, Z+14	; 0x0e
        return nrk_cur_task_TCB->registered_signal_mask;
}
    4180:	87 85       	ldd	r24, Z+15	; 0x0f
    4182:	90 89       	ldd	r25, Z+16	; 0x10
    4184:	08 95       	ret

00004186 <nrk_signal_unregister>:
	return NRK_OK;
}


int8_t nrk_signal_unregister(int8_t sig_id)
{
    4186:	ef 92       	push	r14
    4188:	ff 92       	push	r15
    418a:	0f 93       	push	r16
    418c:	1f 93       	push	r17
uint32_t sig_mask;

sig_mask=SIG(sig_id);
    418e:	21 e0       	ldi	r18, 0x01	; 1
    4190:	30 e0       	ldi	r19, 0x00	; 0
    4192:	40 e0       	ldi	r20, 0x00	; 0
    4194:	50 e0       	ldi	r21, 0x00	; 0
    4196:	04 c0       	rjmp	.+8      	; 0x41a0 <nrk_signal_unregister+0x1a>
    4198:	22 0f       	add	r18, r18
    419a:	33 1f       	adc	r19, r19
    419c:	44 1f       	adc	r20, r20
    419e:	55 1f       	adc	r21, r21
    41a0:	8a 95       	dec	r24
    41a2:	d2 f7       	brpl	.-12     	; 0x4198 <nrk_signal_unregister+0x12>

	if(nrk_cur_task_TCB->registered_signal_mask & sig_mask)
    41a4:	e0 91 3e 08 	lds	r30, 0x083E
    41a8:	f0 91 3f 08 	lds	r31, 0x083F
    41ac:	e5 84       	ldd	r14, Z+13	; 0x0d
    41ae:	f6 84       	ldd	r15, Z+14	; 0x0e
    41b0:	07 85       	ldd	r16, Z+15	; 0x0f
    41b2:	10 89       	ldd	r17, Z+16	; 0x10
    41b4:	da 01       	movw	r26, r20
    41b6:	c9 01       	movw	r24, r18
    41b8:	8e 21       	and	r24, r14
    41ba:	9f 21       	and	r25, r15
    41bc:	a0 23       	and	r26, r16
    41be:	b1 23       	and	r27, r17
    41c0:	00 97       	sbiw	r24, 0x00	; 0
    41c2:	a1 05       	cpc	r26, r1
    41c4:	b1 05       	cpc	r27, r1
    41c6:	11 f4       	brne	.+4      	; 0x41cc <nrk_signal_unregister+0x46>
    41c8:	8f ef       	ldi	r24, 0xFF	; 255
    41ca:	19 c0       	rjmp	.+50     	; 0x41fe <nrk_signal_unregister+0x78>
	{
		nrk_cur_task_TCB->registered_signal_mask&=~(sig_mask); 	
    41cc:	20 95       	com	r18
    41ce:	30 95       	com	r19
    41d0:	40 95       	com	r20
    41d2:	50 95       	com	r21
    41d4:	e2 22       	and	r14, r18
    41d6:	f3 22       	and	r15, r19
    41d8:	04 23       	and	r16, r20
    41da:	15 23       	and	r17, r21
    41dc:	e5 86       	std	Z+13, r14	; 0x0d
    41de:	f6 86       	std	Z+14, r15	; 0x0e
    41e0:	07 87       	std	Z+15, r16	; 0x0f
    41e2:	10 8b       	std	Z+16, r17	; 0x10
		nrk_cur_task_TCB->active_signal_mask&=~(sig_mask); 	
    41e4:	81 89       	ldd	r24, Z+17	; 0x11
    41e6:	92 89       	ldd	r25, Z+18	; 0x12
    41e8:	a3 89       	ldd	r26, Z+19	; 0x13
    41ea:	b4 89       	ldd	r27, Z+20	; 0x14
    41ec:	82 23       	and	r24, r18
    41ee:	93 23       	and	r25, r19
    41f0:	a4 23       	and	r26, r20
    41f2:	b5 23       	and	r27, r21
    41f4:	81 8b       	std	Z+17, r24	; 0x11
    41f6:	92 8b       	std	Z+18, r25	; 0x12
    41f8:	a3 8b       	std	Z+19, r26	; 0x13
    41fa:	b4 8b       	std	Z+20, r27	; 0x14
    41fc:	81 e0       	ldi	r24, 0x01	; 1
	}
	else
		return NRK_ERROR;
return NRK_OK;
}
    41fe:	1f 91       	pop	r17
    4200:	0f 91       	pop	r16
    4202:	ff 90       	pop	r15
    4204:	ef 90       	pop	r14
    4206:	08 95       	ret

00004208 <nrk_signal_register>:

int8_t nrk_signal_register(int8_t sig_id)
{

	// Make sure the signal was created...
	if(SIG(sig_id) & _nrk_signal_list )
    4208:	68 2f       	mov	r22, r24
    420a:	77 27       	eor	r23, r23
    420c:	67 fd       	sbrc	r22, 7
    420e:	70 95       	com	r23
    4210:	80 91 ef 04 	lds	r24, 0x04EF
    4214:	90 91 f0 04 	lds	r25, 0x04F0
    4218:	a0 91 f1 04 	lds	r26, 0x04F1
    421c:	b0 91 f2 04 	lds	r27, 0x04F2
    4220:	06 2e       	mov	r0, r22
    4222:	04 c0       	rjmp	.+8      	; 0x422c <nrk_signal_register+0x24>
    4224:	b6 95       	lsr	r27
    4226:	a7 95       	ror	r26
    4228:	97 95       	ror	r25
    422a:	87 95       	ror	r24
    422c:	0a 94       	dec	r0
    422e:	d2 f7       	brpl	.-12     	; 0x4224 <nrk_signal_register+0x1c>
    4230:	81 70       	andi	r24, 0x01	; 1
    4232:	90 70       	andi	r25, 0x00	; 0
    4234:	89 2b       	or	r24, r25
    4236:	11 f4       	brne	.+4      	; 0x423c <nrk_signal_register+0x34>
    4238:	8f ef       	ldi	r24, 0xFF	; 255
    423a:	08 95       	ret
	{
		nrk_cur_task_TCB->registered_signal_mask|=SIG(sig_id); 	
    423c:	e0 91 3e 08 	lds	r30, 0x083E
    4240:	f0 91 3f 08 	lds	r31, 0x083F
    4244:	21 e0       	ldi	r18, 0x01	; 1
    4246:	30 e0       	ldi	r19, 0x00	; 0
    4248:	40 e0       	ldi	r20, 0x00	; 0
    424a:	50 e0       	ldi	r21, 0x00	; 0
    424c:	04 c0       	rjmp	.+8      	; 0x4256 <nrk_signal_register+0x4e>
    424e:	22 0f       	add	r18, r18
    4250:	33 1f       	adc	r19, r19
    4252:	44 1f       	adc	r20, r20
    4254:	55 1f       	adc	r21, r21
    4256:	6a 95       	dec	r22
    4258:	d2 f7       	brpl	.-12     	; 0x424e <nrk_signal_register+0x46>
    425a:	85 85       	ldd	r24, Z+13	; 0x0d
    425c:	96 85       	ldd	r25, Z+14	; 0x0e
    425e:	a7 85       	ldd	r26, Z+15	; 0x0f
    4260:	b0 89       	ldd	r27, Z+16	; 0x10
    4262:	82 2b       	or	r24, r18
    4264:	93 2b       	or	r25, r19
    4266:	a4 2b       	or	r26, r20
    4268:	b5 2b       	or	r27, r21
    426a:	85 87       	std	Z+13, r24	; 0x0d
    426c:	96 87       	std	Z+14, r25	; 0x0e
    426e:	a7 87       	std	Z+15, r26	; 0x0f
    4270:	b0 8b       	std	Z+16, r27	; 0x10
    4272:	81 e0       	ldi	r24, 0x01	; 1
		return NRK_OK;
	}
            
	return NRK_ERROR;
}
    4274:	08 95       	ret

00004276 <nrk_sem_create>:
	nrk_sem_list[i].value=count;
	nrk_sem_list[i].count=count;
	nrk_sem_list[i].resource_ceiling=ceiling_prio;
	_nrk_resource_cnt++;
	return	&nrk_sem_list[i];
}
    4276:	80 e0       	ldi	r24, 0x00	; 0
    4278:	90 e0       	ldi	r25, 0x00	; 0
    427a:	08 95       	ret

0000427c <nrk_get_resource_index>:

int8_t nrk_get_resource_index(nrk_sem_t *resrc)
{
	int8_t id;
		for(id=0;id<NRK_MAX_RESOURCE_CNT;id++)
			if((nrk_sem_t *)(&nrk_sem_list[id])==(nrk_sem_t*)resrc)
    427c:	8a 52       	subi	r24, 0x2A	; 42
    427e:	98 40       	sbci	r25, 0x08	; 8
    4280:	11 f0       	breq	.+4      	; 0x4286 <nrk_get_resource_index+0xa>
    4282:	8f ef       	ldi	r24, 0xFF	; 255
    4284:	08 95       	ret
    4286:	80 e0       	ldi	r24, 0x00	; 0
				return id;
	return NRK_ERROR;
}
    4288:	08 95       	ret

0000428a <system_ceiling>:
	{
		nrk_sem_t* semaphoreAddr = &nrk_sem_list[index];
		if(semaphoreAddr != NULL )
		{
			uint8_t temp = nrk_sem_list[index].value;
			if( temp == 0 )
    428a:	80 91 2c 08 	lds	r24, 0x082C
    428e:	88 23       	and	r24, r24
    4290:	29 f0       	breq	.+10     	; 0x429c <system_ceiling+0x12>
    4292:	80 e0       	ldi	r24, 0x00	; 0
    4294:	90 e0       	ldi	r25, 0x00	; 0
    4296:	a0 e0       	ldi	r26, 0x00	; 0
    4298:	b0 e0       	ldi	r27, 0x00	; 0
    429a:	07 c0       	rjmp	.+14     	; 0x42aa <system_ceiling+0x20>
			{
				uint32_t resourceCeiling = nrk_sem_list[index].resource_ceiling;
    429c:	80 91 2b 08 	lds	r24, 0x082B
    42a0:	99 27       	eor	r25, r25
    42a2:	87 fd       	sbrc	r24, 7
    42a4:	90 95       	com	r25
    42a6:	a9 2f       	mov	r26, r25
    42a8:	b9 2f       	mov	r27, r25
				}
			}
		}
	}

	systemCeiling = sysCeiling;
    42aa:	80 93 34 06 	sts	0x0634, r24
    42ae:	90 93 35 06 	sts	0x0635, r25
    42b2:	a0 93 36 06 	sts	0x0636, r26
    42b6:	b0 93 37 06 	sts	0x0637, r27
}
    42ba:	08 95       	ret

000042bc <nrk_sem_delete>:
return NRK_OK;
}

int8_t  nrk_sem_delete(nrk_sem_t *rsrc)
{
int8_t id=nrk_get_resource_index(rsrc);	
    42bc:	0e 94 3e 21 	call	0x427c	; 0x427c <nrk_get_resource_index>
	int8_t task_ID;
	if(id==-1) { _nrk_errno_set(1); return NRK_ERROR;}
    42c0:	8f 3f       	cpi	r24, 0xFF	; 255
    42c2:	11 f4       	brne	.+4      	; 0x42c8 <nrk_sem_delete+0xc>
    42c4:	81 e0       	ldi	r24, 0x01	; 1
    42c6:	03 c0       	rjmp	.+6      	; 0x42ce <nrk_sem_delete+0x12>
	if(id==NRK_MAX_RESOURCE_CNT) { _nrk_errno_set(2); return NRK_ERROR; }
    42c8:	81 30       	cpi	r24, 0x01	; 1
    42ca:	29 f4       	brne	.+10     	; 0x42d6 <nrk_sem_delete+0x1a>
    42cc:	82 e0       	ldi	r24, 0x02	; 2
    42ce:	0e 94 20 1d 	call	0x3a40	; 0x3a40 <_nrk_errno_set>
    42d2:	8f ef       	ldi	r24, 0xFF	; 255
    42d4:	08 95       	ret

	nrk_sem_list[id].count=-1;
    42d6:	99 27       	eor	r25, r25
    42d8:	87 fd       	sbrc	r24, 7
    42da:	90 95       	com	r25
    42dc:	fc 01       	movw	r30, r24
    42de:	ee 0f       	add	r30, r30
    42e0:	ff 1f       	adc	r31, r31
    42e2:	e8 0f       	add	r30, r24
    42e4:	f9 1f       	adc	r31, r25
    42e6:	e6 5d       	subi	r30, 0xD6	; 214
    42e8:	f7 4f       	sbci	r31, 0xF7	; 247
    42ea:	8f ef       	ldi	r24, 0xFF	; 255
    42ec:	80 83       	st	Z, r24
	nrk_sem_list[id].value=-1;
    42ee:	82 83       	std	Z+2, r24	; 0x02
	nrk_sem_list[id].resource_ceiling=-1;
    42f0:	81 83       	std	Z+1, r24	; 0x01
	_nrk_resource_cnt--;
    42f2:	80 91 3d 08 	lds	r24, 0x083D
    42f6:	81 50       	subi	r24, 0x01	; 1
    42f8:	80 93 3d 08 	sts	0x083D, r24
    42fc:	81 e0       	ldi	r24, 0x01	; 1
return NRK_OK;
}
    42fe:	08 95       	ret

00004300 <nrk_sem_query>:
}

int8_t nrk_sem_query(nrk_sem_t *rsrc )
{
	int8_t id;
	id=nrk_get_resource_index(rsrc);  
    4300:	0e 94 3e 21 	call	0x427c	; 0x427c <nrk_get_resource_index>
	if(id==-1) { _nrk_errno_set(1); return NRK_ERROR;}
    4304:	8f 3f       	cpi	r24, 0xFF	; 255
    4306:	11 f4       	brne	.+4      	; 0x430c <nrk_sem_query+0xc>
    4308:	81 e0       	ldi	r24, 0x01	; 1
    430a:	03 c0       	rjmp	.+6      	; 0x4312 <nrk_sem_query+0x12>
	if(id==NRK_MAX_RESOURCE_CNT) { _nrk_errno_set(2); return NRK_ERROR; }
    430c:	81 30       	cpi	r24, 0x01	; 1
    430e:	29 f4       	brne	.+10     	; 0x431a <nrk_sem_query+0x1a>
    4310:	82 e0       	ldi	r24, 0x02	; 2
    4312:	0e 94 20 1d 	call	0x3a40	; 0x3a40 <_nrk_errno_set>
    4316:	8f ef       	ldi	r24, 0xFF	; 255
    4318:	08 95       	ret
	
	return(nrk_sem_list[id].value);
    431a:	99 27       	eor	r25, r25
    431c:	87 fd       	sbrc	r24, 7
    431e:	90 95       	com	r25
    4320:	fc 01       	movw	r30, r24
    4322:	ee 0f       	add	r30, r30
    4324:	ff 1f       	adc	r31, r31
    4326:	e8 0f       	add	r30, r24
    4328:	f9 1f       	adc	r31, r25
    432a:	e6 5d       	subi	r30, 0xD6	; 214
    432c:	f7 4f       	sbci	r31, 0xF7	; 247
    432e:	82 81       	ldd	r24, Z+2	; 0x02
}
    4330:	08 95       	ret

00004332 <nrk_sem_post>:
}



int8_t nrk_sem_post(nrk_sem_t *rsrc)
{
    4332:	1f 93       	push	r17
    4334:	cf 93       	push	r28
    4336:	df 93       	push	r29
	int8_t id=nrk_get_resource_index(rsrc);	
    4338:	0e 94 3e 21 	call	0x427c	; 0x427c <nrk_get_resource_index>
    433c:	18 2f       	mov	r17, r24
	int8_t task_ID;
	if(id==-1) { _nrk_errno_set(1); return NRK_ERROR;}
    433e:	8f 3f       	cpi	r24, 0xFF	; 255
    4340:	11 f4       	brne	.+4      	; 0x4346 <nrk_sem_post+0x14>
    4342:	81 e0       	ldi	r24, 0x01	; 1
    4344:	03 c0       	rjmp	.+6      	; 0x434c <nrk_sem_post+0x1a>
	if(id==NRK_MAX_RESOURCE_CNT) { _nrk_errno_set(2); return NRK_ERROR; }
    4346:	81 30       	cpi	r24, 0x01	; 1
    4348:	29 f4       	brne	.+10     	; 0x4354 <nrk_sem_post+0x22>
    434a:	82 e0       	ldi	r24, 0x02	; 2
    434c:	0e 94 20 1d 	call	0x3a40	; 0x3a40 <_nrk_errno_set>
    4350:	8f ef       	ldi	r24, 0xFF	; 255
    4352:	3f c0       	rjmp	.+126    	; 0x43d2 <nrk_sem_post+0xa0>

	if(nrk_sem_list[id].value<nrk_sem_list[id].count)
    4354:	99 27       	eor	r25, r25
    4356:	87 fd       	sbrc	r24, 7
    4358:	90 95       	com	r25
    435a:	ec 01       	movw	r28, r24
    435c:	cc 0f       	add	r28, r28
    435e:	dd 1f       	adc	r29, r29
    4360:	c8 0f       	add	r28, r24
    4362:	d9 1f       	adc	r29, r25
    4364:	c6 5d       	subi	r28, 0xD6	; 214
    4366:	d7 4f       	sbci	r29, 0xF7	; 247
    4368:	9a 81       	ldd	r25, Y+2	; 0x02
    436a:	88 81       	ld	r24, Y
    436c:	98 17       	cp	r25, r24
    436e:	84 f5       	brge	.+96     	; 0x43d0 <nrk_sem_post+0x9e>
	{
		// Signal RSRC Event		
		nrk_int_disable();
    4370:	0e 94 60 14 	call	0x28c0	; 0x28c0 <nrk_int_disable>

		nrk_sem_list[id].value++;
    4374:	8a 81       	ldd	r24, Y+2	; 0x02
    4376:	8f 5f       	subi	r24, 0xFF	; 255
    4378:	8a 83       	std	Y+2, r24	; 0x02
		nrk_cur_task_TCB->elevated_prio_flag=0;
    437a:	e0 91 3e 08 	lds	r30, 0x083E
    437e:	f0 91 3f 08 	lds	r31, 0x083F
    4382:	14 82       	std	Z+4, r1	; 0x04
    4384:	e0 e8       	ldi	r30, 0x80	; 128
    4386:	f7 e0       	ldi	r31, 0x07	; 7

		for (task_ID=0; task_ID < NRK_MAX_TASKS; task_ID++){
			if(nrk_task_TCB[task_ID].event_suspend==RSRC_EVENT_SUSPENDED)
				if((nrk_task_TCB[task_ID].active_signal_mask == id))
    4388:	21 2f       	mov	r18, r17
    438a:	33 27       	eor	r19, r19
    438c:	27 fd       	sbrc	r18, 7
    438e:	30 95       	com	r19
    4390:	43 2f       	mov	r20, r19
    4392:	53 2f       	mov	r21, r19
				{
					nrk_task_TCB[task_ID].task_state=SUSPENDED;
    4394:	63 e0       	ldi	r22, 0x03	; 3

		nrk_sem_list[id].value++;
		nrk_cur_task_TCB->elevated_prio_flag=0;

		for (task_ID=0; task_ID < NRK_MAX_TASKS; task_ID++){
			if(nrk_task_TCB[task_ID].event_suspend==RSRC_EVENT_SUSPENDED)
    4396:	80 81       	ld	r24, Z
    4398:	82 30       	cpi	r24, 0x02	; 2
    439a:	89 f4       	brne	.+34     	; 0x43be <nrk_sem_post+0x8c>
				if((nrk_task_TCB[task_ID].active_signal_mask == id))
    439c:	82 85       	ldd	r24, Z+10	; 0x0a
    439e:	93 85       	ldd	r25, Z+11	; 0x0b
    43a0:	a4 85       	ldd	r26, Z+12	; 0x0c
    43a2:	b5 85       	ldd	r27, Z+13	; 0x0d
    43a4:	82 17       	cp	r24, r18
    43a6:	93 07       	cpc	r25, r19
    43a8:	a4 07       	cpc	r26, r20
    43aa:	b5 07       	cpc	r27, r21
    43ac:	41 f4       	brne	.+16     	; 0x43be <nrk_sem_post+0x8c>
				{
					nrk_task_TCB[task_ID].task_state=SUSPENDED;
    43ae:	62 83       	std	Z+2, r22	; 0x02
					nrk_task_TCB[task_ID].next_wakeup=0;
    43b0:	11 8a       	std	Z+17, r1	; 0x11
    43b2:	10 8a       	std	Z+16, r1	; 0x10
					nrk_task_TCB[task_ID].event_suspend=0;
    43b4:	10 82       	st	Z, r1
					nrk_task_TCB[task_ID].active_signal_mask=0;
    43b6:	12 86       	std	Z+10, r1	; 0x0a
    43b8:	13 86       	std	Z+11, r1	; 0x0b
    43ba:	14 86       	std	Z+12, r1	; 0x0c
    43bc:	15 86       	std	Z+13, r1	; 0x0d
    43be:	b3 96       	adiw	r30, 0x23	; 35
		nrk_int_disable();

		nrk_sem_list[id].value++;
		nrk_cur_task_TCB->elevated_prio_flag=0;

		for (task_ID=0; task_ID < NRK_MAX_TASKS; task_ID++){
    43c0:	88 e0       	ldi	r24, 0x08	; 8
    43c2:	ef 32       	cpi	r30, 0x2F	; 47
    43c4:	f8 07       	cpc	r31, r24
    43c6:	39 f7       	brne	.-50     	; 0x4396 <nrk_sem_post+0x64>
					nrk_task_TCB[task_ID].event_suspend=0;
					nrk_task_TCB[task_ID].active_signal_mask=0;
				}   

		}
		system_ceiling();
    43c8:	0e 94 45 21 	call	0x428a	; 0x428a <system_ceiling>
		nrk_int_enable();
    43cc:	0e 94 62 14 	call	0x28c4	; 0x28c4 <nrk_int_enable>
    43d0:	81 e0       	ldi	r24, 0x01	; 1
	}

return NRK_OK;
}
    43d2:	df 91       	pop	r29
    43d4:	cf 91       	pop	r28
    43d6:	1f 91       	pop	r17
    43d8:	08 95       	ret

000043da <nrk_event_signal>:
            
	return NRK_ERROR;
}

int8_t nrk_event_signal(int8_t sig_id)
{
    43da:	df 92       	push	r13
    43dc:	ef 92       	push	r14
    43de:	ff 92       	push	r15
    43e0:	0f 93       	push	r16
    43e2:	1f 93       	push	r17

	uint8_t task_ID;
	uint8_t event_occured=0;
	uint32_t sig_mask;

	sig_mask=SIG(sig_id);
    43e4:	51 e0       	ldi	r21, 0x01	; 1
    43e6:	e5 2e       	mov	r14, r21
    43e8:	f1 2c       	mov	r15, r1
    43ea:	01 2d       	mov	r16, r1
    43ec:	11 2d       	mov	r17, r1
    43ee:	04 c0       	rjmp	.+8      	; 0x43f8 <nrk_event_signal+0x1e>
    43f0:	ee 0c       	add	r14, r14
    43f2:	ff 1c       	adc	r15, r15
    43f4:	00 1f       	adc	r16, r16
    43f6:	11 1f       	adc	r17, r17
    43f8:	8a 95       	dec	r24
    43fa:	d2 f7       	brpl	.-12     	; 0x43f0 <nrk_event_signal+0x16>
	// Check if signal was created
	// Signal was not created
	if((sig_mask & _nrk_signal_list)==0 ) { _nrk_errno_set(1); return NRK_ERROR;}
    43fc:	80 91 ef 04 	lds	r24, 0x04EF
    4400:	90 91 f0 04 	lds	r25, 0x04F0
    4404:	a0 91 f1 04 	lds	r26, 0x04F1
    4408:	b0 91 f2 04 	lds	r27, 0x04F2
    440c:	8e 21       	and	r24, r14
    440e:	9f 21       	and	r25, r15
    4410:	a0 23       	and	r26, r16
    4412:	b1 23       	and	r27, r17
    4414:	00 97       	sbiw	r24, 0x00	; 0
    4416:	a1 05       	cpc	r26, r1
    4418:	b1 05       	cpc	r27, r1
    441a:	11 f4       	brne	.+4      	; 0x4420 <nrk_event_signal+0x46>
    441c:	81 e0       	ldi	r24, 0x01	; 1
    441e:	41 c0       	rjmp	.+130    	; 0x44a2 <nrk_event_signal+0xc8>
	
	//needs to be atomic otherwise run the risk of multiple tasks being scheduled late and not in order of priority.  
	nrk_int_disable();
    4420:	0e 94 60 14 	call	0x28c0	; 0x28c0 <nrk_int_disable>
    4424:	e0 e8       	ldi	r30, 0x80	; 128
    4426:	f7 e0       	ldi	r31, 0x07	; 7
    4428:	dd 24       	eor	r13, r13
	//	{
	//	printf( "task %d is event suspended\r\n",task_ID );
			if(nrk_task_TCB[task_ID].event_suspend==SIG_EVENT_SUSPENDED)
				if((nrk_task_TCB[task_ID].active_signal_mask & sig_mask))
				{
					nrk_task_TCB[task_ID].task_state=SUSPENDED;
    442a:	23 e0       	ldi	r18, 0x03	; 3


	//	if (nrk_task_TCB[task_ID].task_state == EVENT_SUSPENDED)   
	//	{
	//	printf( "task %d is event suspended\r\n",task_ID );
			if(nrk_task_TCB[task_ID].event_suspend==SIG_EVENT_SUSPENDED)
    442c:	80 81       	ld	r24, Z
    442e:	81 30       	cpi	r24, 0x01	; 1
    4430:	b1 f4       	brne	.+44     	; 0x445e <nrk_event_signal+0x84>
				if((nrk_task_TCB[task_ID].active_signal_mask & sig_mask))
    4432:	82 85       	ldd	r24, Z+10	; 0x0a
    4434:	93 85       	ldd	r25, Z+11	; 0x0b
    4436:	a4 85       	ldd	r26, Z+12	; 0x0c
    4438:	b5 85       	ldd	r27, Z+13	; 0x0d
    443a:	8e 21       	and	r24, r14
    443c:	9f 21       	and	r25, r15
    443e:	a0 23       	and	r26, r16
    4440:	b1 23       	and	r27, r17
    4442:	00 97       	sbiw	r24, 0x00	; 0
    4444:	a1 05       	cpc	r26, r1
    4446:	b1 05       	cpc	r27, r1
    4448:	51 f0       	breq	.+20     	; 0x445e <nrk_event_signal+0x84>
				{
					nrk_task_TCB[task_ID].task_state=SUSPENDED;
    444a:	22 83       	std	Z+2, r18	; 0x02
					nrk_task_TCB[task_ID].next_wakeup=0;
    444c:	11 8a       	std	Z+17, r1	; 0x11
    444e:	10 8a       	std	Z+16, r1	; 0x10
					nrk_task_TCB[task_ID].event_suspend=0;
    4450:	10 82       	st	Z, r1
					// Add the event trigger here so it is returned
					// from nrk_event_wait()
					nrk_task_TCB[task_ID].active_signal_mask=sig_mask;
    4452:	e2 86       	std	Z+10, r14	; 0x0a
    4454:	f3 86       	std	Z+11, r15	; 0x0b
    4456:	04 87       	std	Z+12, r16	; 0x0c
    4458:	15 87       	std	Z+13, r17	; 0x0d
    445a:	dd 24       	eor	r13, r13
    445c:	d3 94       	inc	r13
					event_occured=1;
				}

			if(nrk_task_TCB[task_ID].event_suspend==RSRC_EVENT_SUSPENDED)
    445e:	80 81       	ld	r24, Z
    4460:	82 30       	cpi	r24, 0x02	; 2
    4462:	99 f4       	brne	.+38     	; 0x448a <nrk_event_signal+0xb0>
				if((nrk_task_TCB[task_ID].active_signal_mask == sig_mask))
    4464:	82 85       	ldd	r24, Z+10	; 0x0a
    4466:	93 85       	ldd	r25, Z+11	; 0x0b
    4468:	a4 85       	ldd	r26, Z+12	; 0x0c
    446a:	b5 85       	ldd	r27, Z+13	; 0x0d
    446c:	8e 15       	cp	r24, r14
    446e:	9f 05       	cpc	r25, r15
    4470:	a0 07       	cpc	r26, r16
    4472:	b1 07       	cpc	r27, r17
    4474:	51 f4       	brne	.+20     	; 0x448a <nrk_event_signal+0xb0>
				{
					nrk_task_TCB[task_ID].task_state=SUSPENDED;
    4476:	22 83       	std	Z+2, r18	; 0x02
					nrk_task_TCB[task_ID].next_wakeup=0;
    4478:	11 8a       	std	Z+17, r1	; 0x11
    447a:	10 8a       	std	Z+16, r1	; 0x10
					nrk_task_TCB[task_ID].event_suspend=0;
    447c:	10 82       	st	Z, r1
					// Add the event trigger here so it is returned
					// from nrk_event_wait()
					nrk_task_TCB[task_ID].active_signal_mask=0;
    447e:	12 86       	std	Z+10, r1	; 0x0a
    4480:	13 86       	std	Z+11, r1	; 0x0b
    4482:	14 86       	std	Z+12, r1	; 0x0c
    4484:	15 86       	std	Z+13, r1	; 0x0d
    4486:	dd 24       	eor	r13, r13
    4488:	d3 94       	inc	r13
    448a:	b3 96       	adiw	r30, 0x23	; 35
	// Signal was not created
	if((sig_mask & _nrk_signal_list)==0 ) { _nrk_errno_set(1); return NRK_ERROR;}
	
	//needs to be atomic otherwise run the risk of multiple tasks being scheduled late and not in order of priority.  
	nrk_int_disable();
	for (task_ID=0; task_ID < NRK_MAX_TASKS; task_ID++){
    448c:	88 e0       	ldi	r24, 0x08	; 8
    448e:	ef 32       	cpi	r30, 0x2F	; 47
    4490:	f8 07       	cpc	r31, r24
    4492:	61 f6       	brne	.-104    	; 0x442c <nrk_event_signal+0x52>
					event_occured=1;
				}   

	//	}
	}
	nrk_int_enable();
    4494:	0e 94 62 14 	call	0x28c4	; 0x28c4 <nrk_int_enable>
	if(event_occured)
    4498:	dd 20       	and	r13, r13
    449a:	11 f0       	breq	.+4      	; 0x44a0 <nrk_event_signal+0xc6>
    449c:	81 e0       	ldi	r24, 0x01	; 1
    449e:	04 c0       	rjmp	.+8      	; 0x44a8 <nrk_event_signal+0xce>
	{
		return NRK_OK;
	} 
	// No task was waiting on the signal
	_nrk_errno_set(2);
    44a0:	82 e0       	ldi	r24, 0x02	; 2
    44a2:	0e 94 20 1d 	call	0x3a40	; 0x3a40 <_nrk_errno_set>
    44a6:	8f ef       	ldi	r24, 0xFF	; 255
	return NRK_ERROR;
}
    44a8:	1f 91       	pop	r17
    44aa:	0f 91       	pop	r16
    44ac:	ff 90       	pop	r15
    44ae:	ef 90       	pop	r14
    44b0:	df 90       	pop	r13
    44b2:	08 95       	ret

000044b4 <nrk_signal_delete>:
        return nrk_cur_task_TCB->registered_signal_mask;
}

//return the number removed from signal set
int8_t nrk_signal_delete(nrk_sig_t sig_id)
{
    44b4:	ef 92       	push	r14
    44b6:	ff 92       	push	r15
    44b8:	0f 93       	push	r16
    44ba:	1f 93       	push	r17
    44bc:	cf 93       	push	r28
    44be:	df 93       	push	r29
	uint8_t task_ID;
	uint32_t sig_mask;

	sig_mask=SIG(sig_id);
    44c0:	c8 2f       	mov	r28, r24
    44c2:	dd 27       	eor	r29, r29
    44c4:	c7 fd       	sbrc	r28, 7
    44c6:	d0 95       	com	r29
    44c8:	61 e0       	ldi	r22, 0x01	; 1
    44ca:	e6 2e       	mov	r14, r22
    44cc:	f1 2c       	mov	r15, r1
    44ce:	01 2d       	mov	r16, r1
    44d0:	11 2d       	mov	r17, r1
    44d2:	0c 2e       	mov	r0, r28
    44d4:	04 c0       	rjmp	.+8      	; 0x44de <nrk_signal_delete+0x2a>
    44d6:	ee 0c       	add	r14, r14
    44d8:	ff 1c       	adc	r15, r15
    44da:	00 1f       	adc	r16, r16
    44dc:	11 1f       	adc	r17, r17
    44de:	0a 94       	dec	r0
    44e0:	d2 f7       	brpl	.-12     	; 0x44d6 <nrk_signal_delete+0x22>

	if( (sig_mask & _nrk_signal_list)==0) return NRK_ERROR; 
    44e2:	80 91 ef 04 	lds	r24, 0x04EF
    44e6:	90 91 f0 04 	lds	r25, 0x04F0
    44ea:	a0 91 f1 04 	lds	r26, 0x04F1
    44ee:	b0 91 f2 04 	lds	r27, 0x04F2
    44f2:	8e 21       	and	r24, r14
    44f4:	9f 21       	and	r25, r15
    44f6:	a0 23       	and	r26, r16
    44f8:	b1 23       	and	r27, r17
    44fa:	00 97       	sbiw	r24, 0x00	; 0
    44fc:	a1 05       	cpc	r26, r1
    44fe:	b1 05       	cpc	r27, r1
    4500:	11 f4       	brne	.+4      	; 0x4506 <nrk_signal_delete+0x52>
    4502:	8f ef       	ldi	r24, 0xFF	; 255
    4504:	5c c0       	rjmp	.+184    	; 0x45be <nrk_signal_delete+0x10a>

	nrk_int_disable();
    4506:	0e 94 60 14 	call	0x28c0	; 0x28c0 <nrk_int_disable>
    450a:	e0 e8       	ldi	r30, 0x80	; 128
    450c:	f7 e0       	ldi	r31, 0x07	; 7
		      //  printf("delete t(%i) signal(%li)\r\n",task_ID,nrk_task_TCB[task_ID].registered_signal_mask);
			nrk_task_TCB[task_ID].active_signal_mask=0;
			nrk_task_TCB[task_ID].event_suspend=0;
			nrk_task_TCB[task_ID].task_state=SUSPENDED;
		}
		nrk_task_TCB[task_ID].registered_signal_mask&=~sig_mask; //cheaper to remove than do a check
    450e:	a8 01       	movw	r20, r16
    4510:	97 01       	movw	r18, r14
    4512:	20 95       	com	r18
    4514:	30 95       	com	r19
    4516:	40 95       	com	r20
    4518:	50 95       	com	r21
		if(nrk_task_TCB[task_ID].registered_signal_mask==sig_mask) //check to make sure its only signal its waiting on 
		{
		      //  printf("delete t(%i) signal(%li)\r\n",task_ID,nrk_task_TCB[task_ID].registered_signal_mask);
			nrk_task_TCB[task_ID].active_signal_mask=0;
			nrk_task_TCB[task_ID].event_suspend=0;
			nrk_task_TCB[task_ID].task_state=SUSPENDED;
    451a:	63 e0       	ldi	r22, 0x03	; 3

	if( (sig_mask & _nrk_signal_list)==0) return NRK_ERROR; 

	nrk_int_disable();
	for (task_ID=0; task_ID < NRK_MAX_TASKS; task_ID++){
		if(nrk_task_TCB[task_ID].task_ID==-1) continue;
    451c:	81 81       	ldd	r24, Z+1	; 0x01
    451e:	8f 3f       	cpi	r24, 0xFF	; 255
    4520:	39 f1       	breq	.+78     	; 0x4570 <nrk_signal_delete+0xbc>
		// Check for tasks waiting on the signal
		// If there is a task that is waiting on just this signal
		// then we need to change it to the normal SUSPEND state
		if(nrk_task_TCB[task_ID].registered_signal_mask==sig_mask) //check to make sure its only signal its waiting on 
    4522:	86 81       	ldd	r24, Z+6	; 0x06
    4524:	97 81       	ldd	r25, Z+7	; 0x07
    4526:	a0 85       	ldd	r26, Z+8	; 0x08
    4528:	b1 85       	ldd	r27, Z+9	; 0x09
    452a:	8e 15       	cp	r24, r14
    452c:	9f 05       	cpc	r25, r15
    452e:	a0 07       	cpc	r26, r16
    4530:	b1 07       	cpc	r27, r17
    4532:	31 f4       	brne	.+12     	; 0x4540 <nrk_signal_delete+0x8c>
		{
		      //  printf("delete t(%i) signal(%li)\r\n",task_ID,nrk_task_TCB[task_ID].registered_signal_mask);
			nrk_task_TCB[task_ID].active_signal_mask=0;
    4534:	12 86       	std	Z+10, r1	; 0x0a
    4536:	13 86       	std	Z+11, r1	; 0x0b
    4538:	14 86       	std	Z+12, r1	; 0x0c
    453a:	15 86       	std	Z+13, r1	; 0x0d
			nrk_task_TCB[task_ID].event_suspend=0;
    453c:	10 82       	st	Z, r1
			nrk_task_TCB[task_ID].task_state=SUSPENDED;
    453e:	62 83       	std	Z+2, r22	; 0x02
		}
		nrk_task_TCB[task_ID].registered_signal_mask&=~sig_mask; //cheaper to remove than do a check
    4540:	86 81       	ldd	r24, Z+6	; 0x06
    4542:	97 81       	ldd	r25, Z+7	; 0x07
    4544:	a0 85       	ldd	r26, Z+8	; 0x08
    4546:	b1 85       	ldd	r27, Z+9	; 0x09
    4548:	82 23       	and	r24, r18
    454a:	93 23       	and	r25, r19
    454c:	a4 23       	and	r26, r20
    454e:	b5 23       	and	r27, r21
    4550:	86 83       	std	Z+6, r24	; 0x06
    4552:	97 83       	std	Z+7, r25	; 0x07
    4554:	a0 87       	std	Z+8, r26	; 0x08
    4556:	b1 87       	std	Z+9, r27	; 0x09
		nrk_task_TCB[task_ID].active_signal_mask&=~sig_mask; //cheaper to remove than do a check
    4558:	82 85       	ldd	r24, Z+10	; 0x0a
    455a:	93 85       	ldd	r25, Z+11	; 0x0b
    455c:	a4 85       	ldd	r26, Z+12	; 0x0c
    455e:	b5 85       	ldd	r27, Z+13	; 0x0d
    4560:	82 23       	and	r24, r18
    4562:	93 23       	and	r25, r19
    4564:	a4 23       	and	r26, r20
    4566:	b5 23       	and	r27, r21
    4568:	82 87       	std	Z+10, r24	; 0x0a
    456a:	93 87       	std	Z+11, r25	; 0x0b
    456c:	a4 87       	std	Z+12, r26	; 0x0c
    456e:	b5 87       	std	Z+13, r27	; 0x0d
    4570:	b3 96       	adiw	r30, 0x23	; 35
	sig_mask=SIG(sig_id);

	if( (sig_mask & _nrk_signal_list)==0) return NRK_ERROR; 

	nrk_int_disable();
	for (task_ID=0; task_ID < NRK_MAX_TASKS; task_ID++){
    4572:	88 e0       	ldi	r24, 0x08	; 8
    4574:	ef 32       	cpi	r30, 0x2F	; 47
    4576:	f8 07       	cpc	r31, r24
    4578:	89 f6       	brne	.-94     	; 0x451c <nrk_signal_delete+0x68>
		nrk_task_TCB[task_ID].registered_signal_mask&=~sig_mask; //cheaper to remove than do a check
		nrk_task_TCB[task_ID].active_signal_mask&=~sig_mask; //cheaper to remove than do a check

	}
	
	_nrk_signal_list&=~SIG(sig_id);
    457a:	2e ef       	ldi	r18, 0xFE	; 254
    457c:	3f ef       	ldi	r19, 0xFF	; 255
    457e:	4f ef       	ldi	r20, 0xFF	; 255
    4580:	5f ef       	ldi	r21, 0xFF	; 255
    4582:	04 c0       	rjmp	.+8      	; 0x458c <nrk_signal_delete+0xd8>
    4584:	22 0f       	add	r18, r18
    4586:	33 1f       	adc	r19, r19
    4588:	44 1f       	adc	r20, r20
    458a:	55 1f       	adc	r21, r21
    458c:	ca 95       	dec	r28
    458e:	d2 f7       	brpl	.-12     	; 0x4584 <nrk_signal_delete+0xd0>
    4590:	80 91 ef 04 	lds	r24, 0x04EF
    4594:	90 91 f0 04 	lds	r25, 0x04F0
    4598:	a0 91 f1 04 	lds	r26, 0x04F1
    459c:	b0 91 f2 04 	lds	r27, 0x04F2
    45a0:	82 23       	and	r24, r18
    45a2:	93 23       	and	r25, r19
    45a4:	a4 23       	and	r26, r20
    45a6:	b5 23       	and	r27, r21
    45a8:	80 93 ef 04 	sts	0x04EF, r24
    45ac:	90 93 f0 04 	sts	0x04F0, r25
    45b0:	a0 93 f1 04 	sts	0x04F1, r26
    45b4:	b0 93 f2 04 	sts	0x04F2, r27
	nrk_int_enable();
    45b8:	0e 94 62 14 	call	0x28c4	; 0x28c4 <nrk_int_enable>
    45bc:	81 e0       	ldi	r24, 0x01	; 1

	return NRK_OK;
}
    45be:	df 91       	pop	r29
    45c0:	cf 91       	pop	r28
    45c2:	1f 91       	pop	r17
    45c4:	0f 91       	pop	r16
    45c6:	ff 90       	pop	r15
    45c8:	ef 90       	pop	r14
    45ca:	08 95       	ret

000045cc <nrk_sem_pend>:
}



int8_t nrk_sem_pend(nrk_sem_t *rsrc )
{
    45cc:	1f 93       	push	r17
    45ce:	cf 93       	push	r28
    45d0:	df 93       	push	r29
	int8_t id;
	id=nrk_get_resource_index(rsrc);  
    45d2:	0e 94 3e 21 	call	0x427c	; 0x427c <nrk_get_resource_index>
    45d6:	18 2f       	mov	r17, r24
	if(id==-1) { _nrk_errno_set(1); return NRK_ERROR;}
    45d8:	8f 3f       	cpi	r24, 0xFF	; 255
    45da:	11 f4       	brne	.+4      	; 0x45e0 <nrk_sem_pend+0x14>
    45dc:	81 e0       	ldi	r24, 0x01	; 1
    45de:	03 c0       	rjmp	.+6      	; 0x45e6 <nrk_sem_pend+0x1a>
	if(id==NRK_MAX_RESOURCE_CNT) { _nrk_errno_set(2); return NRK_ERROR; }
    45e0:	81 30       	cpi	r24, 0x01	; 1
    45e2:	29 f4       	brne	.+10     	; 0x45ee <nrk_sem_pend+0x22>
    45e4:	82 e0       	ldi	r24, 0x02	; 2
    45e6:	0e 94 20 1d 	call	0x3a40	; 0x3a40 <_nrk_errno_set>
    45ea:	8f ef       	ldi	r24, 0xFF	; 255
    45ec:	41 c0       	rjmp	.+130    	; 0x4670 <nrk_sem_pend+0xa4>
	
	nrk_int_disable();
    45ee:	0e 94 60 14 	call	0x28c0	; 0x28c0 <nrk_int_disable>
	if(nrk_sem_list[id].value==0)
    45f2:	c1 2f       	mov	r28, r17
    45f4:	dd 27       	eor	r29, r29
    45f6:	c7 fd       	sbrc	r28, 7
    45f8:	d0 95       	com	r29
    45fa:	fe 01       	movw	r30, r28
    45fc:	ee 0f       	add	r30, r30
    45fe:	ff 1f       	adc	r31, r31
    4600:	ec 0f       	add	r30, r28
    4602:	fd 1f       	adc	r31, r29
    4604:	e6 5d       	subi	r30, 0xD6	; 214
    4606:	f7 4f       	sbci	r31, 0xF7	; 247
    4608:	82 81       	ldd	r24, Z+2	; 0x02
    460a:	88 23       	and	r24, r24
    460c:	b9 f4       	brne	.+46     	; 0x463c <nrk_sem_pend+0x70>
	{
		nrk_cur_task_TCB->event_suspend|=RSRC_EVENT_SUSPENDED;
    460e:	e0 91 3e 08 	lds	r30, 0x083E
    4612:	f0 91 3f 08 	lds	r31, 0x083F
    4616:	87 81       	ldd	r24, Z+7	; 0x07
    4618:	82 60       	ori	r24, 0x02	; 2
    461a:	87 83       	std	Z+7, r24	; 0x07
		nrk_cur_task_TCB->active_signal_mask=id;
    461c:	81 2f       	mov	r24, r17
    461e:	99 27       	eor	r25, r25
    4620:	87 fd       	sbrc	r24, 7
    4622:	90 95       	com	r25
    4624:	a9 2f       	mov	r26, r25
    4626:	b9 2f       	mov	r27, r25
    4628:	81 8b       	std	Z+17, r24	; 0x11
    462a:	92 8b       	std	Z+18, r25	; 0x12
    462c:	a3 8b       	std	Z+19, r26	; 0x13
    462e:	b4 8b       	std	Z+20, r27	; 0x14
		// Wait on suspend event
		nrk_int_enable();
    4630:	0e 94 62 14 	call	0x28c4	; 0x28c4 <nrk_int_enable>
		nrk_wait_until_ticks(0);
    4634:	80 e0       	ldi	r24, 0x00	; 0
    4636:	90 e0       	ldi	r25, 0x00	; 0
    4638:	0e 94 ff 24 	call	0x49fe	; 0x49fe <nrk_wait_until_ticks>
	}

	nrk_sem_list[id].value--;	
    463c:	fe 01       	movw	r30, r28
    463e:	ee 0f       	add	r30, r30
    4640:	ff 1f       	adc	r31, r31
    4642:	ec 0f       	add	r30, r28
    4644:	fd 1f       	adc	r31, r29
    4646:	e6 5d       	subi	r30, 0xD6	; 214
    4648:	f7 4f       	sbci	r31, 0xF7	; 247
    464a:	82 81       	ldd	r24, Z+2	; 0x02
    464c:	81 50       	subi	r24, 0x01	; 1
    464e:	82 83       	std	Z+2, r24	; 0x02
	nrk_cur_task_TCB->task_prio_ceil=nrk_sem_list[id].resource_ceiling;
    4650:	a0 91 3e 08 	lds	r26, 0x083E
    4654:	b0 91 3f 08 	lds	r27, 0x083F
    4658:	81 81       	ldd	r24, Z+1	; 0x01
    465a:	1b 96       	adiw	r26, 0x0b	; 11
    465c:	8c 93       	st	X, r24
    465e:	1b 97       	sbiw	r26, 0x0b	; 11
	nrk_cur_task_TCB->elevated_prio_flag=1;
    4660:	81 e0       	ldi	r24, 0x01	; 1
    4662:	14 96       	adiw	r26, 0x04	; 4
    4664:	8c 93       	st	X, r24
	nrk_int_enable();
    4666:	0e 94 62 14 	call	0x28c4	; 0x28c4 <nrk_int_enable>
	system_ceiling();
    466a:	0e 94 45 21 	call	0x428a	; 0x428a <system_ceiling>
    466e:	81 e0       	ldi	r24, 0x01	; 1
	return NRK_OK;
}
    4670:	df 91       	pop	r29
    4672:	cf 91       	pop	r28
    4674:	1f 91       	pop	r17
    4676:	08 95       	ret

00004678 <nrk_event_wait>:
	return NRK_ERROR;
}


uint32_t nrk_event_wait(uint32_t event_mask)
{
    4678:	9b 01       	movw	r18, r22
    467a:	ac 01       	movw	r20, r24

	// FIXME: Should go through list and check that all masks are registered, not just 1
	if(event_mask &  nrk_cur_task_TCB->registered_signal_mask)
    467c:	e0 91 3e 08 	lds	r30, 0x083E
    4680:	f0 91 3f 08 	lds	r31, 0x083F
    4684:	85 85       	ldd	r24, Z+13	; 0x0d
    4686:	96 85       	ldd	r25, Z+14	; 0x0e
    4688:	a7 85       	ldd	r26, Z+15	; 0x0f
    468a:	b0 89       	ldd	r27, Z+16	; 0x10
    468c:	82 23       	and	r24, r18
    468e:	93 23       	and	r25, r19
    4690:	a4 23       	and	r26, r20
    4692:	b5 23       	and	r27, r21
    4694:	00 97       	sbiw	r24, 0x00	; 0
    4696:	a1 05       	cpc	r26, r1
    4698:	b1 05       	cpc	r27, r1
    469a:	29 f4       	brne	.+10     	; 0x46a6 <nrk_event_wait+0x2e>
    469c:	20 e0       	ldi	r18, 0x00	; 0
    469e:	30 e0       	ldi	r19, 0x00	; 0
    46a0:	40 e0       	ldi	r20, 0x00	; 0
    46a2:	50 e0       	ldi	r21, 0x00	; 0
    46a4:	23 c0       	rjmp	.+70     	; 0x46ec <nrk_event_wait+0x74>
	  {
	   nrk_cur_task_TCB->active_signal_mask=event_mask; 
    46a6:	21 8b       	std	Z+17, r18	; 0x11
    46a8:	32 8b       	std	Z+18, r19	; 0x12
    46aa:	43 8b       	std	Z+19, r20	; 0x13
    46ac:	54 8b       	std	Z+20, r21	; 0x14
	   nrk_cur_task_TCB->event_suspend=SIG_EVENT_SUSPENDED; 
    46ae:	81 e0       	ldi	r24, 0x01	; 1
    46b0:	87 83       	std	Z+7, r24	; 0x07
	else
	  {
	   return 0;
	  }

	if(event_mask & SIG(nrk_wakeup_signal))
    46b2:	00 90 2e 08 	lds	r0, 0x082E
    46b6:	04 c0       	rjmp	.+8      	; 0x46c0 <nrk_event_wait+0x48>
    46b8:	56 95       	lsr	r21
    46ba:	47 95       	ror	r20
    46bc:	37 95       	ror	r19
    46be:	27 95       	ror	r18
    46c0:	0a 94       	dec	r0
    46c2:	d2 f7       	brpl	.-12     	; 0x46b8 <nrk_event_wait+0x40>
    46c4:	c9 01       	movw	r24, r18
    46c6:	81 70       	andi	r24, 0x01	; 1
    46c8:	90 70       	andi	r25, 0x00	; 0
    46ca:	89 2b       	or	r24, r25
    46cc:	19 f0       	breq	.+6      	; 0x46d4 <nrk_event_wait+0x5c>
		nrk_wait_until_nw();
    46ce:	0e 94 a3 24 	call	0x4946	; 0x4946 <nrk_wait_until_nw>
    46d2:	04 c0       	rjmp	.+8      	; 0x46dc <nrk_event_wait+0x64>
	else
		nrk_wait_until_ticks(0);
    46d4:	80 e0       	ldi	r24, 0x00	; 0
    46d6:	90 e0       	ldi	r25, 0x00	; 0
    46d8:	0e 94 ff 24 	call	0x49fe	; 0x49fe <nrk_wait_until_ticks>
	//unmask the signal when its return so it has logical value like 1 to or whatever was user defined
	return ( (nrk_cur_task_TCB->active_signal_mask));
    46dc:	e0 91 3e 08 	lds	r30, 0x083E
    46e0:	f0 91 3f 08 	lds	r31, 0x083F
    46e4:	21 89       	ldd	r18, Z+17	; 0x11
    46e6:	32 89       	ldd	r19, Z+18	; 0x12
    46e8:	43 89       	ldd	r20, Z+19	; 0x13
    46ea:	54 89       	ldd	r21, Z+20	; 0x14
}
    46ec:	b9 01       	movw	r22, r18
    46ee:	ca 01       	movw	r24, r20
    46f0:	08 95       	ret

000046f2 <nrk_get_high_ready_task_ID>:
//#define TIME_PAD  2

inline void _nrk_wait_for_scheduler ();

uint8_t nrk_get_high_ready_task_ID ()
{
    46f2:	e0 91 33 08 	lds	r30, 0x0833
    46f6:	f0 91 34 08 	lds	r31, 0x0834
    return (_head_node->task_ID);
}
    46fa:	80 81       	ld	r24, Z
    46fc:	08 95       	ret

000046fe <nrk_print_readyQ>:

void nrk_print_readyQ ()
{
    nrk_queue *ptr;
    ptr = _head_node;
    46fe:	e0 91 33 08 	lds	r30, 0x0833
    4702:	f0 91 34 08 	lds	r31, 0x0834
    4706:	03 c0       	rjmp	.+6      	; 0x470e <nrk_print_readyQ+0x10>
    //nrk_kprintf (PSTR ("nrk_queue: "));
    while (ptr != NULL)
    {
        //printf ("%d ", ptr->task_ID);
        ptr = ptr->Next;
    4708:	03 80       	ldd	r0, Z+3	; 0x03
    470a:	f4 81       	ldd	r31, Z+4	; 0x04
    470c:	e0 2d       	mov	r30, r0
void nrk_print_readyQ ()
{
    nrk_queue *ptr;
    ptr = _head_node;
    //nrk_kprintf (PSTR ("nrk_queue: "));
    while (ptr != NULL)
    470e:	30 97       	sbiw	r30, 0x00	; 0
    4710:	d9 f7       	brne	.-10     	; 0x4708 <nrk_print_readyQ+0xa>
    {
        //printf ("%d ", ptr->task_ID);
        ptr = ptr->Next;
    }
    //nrk_kprintf (PSTR ("\n\r"));
}
    4712:	08 95       	ret

00004714 <nrk_rem_from_readyQ>:

}


void nrk_rem_from_readyQ (int8_t task_ID)
{
    4714:	cf 93       	push	r28
    4716:	df 93       	push	r29
       }
     */

//      printf("nrk_rem_from_readyQ_nrk_queue %d\n",task_ID);

    if (_head_node == NULL)
    4718:	a0 91 33 08 	lds	r26, 0x0833
    471c:	b0 91 34 08 	lds	r27, 0x0834
    4720:	10 97       	sbiw	r26, 0x00	; 0
    4722:	09 f4       	brne	.+2      	; 0x4726 <nrk_rem_from_readyQ+0x12>
    4724:	53 c0       	rjmp	.+166    	; 0x47cc <nrk_rem_from_readyQ+0xb8>
        return;

    CurNode = _head_node;

    if (_head_node->task_ID == task_ID)
    4726:	28 2f       	mov	r18, r24
    4728:	33 27       	eor	r19, r19
    472a:	27 fd       	sbrc	r18, 7
    472c:	30 95       	com	r19
    472e:	8c 91       	ld	r24, X
    4730:	90 e0       	ldi	r25, 0x00	; 0
    4732:	82 17       	cp	r24, r18
    4734:	93 07       	cpc	r25, r19
    4736:	79 f4       	brne	.+30     	; 0x4756 <nrk_rem_from_readyQ+0x42>
    {
        //REmove from start
        _head_node = _head_node->Next;
    4738:	13 96       	adiw	r26, 0x03	; 3
    473a:	ed 91       	ld	r30, X+
    473c:	fc 91       	ld	r31, X
    473e:	14 97       	sbiw	r26, 0x04	; 4
    4740:	f0 93 34 08 	sts	0x0834, r31
    4744:	e0 93 33 08 	sts	0x0833, r30
        _head_node->Prev = NULL;
    4748:	12 82       	std	Z+2, r1	; 0x02
    474a:	11 82       	std	Z+1, r1	; 0x01
    474c:	12 c0       	rjmp	.+36     	; 0x4772 <nrk_rem_from_readyQ+0x5e>
    }
    else
    {
        while ((CurNode != NULL) && (CurNode->task_ID != task_ID))
            CurNode = CurNode->Next;
    474e:	da 01       	movw	r26, r20
        _head_node = _head_node->Next;
        _head_node->Prev = NULL;
    }
    else
    {
        while ((CurNode != NULL) && (CurNode->task_ID != task_ID))
    4750:	41 15       	cp	r20, r1
    4752:	51 05       	cpc	r21, r1
    4754:	d9 f1       	breq	.+118    	; 0x47cc <nrk_rem_from_readyQ+0xb8>
    4756:	8c 91       	ld	r24, X
    4758:	90 e0       	ldi	r25, 0x00	; 0
    475a:	13 96       	adiw	r26, 0x03	; 3
    475c:	4c 91       	ld	r20, X
    475e:	13 97       	sbiw	r26, 0x03	; 3
    4760:	14 96       	adiw	r26, 0x04	; 4
    4762:	5c 91       	ld	r21, X
    4764:	14 97       	sbiw	r26, 0x04	; 4
    4766:	82 17       	cp	r24, r18
    4768:	93 07       	cpc	r25, r19
    476a:	89 f7       	brne	.-30     	; 0x474e <nrk_rem_from_readyQ+0x3a>
    476c:	22 c0       	rjmp	.+68     	; 0x47b2 <nrk_rem_from_readyQ+0x9e>
            return;


        (CurNode->Prev)->Next = CurNode->Next;      //Both for middle and end
        if (CurNode->Next != NULL)
            (CurNode->Next)->Prev = CurNode->Prev;    // Only for middle
    476e:	fa 83       	std	Y+2, r31	; 0x02
    4770:	e9 83       	std	Y+1, r30	; 0x01
    }



    // Add to free list
    if (_free_node == NULL)
    4772:	e0 91 77 07 	lds	r30, 0x0777
    4776:	f0 91 78 07 	lds	r31, 0x0778
    477a:	30 97       	sbiw	r30, 0x00	; 0
    477c:	49 f4       	brne	.+18     	; 0x4790 <nrk_rem_from_readyQ+0x7c>
    {
        _free_node = CurNode;
    477e:	b0 93 78 07 	sts	0x0778, r27
    4782:	a0 93 77 07 	sts	0x0777, r26
        _free_node->Next = NULL;
    4786:	14 96       	adiw	r26, 0x04	; 4
    4788:	1c 92       	st	X, r1
    478a:	1e 92       	st	-X, r1
    478c:	13 97       	sbiw	r26, 0x03	; 3
    478e:	0a c0       	rjmp	.+20     	; 0x47a4 <nrk_rem_from_readyQ+0x90>
    }
    else
    {
        CurNode->Next = _free_node;
    4790:	14 96       	adiw	r26, 0x04	; 4
    4792:	fc 93       	st	X, r31
    4794:	ee 93       	st	-X, r30
    4796:	13 97       	sbiw	r26, 0x03	; 3
        _free_node->Prev = CurNode;
    4798:	b2 83       	std	Z+2, r27	; 0x02
    479a:	a1 83       	std	Z+1, r26	; 0x01
        _free_node = CurNode;
    479c:	b0 93 78 07 	sts	0x0778, r27
    47a0:	a0 93 77 07 	sts	0x0777, r26
    }
    _free_node->Prev = NULL;
    47a4:	e0 91 77 07 	lds	r30, 0x0777
    47a8:	f0 91 78 07 	lds	r31, 0x0778
    47ac:	12 82       	std	Z+2, r1	; 0x02
    47ae:	11 82       	std	Z+1, r1	; 0x01
    47b0:	0d c0       	rjmp	.+26     	; 0x47cc <nrk_rem_from_readyQ+0xb8>
            CurNode = CurNode->Next;
        if (CurNode == NULL)
            return;


        (CurNode->Prev)->Next = CurNode->Next;      //Both for middle and end
    47b2:	11 96       	adiw	r26, 0x01	; 1
    47b4:	ed 91       	ld	r30, X+
    47b6:	fc 91       	ld	r31, X
    47b8:	12 97       	sbiw	r26, 0x02	; 2
    47ba:	43 83       	std	Z+3, r20	; 0x03
    47bc:	54 83       	std	Z+4, r21	; 0x04
        if (CurNode->Next != NULL)
    47be:	13 96       	adiw	r26, 0x03	; 3
    47c0:	cd 91       	ld	r28, X+
    47c2:	dc 91       	ld	r29, X
    47c4:	14 97       	sbiw	r26, 0x04	; 4
    47c6:	20 97       	sbiw	r28, 0x00	; 0
    47c8:	91 f6       	brne	.-92     	; 0x476e <nrk_rem_from_readyQ+0x5a>
    47ca:	d3 cf       	rjmp	.-90     	; 0x4772 <nrk_rem_from_readyQ+0x5e>
        CurNode->Next = _free_node;
        _free_node->Prev = CurNode;
        _free_node = CurNode;
    }
    _free_node->Prev = NULL;
}
    47cc:	df 91       	pop	r29
    47ce:	cf 91       	pop	r28
    47d0:	08 95       	ret

000047d2 <nrk_get_pid>:
    return NRK_OK;
}


uint8_t nrk_get_pid ()
{
    47d2:	e0 91 3e 08 	lds	r30, 0x083E
    47d6:	f0 91 3f 08 	lds	r31, 0x083F
    return nrk_cur_task_TCB->task_ID;
}
    47da:	80 85       	ldd	r24, Z+8	; 0x08
    47dc:	08 95       	ret

000047de <_nrk_wait_for_scheduler>:
{

    //TIMSK = BM (OCIE1A);
    do
    {
        nrk_idle ();                // wait for the interrupt to tick... // pdiener: halt CPU here until any interrupt triggers
    47de:	0e 94 22 30 	call	0x6044	; 0x6044 <nrk_idle>
    }
    while ((volatile uint8_t) nrk_cur_task_TCB->suspend_flag == 1); // pdiener: make shure that was the right interrupt
    47e2:	e0 91 3e 08 	lds	r30, 0x083E
    47e6:	f0 91 3f 08 	lds	r31, 0x083F
    47ea:	85 81       	ldd	r24, Z+5	; 0x05
    47ec:	88 23       	and	r24, r24
    47ee:	b9 f7       	brne	.-18     	; 0x47de <_nrk_wait_for_scheduler>

    //TIMSK = BM (OCIE1A) | BM(OCIE0);
}
    47f0:	08 95       	ret

000047f2 <nrk_wait>:
    return NRK_OK;
}


int8_t nrk_wait (nrk_time_t t)
{
    47f2:	ff 92       	push	r15
    47f4:	0f 93       	push	r16
    47f6:	1f 93       	push	r17
    47f8:	df 93       	push	r29
    47fa:	cf 93       	push	r28
    47fc:	cd b7       	in	r28, 0x3d	; 61
    47fe:	de b7       	in	r29, 0x3e	; 62
    4800:	28 97       	sbiw	r28, 0x08	; 8
    4802:	0f b6       	in	r0, 0x3f	; 63
    4804:	f8 94       	cli
    4806:	de bf       	out	0x3e, r29	; 62
    4808:	0f be       	out	0x3f, r0	; 63
    480a:	cd bf       	out	0x3d, r28	; 61
    480c:	29 83       	std	Y+1, r18	; 0x01
    480e:	3a 83       	std	Y+2, r19	; 0x02
    4810:	4b 83       	std	Y+3, r20	; 0x03
    4812:	5c 83       	std	Y+4, r21	; 0x04
    4814:	6d 83       	std	Y+5, r22	; 0x05
    4816:	7e 83       	std	Y+6, r23	; 0x06
    4818:	8f 83       	std	Y+7, r24	; 0x07
    481a:	98 87       	std	Y+8, r25	; 0x08
    uint8_t timer;
    uint16_t nw;

    nrk_stack_check ();
    481c:	0e 94 5e 20 	call	0x40bc	; 0x40bc <nrk_stack_check>

    nrk_int_disable ();
    4820:	0e 94 60 14 	call	0x28c0	; 0x28c0 <nrk_int_disable>
    nrk_cur_task_TCB->suspend_flag = 1;
    4824:	e0 91 3e 08 	lds	r30, 0x083E
    4828:	f0 91 3f 08 	lds	r31, 0x083F
    482c:	81 e0       	ldi	r24, 0x01	; 1
    482e:	85 83       	std	Z+5, r24	; 0x05
    nrk_cur_task_TCB->num_periods = 1;
    4830:	81 e0       	ldi	r24, 0x01	; 1
    4832:	90 e0       	ldi	r25, 0x00	; 0
    4834:	92 a3       	std	Z+34, r25	; 0x22
    4836:	81 a3       	std	Z+33, r24	; 0x21
    timer = _nrk_os_timer_get ();
    4838:	0e 94 b6 2e 	call	0x5d6c	; 0x5d6c <_nrk_os_timer_get>
    483c:	f8 2e       	mov	r15, r24

//printf( "t1 %lu %lu\n",t.secs, t.nano_secs/NANOS_PER_MS);

    nw = _nrk_time_to_ticks (&t);
    483e:	ce 01       	movw	r24, r28
    4840:	01 96       	adiw	r24, 0x01	; 1
    4842:	0e 94 3b 28 	call	0x5076	; 0x5076 <_nrk_time_to_ticks>
// printf( "t2 %u %u\r\n",timer, nw);
    nrk_cur_task_TCB->next_wakeup = nw + timer;
    4846:	e0 91 3e 08 	lds	r30, 0x083E
    484a:	f0 91 3f 08 	lds	r31, 0x083F
    484e:	0f 2d       	mov	r16, r15
    4850:	10 e0       	ldi	r17, 0x00	; 0
    4852:	80 0f       	add	r24, r16
    4854:	91 1f       	adc	r25, r17
    4856:	90 8f       	std	Z+24, r25	; 0x18
    4858:	87 8b       	std	Z+23, r24	; 0x17
//printf( "wu %u\n",nrk_cur_task_TCB->next_wakeup );
    if (timer < (MAX_SCHED_WAKEUP_TIME - TIME_PAD))
    485a:	87 ef       	ldi	r24, 0xF7	; 247
    485c:	8f 15       	cp	r24, r15
    485e:	70 f0       	brcs	.+28     	; 0x487c <nrk_wait+0x8a>
    {
        if ((timer + TIME_PAD) <= _nrk_get_next_wakeup ())
    4860:	0e 94 b0 2e 	call	0x5d60	; 0x5d60 <_nrk_get_next_wakeup>
    4864:	0f 5f       	subi	r16, 0xFF	; 255
    4866:	1f 4f       	sbci	r17, 0xFF	; 255
    4868:	90 e0       	ldi	r25, 0x00	; 0
    486a:	08 17       	cp	r16, r24
    486c:	19 07       	cpc	r17, r25
    486e:	34 f4       	brge	.+12     	; 0x487c <nrk_wait+0x8a>
        {
            timer += TIME_PAD;
    4870:	8f 2d       	mov	r24, r15
    4872:	8e 5f       	subi	r24, 0xFE	; 254
            _nrk_prev_timer_val = timer;
    4874:	80 93 9c 05 	sts	0x059C, r24
            _nrk_set_next_wakeup (timer);
    4878:	0e 94 b3 2e 	call	0x5d66	; 0x5d66 <_nrk_set_next_wakeup>
        }
    }
    nrk_int_enable ();
    487c:	0e 94 62 14 	call	0x28c4	; 0x28c4 <nrk_int_enable>

    _nrk_wait_for_scheduler ();
    4880:	0e 94 ef 23 	call	0x47de	; 0x47de <_nrk_wait_for_scheduler>
    return NRK_OK;
}
    4884:	81 e0       	ldi	r24, 0x01	; 1
    4886:	28 96       	adiw	r28, 0x08	; 8
    4888:	0f b6       	in	r0, 0x3f	; 63
    488a:	f8 94       	cli
    488c:	de bf       	out	0x3e, r29	; 62
    488e:	0f be       	out	0x3f, r0	; 63
    4890:	cd bf       	out	0x3d, r28	; 61
    4892:	cf 91       	pop	r28
    4894:	df 91       	pop	r29
    4896:	1f 91       	pop	r17
    4898:	0f 91       	pop	r16
    489a:	ff 90       	pop	r15
    489c:	08 95       	ret

0000489e <nrk_wait_until>:
    //TIMSK = BM (OCIE1A) | BM(OCIE0);
}


int8_t nrk_wait_until (nrk_time_t t)
{
    489e:	8f 92       	push	r8
    48a0:	9f 92       	push	r9
    48a2:	af 92       	push	r10
    48a4:	bf 92       	push	r11
    48a6:	cf 92       	push	r12
    48a8:	df 92       	push	r13
    48aa:	ef 92       	push	r14
    48ac:	ff 92       	push	r15
    48ae:	0f 93       	push	r16
    48b0:	1f 93       	push	r17
    48b2:	df 93       	push	r29
    48b4:	cf 93       	push	r28
    48b6:	cd b7       	in	r28, 0x3d	; 61
    48b8:	de b7       	in	r29, 0x3e	; 62
    48ba:	60 97       	sbiw	r28, 0x10	; 16
    48bc:	0f b6       	in	r0, 0x3f	; 63
    48be:	f8 94       	cli
    48c0:	de bf       	out	0x3e, r29	; 62
    48c2:	0f be       	out	0x3f, r0	; 63
    48c4:	cd bf       	out	0x3d, r28	; 61
    48c6:	29 87       	std	Y+9, r18	; 0x09
    48c8:	3a 87       	std	Y+10, r19	; 0x0a
    48ca:	4b 87       	std	Y+11, r20	; 0x0b
    48cc:	5c 87       	std	Y+12, r21	; 0x0c
    48ce:	6d 87       	std	Y+13, r22	; 0x0d
    48d0:	7e 87       	std	Y+14, r23	; 0x0e
    48d2:	8f 87       	std	Y+15, r24	; 0x0f
    48d4:	98 8b       	std	Y+16, r25	; 0x10
    //c = _nrk_os_timer_get ();
    //do{
    //}while(_nrk_os_timer_get()==c);

    //ttt=c+1;
    nrk_time_get (&ct);
    48d6:	ce 01       	movw	r24, r28
    48d8:	01 96       	adiw	r24, 0x01	; 1
    48da:	0e 94 9d 29 	call	0x533a	; 0x533a <nrk_time_get>

    v = nrk_time_sub (&t, t, ct);
    48de:	ce 01       	movw	r24, r28
    48e0:	09 96       	adiw	r24, 0x09	; 9
    48e2:	09 85       	ldd	r16, Y+9	; 0x09
    48e4:	1a 85       	ldd	r17, Y+10	; 0x0a
    48e6:	2b 85       	ldd	r18, Y+11	; 0x0b
    48e8:	3c 85       	ldd	r19, Y+12	; 0x0c
    48ea:	4d 85       	ldd	r20, Y+13	; 0x0d
    48ec:	5e 85       	ldd	r21, Y+14	; 0x0e
    48ee:	6f 85       	ldd	r22, Y+15	; 0x0f
    48f0:	78 89       	ldd	r23, Y+16	; 0x10
    48f2:	89 80       	ldd	r8, Y+1	; 0x01
    48f4:	9a 80       	ldd	r9, Y+2	; 0x02
    48f6:	ab 80       	ldd	r10, Y+3	; 0x03
    48f8:	bc 80       	ldd	r11, Y+4	; 0x04
    48fa:	cd 80       	ldd	r12, Y+5	; 0x05
    48fc:	de 80       	ldd	r13, Y+6	; 0x06
    48fe:	ef 80       	ldd	r14, Y+7	; 0x07
    4900:	f8 84       	ldd	r15, Y+8	; 0x08
    4902:	0e 94 03 27 	call	0x4e06	; 0x4e06 <nrk_time_sub>
    //nrk_time_compact_nanos(&t);
    if (v == NRK_ERROR)
    4906:	8f 3f       	cpi	r24, 0xFF	; 255
    4908:	59 f0       	breq	.+22     	; 0x4920 <nrk_wait_until+0x82>
//if(t.secs==ct.secs && t.nano_secs<ct.nano_secs) return 0;

//t.secs-=ct.secs;
//t.nano_secs-=ct.nano_secs;
//
    nrk_wait (t);
    490a:	29 85       	ldd	r18, Y+9	; 0x09
    490c:	3a 85       	ldd	r19, Y+10	; 0x0a
    490e:	4b 85       	ldd	r20, Y+11	; 0x0b
    4910:	5c 85       	ldd	r21, Y+12	; 0x0c
    4912:	6d 85       	ldd	r22, Y+13	; 0x0d
    4914:	7e 85       	ldd	r23, Y+14	; 0x0e
    4916:	8f 85       	ldd	r24, Y+15	; 0x0f
    4918:	98 89       	ldd	r25, Y+16	; 0x10
    491a:	0e 94 f9 23 	call	0x47f2	; 0x47f2 <nrk_wait>
    491e:	81 e0       	ldi	r24, 0x01	; 1

    return NRK_OK;
}
    4920:	60 96       	adiw	r28, 0x10	; 16
    4922:	0f b6       	in	r0, 0x3f	; 63
    4924:	f8 94       	cli
    4926:	de bf       	out	0x3e, r29	; 62
    4928:	0f be       	out	0x3f, r0	; 63
    492a:	cd bf       	out	0x3d, r28	; 61
    492c:	cf 91       	pop	r28
    492e:	df 91       	pop	r29
    4930:	1f 91       	pop	r17
    4932:	0f 91       	pop	r16
    4934:	ff 90       	pop	r15
    4936:	ef 90       	pop	r14
    4938:	df 90       	pop	r13
    493a:	cf 90       	pop	r12
    493c:	bf 90       	pop	r11
    493e:	af 90       	pop	r10
    4940:	9f 90       	pop	r9
    4942:	8f 90       	pop	r8
    4944:	08 95       	ret

00004946 <nrk_wait_until_nw>:
 * taking into account any task processing time.
 *
 */

int8_t nrk_wait_until_nw ()
{
    4946:	1f 93       	push	r17
    uint8_t timer;
    nrk_int_disable ();
    4948:	0e 94 60 14 	call	0x28c0	; 0x28c0 <nrk_int_disable>
    nrk_cur_task_TCB->suspend_flag = 1;
    494c:	e0 91 3e 08 	lds	r30, 0x083E
    4950:	f0 91 3f 08 	lds	r31, 0x083F
    4954:	81 e0       	ldi	r24, 0x01	; 1
    4956:	85 83       	std	Z+5, r24	; 0x05
    nrk_cur_task_TCB->nw_flag = 1;
    4958:	86 83       	std	Z+6, r24	; 0x06
    timer = _nrk_os_timer_get ();
    495a:	0e 94 b6 2e 	call	0x5d6c	; 0x5d6c <_nrk_os_timer_get>
    495e:	18 2f       	mov	r17, r24

    if (timer < MAX_SCHED_WAKEUP_TIME - TIME_PAD)
    4960:	88 3f       	cpi	r24, 0xF8	; 248
    4962:	80 f4       	brcc	.+32     	; 0x4984 <nrk_wait_until_nw+0x3e>
        if ((timer + TIME_PAD) <= _nrk_get_next_wakeup ())
    4964:	0e 94 b0 2e 	call	0x5d60	; 0x5d60 <_nrk_get_next_wakeup>
    4968:	21 2f       	mov	r18, r17
    496a:	30 e0       	ldi	r19, 0x00	; 0
    496c:	2f 5f       	subi	r18, 0xFF	; 255
    496e:	3f 4f       	sbci	r19, 0xFF	; 255
    4970:	90 e0       	ldi	r25, 0x00	; 0
    4972:	28 17       	cp	r18, r24
    4974:	39 07       	cpc	r19, r25
    4976:	34 f4       	brge	.+12     	; 0x4984 <nrk_wait_until_nw+0x3e>
        {
            timer += TIME_PAD;
    4978:	81 2f       	mov	r24, r17
    497a:	8e 5f       	subi	r24, 0xFE	; 254
            _nrk_prev_timer_val = timer;
    497c:	80 93 9c 05 	sts	0x059C, r24
            _nrk_set_next_wakeup (timer);
    4980:	0e 94 b3 2e 	call	0x5d66	; 0x5d66 <_nrk_set_next_wakeup>
        }
//else nrk_cur_task_TCB->next_wakeup=ticks+1;
    nrk_int_enable ();
    4984:	0e 94 62 14 	call	0x28c4	; 0x28c4 <nrk_int_enable>
//while(nrk_cur_task_TCB->suspend_flag==1);
    _nrk_wait_for_scheduler ();
    4988:	0e 94 ef 23 	call	0x47de	; 0x47de <_nrk_wait_for_scheduler>
    return NRK_OK;
}
    498c:	81 e0       	ldi	r24, 0x01	; 1
    498e:	1f 91       	pop	r17
    4990:	08 95       	ret

00004992 <nrk_set_next_wakeup>:
    _nrk_wait_for_scheduler ();
    return NRK_OK;
}

int8_t nrk_set_next_wakeup (nrk_time_t t)
{
    4992:	1f 93       	push	r17
    4994:	df 93       	push	r29
    4996:	cf 93       	push	r28
    4998:	cd b7       	in	r28, 0x3d	; 61
    499a:	de b7       	in	r29, 0x3e	; 62
    499c:	28 97       	sbiw	r28, 0x08	; 8
    499e:	0f b6       	in	r0, 0x3f	; 63
    49a0:	f8 94       	cli
    49a2:	de bf       	out	0x3e, r29	; 62
    49a4:	0f be       	out	0x3f, r0	; 63
    49a6:	cd bf       	out	0x3d, r28	; 61
    49a8:	29 83       	std	Y+1, r18	; 0x01
    49aa:	3a 83       	std	Y+2, r19	; 0x02
    49ac:	4b 83       	std	Y+3, r20	; 0x03
    49ae:	5c 83       	std	Y+4, r21	; 0x04
    49b0:	6d 83       	std	Y+5, r22	; 0x05
    49b2:	7e 83       	std	Y+6, r23	; 0x06
    49b4:	8f 83       	std	Y+7, r24	; 0x07
    49b6:	98 87       	std	Y+8, r25	; 0x08
    uint8_t timer;
    uint16_t nw;
    nrk_int_disable ();
    49b8:	0e 94 60 14 	call	0x28c0	; 0x28c0 <nrk_int_disable>
    timer = _nrk_os_timer_get ();
    49bc:	0e 94 b6 2e 	call	0x5d6c	; 0x5d6c <_nrk_os_timer_get>
    49c0:	18 2f       	mov	r17, r24
    nw = _nrk_time_to_ticks (&t);
    49c2:	ce 01       	movw	r24, r28
    49c4:	01 96       	adiw	r24, 0x01	; 1
    49c6:	0e 94 3b 28 	call	0x5076	; 0x5076 <_nrk_time_to_ticks>
    if (nw <= TIME_PAD)
    49ca:	83 30       	cpi	r24, 0x03	; 3
    49cc:	91 05       	cpc	r25, r1
    49ce:	10 f4       	brcc	.+4      	; 0x49d4 <nrk_set_next_wakeup+0x42>
    49d0:	8f ef       	ldi	r24, 0xFF	; 255
    49d2:	0b c0       	rjmp	.+22     	; 0x49ea <nrk_set_next_wakeup+0x58>
        return NRK_ERROR;
    nrk_cur_task_TCB->next_wakeup = nw + timer;
    49d4:	e0 91 3e 08 	lds	r30, 0x083E
    49d8:	f0 91 3f 08 	lds	r31, 0x083F
    49dc:	81 0f       	add	r24, r17
    49de:	91 1d       	adc	r25, r1
    49e0:	90 8f       	std	Z+24, r25	; 0x18
    49e2:	87 8b       	std	Z+23, r24	; 0x17
    			_nrk_prev_timer_val=timer;
    			_nrk_set_next_wakeup(timer);
    		}
    */
//      nrk_cur_task_TCB->nw_flag=1;
    nrk_int_enable ();
    49e4:	0e 94 62 14 	call	0x28c4	; 0x28c4 <nrk_int_enable>
    49e8:	81 e0       	ldi	r24, 0x01	; 1

    return NRK_OK;
}
    49ea:	28 96       	adiw	r28, 0x08	; 8
    49ec:	0f b6       	in	r0, 0x3f	; 63
    49ee:	f8 94       	cli
    49f0:	de bf       	out	0x3e, r29	; 62
    49f2:	0f be       	out	0x3f, r0	; 63
    49f4:	cd bf       	out	0x3d, r28	; 61
    49f6:	cf 91       	pop	r28
    49f8:	df 91       	pop	r29
    49fa:	1f 91       	pop	r17
    49fc:	08 95       	ret

000049fe <nrk_wait_until_ticks>:
 * taking into account any task processing time.
 *
 */

int8_t nrk_wait_until_ticks (uint16_t ticks)
{
    49fe:	0f 93       	push	r16
    4a00:	1f 93       	push	r17
    4a02:	8c 01       	movw	r16, r24
    uint8_t timer;
    nrk_int_disable ();
    4a04:	0e 94 60 14 	call	0x28c0	; 0x28c0 <nrk_int_disable>
    nrk_cur_task_TCB->suspend_flag = 1;
    4a08:	e0 91 3e 08 	lds	r30, 0x083E
    4a0c:	f0 91 3f 08 	lds	r31, 0x083F
    4a10:	81 e0       	ldi	r24, 0x01	; 1
    4a12:	85 83       	std	Z+5, r24	; 0x05
    nrk_cur_task_TCB->next_wakeup = ticks;
    4a14:	10 8f       	std	Z+24, r17	; 0x18
    4a16:	07 8b       	std	Z+23, r16	; 0x17
    // printf( "t %u\r\n",ticks );
    timer = _nrk_os_timer_get ();
    4a18:	0e 94 b6 2e 	call	0x5d6c	; 0x5d6c <_nrk_os_timer_get>
    4a1c:	08 2f       	mov	r16, r24

    if (timer < MAX_SCHED_WAKEUP_TIME - TIME_PAD)
    4a1e:	88 3f       	cpi	r24, 0xF8	; 248
    4a20:	80 f4       	brcc	.+32     	; 0x4a42 <nrk_wait_until_ticks+0x44>
        if ((timer + TIME_PAD) <= _nrk_get_next_wakeup ())
    4a22:	0e 94 b0 2e 	call	0x5d60	; 0x5d60 <_nrk_get_next_wakeup>
    4a26:	20 2f       	mov	r18, r16
    4a28:	30 e0       	ldi	r19, 0x00	; 0
    4a2a:	2f 5f       	subi	r18, 0xFF	; 255
    4a2c:	3f 4f       	sbci	r19, 0xFF	; 255
    4a2e:	90 e0       	ldi	r25, 0x00	; 0
    4a30:	28 17       	cp	r18, r24
    4a32:	39 07       	cpc	r19, r25
    4a34:	34 f4       	brge	.+12     	; 0x4a42 <nrk_wait_until_ticks+0x44>
        {
            timer += TIME_PAD;
    4a36:	80 2f       	mov	r24, r16
    4a38:	8e 5f       	subi	r24, 0xFE	; 254
            _nrk_prev_timer_val = timer;
    4a3a:	80 93 9c 05 	sts	0x059C, r24
            _nrk_set_next_wakeup (timer);
    4a3e:	0e 94 b3 2e 	call	0x5d66	; 0x5d66 <_nrk_set_next_wakeup>
        }
//else nrk_cur_task_TCB->next_wakeup=ticks+1;
    nrk_int_enable ();
    4a42:	0e 94 62 14 	call	0x28c4	; 0x28c4 <nrk_int_enable>
//while(nrk_cur_task_TCB->suspend_flag==1);
    _nrk_wait_for_scheduler ();
    4a46:	0e 94 ef 23 	call	0x47de	; 0x47de <_nrk_wait_for_scheduler>
    return NRK_OK;
}
    4a4a:	81 e0       	ldi	r24, 0x01	; 1
    4a4c:	1f 91       	pop	r17
    4a4e:	0f 91       	pop	r16
    4a50:	08 95       	ret

00004a52 <nrk_wait_ticks>:
 * timer ticks after the curret OS tick timer.
 *
 */

int8_t nrk_wait_ticks (uint16_t ticks)
{
    4a52:	ff 92       	push	r15
    4a54:	0f 93       	push	r16
    4a56:	1f 93       	push	r17
    4a58:	cf 93       	push	r28
    4a5a:	df 93       	push	r29
    4a5c:	8c 01       	movw	r16, r24
    uint8_t timer;
    nrk_int_disable ();
    4a5e:	0e 94 60 14 	call	0x28c0	; 0x28c0 <nrk_int_disable>
    nrk_cur_task_TCB->suspend_flag = 1;
    4a62:	e0 91 3e 08 	lds	r30, 0x083E
    4a66:	f0 91 3f 08 	lds	r31, 0x083F
    4a6a:	81 e0       	ldi	r24, 0x01	; 1
    4a6c:	85 83       	std	Z+5, r24	; 0x05
    timer = _nrk_os_timer_get ();
    4a6e:	0e 94 b6 2e 	call	0x5d6c	; 0x5d6c <_nrk_os_timer_get>
    4a72:	f8 2e       	mov	r15, r24
    nrk_cur_task_TCB->next_wakeup = ticks + timer;
    4a74:	e0 91 3e 08 	lds	r30, 0x083E
    4a78:	f0 91 3f 08 	lds	r31, 0x083F
    4a7c:	c8 2f       	mov	r28, r24
    4a7e:	d0 e0       	ldi	r29, 0x00	; 0
    4a80:	0c 0f       	add	r16, r28
    4a82:	1d 1f       	adc	r17, r29
    4a84:	10 8f       	std	Z+24, r17	; 0x18
    4a86:	07 8b       	std	Z+23, r16	; 0x17

    if (timer < MAX_SCHED_WAKEUP_TIME - TIME_PAD)
    4a88:	87 ef       	ldi	r24, 0xF7	; 247
    4a8a:	8f 15       	cp	r24, r15
    4a8c:	68 f0       	brcs	.+26     	; 0x4aa8 <nrk_wait_ticks+0x56>
        if ((timer + TIME_PAD) <= _nrk_get_next_wakeup ())
    4a8e:	0e 94 b0 2e 	call	0x5d60	; 0x5d60 <_nrk_get_next_wakeup>
    4a92:	21 96       	adiw	r28, 0x01	; 1
    4a94:	90 e0       	ldi	r25, 0x00	; 0
    4a96:	c8 17       	cp	r28, r24
    4a98:	d9 07       	cpc	r29, r25
    4a9a:	34 f4       	brge	.+12     	; 0x4aa8 <nrk_wait_ticks+0x56>
        {
            timer += TIME_PAD;
    4a9c:	8f 2d       	mov	r24, r15
    4a9e:	8e 5f       	subi	r24, 0xFE	; 254
            _nrk_prev_timer_val = timer;
    4aa0:	80 93 9c 05 	sts	0x059C, r24
            _nrk_set_next_wakeup (timer);
    4aa4:	0e 94 b3 2e 	call	0x5d66	; 0x5d66 <_nrk_set_next_wakeup>
        }
//else nrk_cur_task_TCB->next_wakeup=ticks+1;
    nrk_int_enable ();
    4aa8:	0e 94 62 14 	call	0x28c4	; 0x28c4 <nrk_int_enable>
//while(nrk_cur_task_TCB->suspend_flag==1);
    _nrk_wait_for_scheduler ();
    4aac:	0e 94 ef 23 	call	0x47de	; 0x47de <_nrk_wait_for_scheduler>
    return NRK_OK;
}
    4ab0:	81 e0       	ldi	r24, 0x01	; 1
    4ab2:	df 91       	pop	r29
    4ab4:	cf 91       	pop	r28
    4ab6:	1f 91       	pop	r17
    4ab8:	0f 91       	pop	r16
    4aba:	ff 90       	pop	r15
    4abc:	08 95       	ret

00004abe <nrk_wait_until_next_n_periods>:
    _nrk_wait_for_scheduler ();
    return NRK_OK;
}

int8_t nrk_wait_until_next_n_periods (uint16_t p)
{
    4abe:	1f 93       	push	r17
    4ac0:	cf 93       	push	r28
    4ac2:	df 93       	push	r29
    4ac4:	ec 01       	movw	r28, r24
    uint8_t timer;

    nrk_stack_check ();
    4ac6:	0e 94 5e 20 	call	0x40bc	; 0x40bc <nrk_stack_check>

    if (p == 0)
    4aca:	20 97       	sbiw	r28, 0x00	; 0
    4acc:	11 f4       	brne	.+4      	; 0x4ad2 <nrk_wait_until_next_n_periods+0x14>
    4ace:	c1 e0       	ldi	r28, 0x01	; 1
    4ad0:	d0 e0       	ldi	r29, 0x00	; 0
        p = 1;
// Next Period Wakeup Time is Set inside scheduler when a task becomes Runnable
    nrk_int_disable ();
    4ad2:	0e 94 60 14 	call	0x28c0	; 0x28c0 <nrk_int_disable>
    nrk_cur_task_TCB->suspend_flag = 1;
    4ad6:	e0 91 3e 08 	lds	r30, 0x083E
    4ada:	f0 91 3f 08 	lds	r31, 0x083F
    4ade:	81 e0       	ldi	r24, 0x01	; 1
    4ae0:	85 83       	std	Z+5, r24	; 0x05
    nrk_cur_task_TCB->num_periods = p;
    4ae2:	d2 a3       	std	Z+34, r29	; 0x22
    4ae4:	c1 a3       	std	Z+33, r28	; 0x21
    timer = _nrk_os_timer_get ();
    4ae6:	0e 94 b6 2e 	call	0x5d6c	; 0x5d6c <_nrk_os_timer_get>
    4aea:	18 2f       	mov	r17, r24

//nrk_cur_task_TCB->cpu_remaining=_nrk_prev_timer_val+1;

// +2 allows for potential time conflict resolution
    if (timer < (MAX_SCHED_WAKEUP_TIME - TIME_PAD))       // 254 8bit overflow point - 2
    4aec:	88 3f       	cpi	r24, 0xF8	; 248
    4aee:	80 f4       	brcc	.+32     	; 0x4b10 <nrk_wait_until_next_n_periods+0x52>
        if ((timer + TIME_PAD) <= _nrk_get_next_wakeup ())
    4af0:	0e 94 b0 2e 	call	0x5d60	; 0x5d60 <_nrk_get_next_wakeup>
    4af4:	21 2f       	mov	r18, r17
    4af6:	30 e0       	ldi	r19, 0x00	; 0
    4af8:	2f 5f       	subi	r18, 0xFF	; 255
    4afa:	3f 4f       	sbci	r19, 0xFF	; 255
    4afc:	90 e0       	ldi	r25, 0x00	; 0
    4afe:	28 17       	cp	r18, r24
    4b00:	39 07       	cpc	r19, r25
    4b02:	34 f4       	brge	.+12     	; 0x4b10 <nrk_wait_until_next_n_periods+0x52>
        {
            timer += TIME_PAD;
    4b04:	81 2f       	mov	r24, r17
    4b06:	8e 5f       	subi	r24, 0xFE	; 254
            _nrk_prev_timer_val = timer;
    4b08:	80 93 9c 05 	sts	0x059C, r24
            _nrk_set_next_wakeup (timer);                 // pdiener: Set next wakeup to NOW
    4b0c:	0e 94 b3 2e 	call	0x5d66	; 0x5d66 <_nrk_set_next_wakeup>
        }

    nrk_int_enable ();
    4b10:	0e 94 62 14 	call	0x28c4	; 0x28c4 <nrk_int_enable>
    _nrk_wait_for_scheduler ();
    4b14:	0e 94 ef 23 	call	0x47de	; 0x47de <_nrk_wait_for_scheduler>
    return NRK_OK;
}
    4b18:	81 e0       	ldi	r24, 0x01	; 1
    4b1a:	df 91       	pop	r29
    4b1c:	cf 91       	pop	r28
    4b1e:	1f 91       	pop	r17
    4b20:	08 95       	ret

00004b22 <nrk_wait_until_next_period>:
    nrk_wait_until_next_period ();
    return NRK_OK;
}

int8_t nrk_wait_until_next_period ()
{
    4b22:	1f 93       	push	r17
    uint8_t timer;

    nrk_stack_check ();
    4b24:	0e 94 5e 20 	call	0x40bc	; 0x40bc <nrk_stack_check>
// Next Period Wakeup Time is Set inside scheduler when a task becomes Runnable
    nrk_int_disable ();
    4b28:	0e 94 60 14 	call	0x28c0	; 0x28c0 <nrk_int_disable>
    nrk_cur_task_TCB->num_periods = 1;
    4b2c:	e0 91 3e 08 	lds	r30, 0x083E
    4b30:	f0 91 3f 08 	lds	r31, 0x083F
    4b34:	81 e0       	ldi	r24, 0x01	; 1
    4b36:	90 e0       	ldi	r25, 0x00	; 0
    4b38:	92 a3       	std	Z+34, r25	; 0x22
    4b3a:	81 a3       	std	Z+33, r24	; 0x21
    nrk_cur_task_TCB->suspend_flag = 1;
    4b3c:	81 e0       	ldi	r24, 0x01	; 1
    4b3e:	85 83       	std	Z+5, r24	; 0x05
  nrk_cur_task_TCB->next_wakeup = nrk_cur_task_TCB->next_period;
    4b40:	81 8d       	ldd	r24, Z+25	; 0x19
    4b42:	92 8d       	ldd	r25, Z+26	; 0x1a
    4b44:	90 8f       	std	Z+24, r25	; 0x18
    4b46:	87 8b       	std	Z+23, r24	; 0x17
    timer = _nrk_os_timer_get ();
    4b48:	0e 94 b6 2e 	call	0x5d6c	; 0x5d6c <_nrk_os_timer_get>
    4b4c:	18 2f       	mov	r17, r24

//nrk_cur_task_TCB->cpu_remaining=_nrk_prev_timer_val+1;

    if (timer < (MAX_SCHED_WAKEUP_TIME - TIME_PAD))
    4b4e:	88 3f       	cpi	r24, 0xF8	; 248
    4b50:	80 f4       	brcc	.+32     	; 0x4b72 <nrk_wait_until_next_period+0x50>
        if ((timer + TIME_PAD) <= _nrk_get_next_wakeup ())
    4b52:	0e 94 b0 2e 	call	0x5d60	; 0x5d60 <_nrk_get_next_wakeup>
    4b56:	21 2f       	mov	r18, r17
    4b58:	30 e0       	ldi	r19, 0x00	; 0
    4b5a:	2f 5f       	subi	r18, 0xFF	; 255
    4b5c:	3f 4f       	sbci	r19, 0xFF	; 255
    4b5e:	90 e0       	ldi	r25, 0x00	; 0
    4b60:	28 17       	cp	r18, r24
    4b62:	39 07       	cpc	r19, r25
    4b64:	34 f4       	brge	.+12     	; 0x4b72 <nrk_wait_until_next_period+0x50>
        {
            timer += TIME_PAD;
    4b66:	81 2f       	mov	r24, r17
    4b68:	8e 5f       	subi	r24, 0xFE	; 254
            _nrk_prev_timer_val = timer;                  // pdiener: why is this only set in this special case?
    4b6a:	80 93 9c 05 	sts	0x059C, r24
            _nrk_set_next_wakeup (timer);                 // pdiener: Set next wakeup to NOW
    4b6e:	0e 94 b3 2e 	call	0x5d66	; 0x5d66 <_nrk_set_next_wakeup>
        }

    nrk_int_enable ();
    4b72:	0e 94 62 14 	call	0x28c4	; 0x28c4 <nrk_int_enable>
    _nrk_wait_for_scheduler ();
    4b76:	0e 94 ef 23 	call	0x47de	; 0x47de <_nrk_wait_for_scheduler>
    return NRK_OK;
}
    4b7a:	81 e0       	ldi	r24, 0x01	; 1
    4b7c:	1f 91       	pop	r17
    4b7e:	08 95       	ret

00004b80 <nrk_terminate_task>:



nrk_status_t nrk_terminate_task ()
{
    nrk_rem_from_readyQ (nrk_cur_task_TCB->task_ID);
    4b80:	e0 91 3e 08 	lds	r30, 0x083E
    4b84:	f0 91 3f 08 	lds	r31, 0x083F
    4b88:	80 85       	ldd	r24, Z+8	; 0x08
    4b8a:	0e 94 8a 23 	call	0x4714	; 0x4714 <nrk_rem_from_readyQ>
    nrk_cur_task_TCB->task_state = FINISHED;
    4b8e:	e0 91 3e 08 	lds	r30, 0x083E
    4b92:	f0 91 3f 08 	lds	r31, 0x083F
    4b96:	84 e0       	ldi	r24, 0x04	; 4
    4b98:	81 87       	std	Z+9, r24	; 0x09

    // HAHA, there is NO next period...
    nrk_wait_until_next_period ();
    4b9a:	0e 94 91 25 	call	0x4b22	; 0x4b22 <nrk_wait_until_next_period>
    return NRK_OK;
}
    4b9e:	81 e0       	ldi	r24, 0x01	; 1
    4ba0:	08 95       	ret

00004ba2 <nrk_add_to_readyQ>:
    //nrk_kprintf (PSTR ("\n\r"));
}


void nrk_add_to_readyQ (int8_t task_ID)
{
    4ba2:	bf 92       	push	r11
    4ba4:	cf 92       	push	r12
    4ba6:	df 92       	push	r13
    4ba8:	ef 92       	push	r14
    4baa:	ff 92       	push	r15
    4bac:	0f 93       	push	r16
    4bae:	1f 93       	push	r17
    4bb0:	cf 93       	push	r28
    4bb2:	df 93       	push	r29
    4bb4:	b8 2e       	mov	r11, r24
    nrk_queue *NextNode;
    nrk_queue *CurNode;


    NextNode = _head_node;
    4bb6:	00 91 33 08 	lds	r16, 0x0833
    4bba:	10 91 34 08 	lds	r17, 0x0834
    CurNode = _free_node;
    4bbe:	c0 91 77 07 	lds	r28, 0x0777
    4bc2:	d0 91 78 07 	lds	r29, 0x0778
    //printf( "nrk_add_to_readyQ %d\n",task_ID );
    // nrk_queue full
    if (_free_node == NULL)
    4bc6:	20 97       	sbiw	r28, 0x00	; 0
    4bc8:	09 f4       	brne	.+2      	; 0x4bcc <nrk_add_to_readyQ+0x2a>
    4bca:	bd c0       	rjmp	.+378    	; 0x4d46 <nrk_add_to_readyQ+0x1a4>
    }


 

    if (_head_node != NULL)
    4bcc:	01 15       	cp	r16, r1
    4bce:	11 05       	cpc	r17, r1
    4bd0:	09 f4       	brne	.+2      	; 0x4bd4 <nrk_add_to_readyQ+0x32>
    4bd2:	70 c0       	rjmp	.+224    	; 0x4cb4 <nrk_add_to_readyQ+0x112>
    {
		// System ceiling is being set
		system_ceiling();
    4bd4:	0e 94 45 21 	call	0x428a	; 0x428a <system_ceiling>

		// Ceiling is being checked with the preemption level
		if(systemCeiling >= nrk_task_TCB[task_ID].task_prelevel )
    4bd8:	2b 2d       	mov	r18, r11
    4bda:	33 27       	eor	r19, r19
    4bdc:	27 fd       	sbrc	r18, 7
    4bde:	30 95       	com	r19
    4be0:	83 e2       	ldi	r24, 0x23	; 35
    4be2:	90 e0       	ldi	r25, 0x00	; 0
    4be4:	28 9f       	mul	r18, r24
    4be6:	f0 01       	movw	r30, r0
    4be8:	29 9f       	mul	r18, r25
    4bea:	f0 0d       	add	r31, r0
    4bec:	38 9f       	mul	r19, r24
    4bee:	f0 0d       	add	r31, r0
    4bf0:	11 24       	eor	r1, r1
    4bf2:	e7 58       	subi	r30, 0x87	; 135
    4bf4:	f8 4f       	sbci	r31, 0xF8	; 248
    4bf6:	85 89       	ldd	r24, Z+21	; 0x15
    4bf8:	90 e0       	ldi	r25, 0x00	; 0
    4bfa:	a0 e0       	ldi	r26, 0x00	; 0
    4bfc:	b0 e0       	ldi	r27, 0x00	; 0
    4bfe:	20 91 34 06 	lds	r18, 0x0634
    4c02:	30 91 35 06 	lds	r19, 0x0635
    4c06:	40 91 36 06 	lds	r20, 0x0636
    4c0a:	50 91 37 06 	lds	r21, 0x0637
    4c0e:	28 17       	cp	r18, r24
    4c10:	39 07       	cpc	r19, r25
    4c12:	4a 07       	cpc	r20, r26
    4c14:	5b 07       	cpc	r21, r27
    4c16:	08 f4       	brcc	.+2      	; 0x4c1a <nrk_add_to_readyQ+0x78>
    4c18:	4d c0       	rjmp	.+154    	; 0x4cb4 <nrk_add_to_readyQ+0x112>
		{
			while (NextNode != NULL) 
			{		

					if (nrk_task_TCB[NextNode->task_ID].next_period > nrk_task_TCB[task_ID].next_period)
    4c1a:	c1 8c       	ldd	r12, Z+25	; 0x19
    4c1c:	d2 8c       	ldd	r13, Z+26	; 0x1a
    4c1e:	43 e2       	ldi	r20, 0x23	; 35
    4c20:	50 e0       	ldi	r21, 0x00	; 0

    				//if((earliestDeadlineID == NRK_IDLE_TASK_ID || nrk_task_TCB[task_ID].next_period < nrk_task_TCB[earliestDeadlineID].next_period) && nrk_task_TCB[task_ID].task_state == READY)
					//	earliestDeadlineID = task_ID;

				  if (nrk_task_TCB[NextNode->task_ID].elevated_prio_flag)
					if (nrk_task_TCB[NextNode->task_ID].task_prio_ceil <
    4c22:	bf 01       	movw	r22, r30
    4c24:	66 5f       	subi	r22, 0xF6	; 246
    4c26:	7f 4f       	sbci	r23, 0xFF	; 255
						nrk_task_TCB[task_ID].task_prio)
					  break;
				  if (nrk_task_TCB[task_ID].elevated_prio_flag)
    4c28:	84 e0       	ldi	r24, 0x04	; 4
    4c2a:	e8 2e       	mov	r14, r24
    4c2c:	f1 2c       	mov	r15, r1
    4c2e:	ee 0e       	add	r14, r30
    4c30:	ff 1e       	adc	r15, r31
					if (nrk_task_TCB[NextNode->task_ID].task_prio <
    4c32:	df 01       	movw	r26, r30
    4c34:	1b 96       	adiw	r26, 0x0b	; 11
		if(systemCeiling >= nrk_task_TCB[task_ID].task_prelevel )
		{
			while (NextNode != NULL) 
			{		

					if (nrk_task_TCB[NextNode->task_ID].next_period > nrk_task_TCB[task_ID].next_period)
    4c36:	f8 01       	movw	r30, r16
    4c38:	80 81       	ld	r24, Z
    4c3a:	28 2f       	mov	r18, r24
    4c3c:	30 e0       	ldi	r19, 0x00	; 0
    4c3e:	24 9f       	mul	r18, r20
    4c40:	f0 01       	movw	r30, r0
    4c42:	25 9f       	mul	r18, r21
    4c44:	f0 0d       	add	r31, r0
    4c46:	34 9f       	mul	r19, r20
    4c48:	f0 0d       	add	r31, r0
    4c4a:	11 24       	eor	r1, r1
    4c4c:	e7 58       	subi	r30, 0x87	; 135
    4c4e:	f8 4f       	sbci	r31, 0xF8	; 248
    4c50:	81 8d       	ldd	r24, Z+25	; 0x19
    4c52:	92 8d       	ldd	r25, Z+26	; 0x1a
    4c54:	c8 16       	cp	r12, r24
    4c56:	d9 06       	cpc	r13, r25
    4c58:	68 f1       	brcs	.+90     	; 0x4cb4 <nrk_add_to_readyQ+0x112>
					  break;

    				//if((earliestDeadlineID == NRK_IDLE_TASK_ID || nrk_task_TCB[task_ID].next_period < nrk_task_TCB[earliestDeadlineID].next_period) && nrk_task_TCB[task_ID].task_state == READY)
					//	earliestDeadlineID = task_ID;

				  if (nrk_task_TCB[NextNode->task_ID].elevated_prio_flag)
    4c5a:	84 81       	ldd	r24, Z+4	; 0x04
    4c5c:	88 23       	and	r24, r24
    4c5e:	29 f0       	breq	.+10     	; 0x4c6a <nrk_add_to_readyQ+0xc8>
					if (nrk_task_TCB[NextNode->task_ID].task_prio_ceil <
    4c60:	93 85       	ldd	r25, Z+11	; 0x0b
    4c62:	fb 01       	movw	r30, r22
    4c64:	80 81       	ld	r24, Z
    4c66:	98 17       	cp	r25, r24
    4c68:	28 f1       	brcs	.+74     	; 0x4cb4 <nrk_add_to_readyQ+0x112>
						nrk_task_TCB[task_ID].task_prio)
					  break;
				  if (nrk_task_TCB[task_ID].elevated_prio_flag)
    4c6a:	f7 01       	movw	r30, r14
    4c6c:	80 81       	ld	r24, Z
    4c6e:	88 23       	and	r24, r24
    4c70:	69 f0       	breq	.+26     	; 0x4c8c <nrk_add_to_readyQ+0xea>
					if (nrk_task_TCB[NextNode->task_ID].task_prio <
    4c72:	24 9f       	mul	r18, r20
    4c74:	f0 01       	movw	r30, r0
    4c76:	25 9f       	mul	r18, r21
    4c78:	f0 0d       	add	r31, r0
    4c7a:	34 9f       	mul	r19, r20
    4c7c:	f0 0d       	add	r31, r0
    4c7e:	11 24       	eor	r1, r1
    4c80:	e7 58       	subi	r30, 0x87	; 135
    4c82:	f8 4f       	sbci	r31, 0xF8	; 248
    4c84:	92 85       	ldd	r25, Z+10	; 0x0a
    4c86:	8c 91       	ld	r24, X
    4c88:	98 17       	cp	r25, r24
    4c8a:	a0 f0       	brcs	.+40     	; 0x4cb4 <nrk_add_to_readyQ+0x112>
						nrk_task_TCB[task_ID].task_prio_ceil)
					  break;
				  if (nrk_task_TCB[NextNode->task_ID].task_prio <
    4c8c:	24 9f       	mul	r18, r20
    4c8e:	f0 01       	movw	r30, r0
    4c90:	25 9f       	mul	r18, r21
    4c92:	f0 0d       	add	r31, r0
    4c94:	34 9f       	mul	r19, r20
    4c96:	f0 0d       	add	r31, r0
    4c98:	11 24       	eor	r1, r1
    4c9a:	e7 58       	subi	r30, 0x87	; 135
    4c9c:	f8 4f       	sbci	r31, 0xF8	; 248
    4c9e:	92 85       	ldd	r25, Z+10	; 0x0a
    4ca0:	fb 01       	movw	r30, r22
    4ca2:	80 81       	ld	r24, Z
    4ca4:	98 17       	cp	r25, r24
    4ca6:	30 f0       	brcs	.+12     	; 0x4cb4 <nrk_add_to_readyQ+0x112>
					  nrk_task_TCB[task_ID].task_prio)
					break;

					NextNode = NextNode->Next;
    4ca8:	f8 01       	movw	r30, r16
    4caa:	03 81       	ldd	r16, Z+3	; 0x03
    4cac:	14 81       	ldd	r17, Z+4	; 0x04
		system_ceiling();

		// Ceiling is being checked with the preemption level
		if(systemCeiling >= nrk_task_TCB[task_ID].task_prelevel )
		{
			while (NextNode != NULL) 
    4cae:	01 15       	cp	r16, r1
    4cb0:	11 05       	cpc	r17, r1
    4cb2:	09 f6       	brne	.-126    	; 0x4c36 <nrk_add_to_readyQ+0x94>
        // Issues - 1 comes, becomes 2', 1 more comes (2' 1) then 2 comes where should it be placed ?
        // 2' 2  1 or 2 2' 1 in ready q , what happens after 2'->1, what if 2'->2

    }

    CurNode->task_ID = task_ID;
    4cb4:	b8 82       	st	Y, r11
    _free_node = _free_node->Next;
    4cb6:	e0 91 77 07 	lds	r30, 0x0777
    4cba:	f0 91 78 07 	lds	r31, 0x0778
    4cbe:	03 80       	ldd	r0, Z+3	; 0x03
    4cc0:	f4 81       	ldd	r31, Z+4	; 0x04
    4cc2:	e0 2d       	mov	r30, r0
    4cc4:	f0 93 78 07 	sts	0x0778, r31
    4cc8:	e0 93 77 07 	sts	0x0777, r30

    if (NextNode == _head_node)
    4ccc:	80 91 33 08 	lds	r24, 0x0833
    4cd0:	90 91 34 08 	lds	r25, 0x0834
    4cd4:	08 17       	cp	r16, r24
    4cd6:	19 07       	cpc	r17, r25
    4cd8:	c1 f4       	brne	.+48     	; 0x4d0a <nrk_add_to_readyQ+0x168>
    {
        //at start
        if (_head_node != NULL)
    4cda:	01 15       	cp	r16, r1
    4cdc:	11 05       	cpc	r17, r1
    4cde:	51 f0       	breq	.+20     	; 0x4cf4 <nrk_add_to_readyQ+0x152>
        {
            CurNode->Next = _head_node;
    4ce0:	1c 83       	std	Y+4, r17	; 0x04
    4ce2:	0b 83       	std	Y+3, r16	; 0x03
            CurNode->Prev = NULL;
    4ce4:	1a 82       	std	Y+2, r1	; 0x02
    4ce6:	19 82       	std	Y+1, r1	; 0x01
            _head_node->Prev = CurNode;
    4ce8:	d8 01       	movw	r26, r16
    4cea:	12 96       	adiw	r26, 0x02	; 2
    4cec:	dc 93       	st	X, r29
    4cee:	ce 93       	st	-X, r28
    4cf0:	11 97       	sbiw	r26, 0x01	; 1
    4cf2:	06 c0       	rjmp	.+12     	; 0x4d00 <nrk_add_to_readyQ+0x15e>
        }
        else
        {
            CurNode->Next = NULL;
    4cf4:	1c 82       	std	Y+4, r1	; 0x04
    4cf6:	1b 82       	std	Y+3, r1	; 0x03
            CurNode->Prev = NULL;
    4cf8:	1a 82       	std	Y+2, r1	; 0x02
    4cfa:	19 82       	std	Y+1, r1	; 0x01
            _free_node->Prev = CurNode;
    4cfc:	d2 83       	std	Z+2, r29	; 0x02
    4cfe:	c1 83       	std	Z+1, r28	; 0x01
        }
        _head_node = CurNode;
    4d00:	d0 93 34 08 	sts	0x0834, r29
    4d04:	c0 93 33 08 	sts	0x0833, r28
    4d08:	1e c0       	rjmp	.+60     	; 0x4d46 <nrk_add_to_readyQ+0x1a4>
    4d0a:	d8 01       	movw	r26, r16
    4d0c:	11 96       	adiw	r26, 0x01	; 1
    4d0e:	8d 91       	ld	r24, X+
    4d10:	9c 91       	ld	r25, X
    4d12:	12 97       	sbiw	r26, 0x02	; 2

    }
    else
    {
        if (NextNode != _free_node)
    4d14:	0e 17       	cp	r16, r30
    4d16:	1f 07       	cpc	r17, r31
    4d18:	79 f0       	breq	.+30     	; 0x4d38 <nrk_add_to_readyQ+0x196>
        {
            // Insert  in middle

            CurNode->Prev = NextNode->Prev;
    4d1a:	9a 83       	std	Y+2, r25	; 0x02
    4d1c:	89 83       	std	Y+1, r24	; 0x01
            CurNode->Next = NextNode;
    4d1e:	1c 83       	std	Y+4, r17	; 0x04
    4d20:	0b 83       	std	Y+3, r16	; 0x03
            (NextNode->Prev)->Next = CurNode;
    4d22:	11 96       	adiw	r26, 0x01	; 1
    4d24:	ed 91       	ld	r30, X+
    4d26:	fc 91       	ld	r31, X
    4d28:	12 97       	sbiw	r26, 0x02	; 2
    4d2a:	d4 83       	std	Z+4, r29	; 0x04
    4d2c:	c3 83       	std	Z+3, r28	; 0x03
            NextNode->Prev = CurNode;
    4d2e:	12 96       	adiw	r26, 0x02	; 2
    4d30:	dc 93       	st	X, r29
    4d32:	ce 93       	st	-X, r28
    4d34:	11 97       	sbiw	r26, 0x01	; 1
    4d36:	07 c0       	rjmp	.+14     	; 0x4d46 <nrk_add_to_readyQ+0x1a4>
        }
        else
        {
            //insert at end
            CurNode->Next = NULL;
    4d38:	1c 82       	std	Y+4, r1	; 0x04
    4d3a:	1b 82       	std	Y+3, r1	; 0x03
            CurNode->Prev = _free_node->Prev;
    4d3c:	9a 83       	std	Y+2, r25	; 0x02
    4d3e:	89 83       	std	Y+1, r24	; 0x01
            _free_node->Prev = CurNode;
    4d40:	f8 01       	movw	r30, r16
    4d42:	d2 83       	std	Z+2, r29	; 0x02
    4d44:	c1 83       	std	Z+1, r28	; 0x01
        }

    }

}
    4d46:	df 91       	pop	r29
    4d48:	cf 91       	pop	r28
    4d4a:	1f 91       	pop	r17
    4d4c:	0f 91       	pop	r16
    4d4e:	ff 90       	pop	r15
    4d50:	ef 90       	pop	r14
    4d52:	df 90       	pop	r13
    4d54:	cf 90       	pop	r12
    4d56:	bf 90       	pop	r11
    4d58:	08 95       	ret

00004d5a <nrk_activate_task>:




nrk_status_t nrk_activate_task (nrk_task_type * Task)
{
    4d5a:	ef 92       	push	r14
    4d5c:	ff 92       	push	r15
    4d5e:	0f 93       	push	r16
    4d60:	1f 93       	push	r17
    4d62:	cf 93       	push	r28
    4d64:	df 93       	push	r29
    4d66:	ec 01       	movw	r28, r24
    uint8_t rtype;
    void *topOfStackPtr;

    topOfStackPtr =
    4d68:	69 81       	ldd	r22, Y+1	; 0x01
    4d6a:	7a 81       	ldd	r23, Y+2	; 0x02
    4d6c:	4b 81       	ldd	r20, Y+3	; 0x03
    4d6e:	5c 81       	ldd	r21, Y+4	; 0x04
    4d70:	8d 81       	ldd	r24, Y+5	; 0x05
    4d72:	9e 81       	ldd	r25, Y+6	; 0x06
    4d74:	0e 94 2d 30 	call	0x605a	; 0x605a <nrk_task_stk_init>
    4d78:	bc 01       	movw	r22, r24
        (void *) nrk_task_stk_init (Task->task, Task->Ptos, Task->Pbos);

    //printf("activate %d\n",(int)Task.task_ID);
    if (Task->FirstActivation == TRUE)
    4d7a:	8f 81       	ldd	r24, Y+7	; 0x07
    4d7c:	88 23       	and	r24, r24
    4d7e:	69 f0       	breq	.+26     	; 0x4d9a <nrk_activate_task+0x40>
    {
        rtype = nrk_TCB_init (Task, topOfStackPtr, Task->Pbos, 0, (void *) 0, 0);
    4d80:	4b 81       	ldd	r20, Y+3	; 0x03
    4d82:	5c 81       	ldd	r21, Y+4	; 0x04
    4d84:	ce 01       	movw	r24, r28
    4d86:	20 e0       	ldi	r18, 0x00	; 0
    4d88:	30 e0       	ldi	r19, 0x00	; 0
    4d8a:	00 e0       	ldi	r16, 0x00	; 0
    4d8c:	10 e0       	ldi	r17, 0x00	; 0
    4d8e:	ee 24       	eor	r14, r14
    4d90:	ff 24       	eor	r15, r15
    4d92:	0e 94 6c 14 	call	0x28d8	; 0x28d8 <nrk_TCB_init>
        Task->FirstActivation = FALSE;
    4d96:	1f 82       	std	Y+7, r1	; 0x07
    4d98:	16 c0       	rjmp	.+44     	; 0x4dc6 <nrk_activate_task+0x6c>

    }
    else
    {
        if (nrk_task_TCB[Task->task_ID].task_state != SUSPENDED)
    4d9a:	88 81       	ld	r24, Y
    4d9c:	99 27       	eor	r25, r25
    4d9e:	87 fd       	sbrc	r24, 7
    4da0:	90 95       	com	r25
    4da2:	23 e2       	ldi	r18, 0x23	; 35
    4da4:	30 e0       	ldi	r19, 0x00	; 0
    4da6:	82 9f       	mul	r24, r18
    4da8:	f0 01       	movw	r30, r0
    4daa:	83 9f       	mul	r24, r19
    4dac:	f0 0d       	add	r31, r0
    4dae:	92 9f       	mul	r25, r18
    4db0:	f0 0d       	add	r31, r0
    4db2:	11 24       	eor	r1, r1
    4db4:	e7 58       	subi	r30, 0x87	; 135
    4db6:	f8 4f       	sbci	r31, 0xF8	; 248
    4db8:	81 85       	ldd	r24, Z+9	; 0x09
    4dba:	83 30       	cpi	r24, 0x03	; 3
    4dbc:	11 f0       	breq	.+4      	; 0x4dc2 <nrk_activate_task+0x68>
    4dbe:	8f ef       	ldi	r24, 0xFF	; 255
    4dc0:	1b c0       	rjmp	.+54     	; 0x4df8 <nrk_activate_task+0x9e>
            return NRK_ERROR;
        //Re-init some parts of TCB

        nrk_task_TCB[Task->task_ID].OSTaskStkPtr = (NRK_STK *) topOfStackPtr;
    4dc2:	71 83       	std	Z+1, r23	; 0x01
    4dc4:	60 83       	st	Z, r22
    // If Idle Task then Add to ready Q
    //if(Task->task_ID==0) nrk_add_to_readyQ(Task->task_ID);
    //nrk_add_to_readyQ(Task->task_ID);
    //printf( "task %d nw %d \r\n",Task->task_ID,nrk_task_TCB[Task->task_ID].next_wakeup);
    //printf( "task %d nw %d \r\n",Task->task_ID,Task->offset.secs);
    if (nrk_task_TCB[Task->task_ID].next_wakeup == 0)
    4dc6:	88 81       	ld	r24, Y
    4dc8:	99 27       	eor	r25, r25
    4dca:	87 fd       	sbrc	r24, 7
    4dcc:	90 95       	com	r25
    4dce:	23 e2       	ldi	r18, 0x23	; 35
    4dd0:	30 e0       	ldi	r19, 0x00	; 0
    4dd2:	82 9f       	mul	r24, r18
    4dd4:	f0 01       	movw	r30, r0
    4dd6:	83 9f       	mul	r24, r19
    4dd8:	f0 0d       	add	r31, r0
    4dda:	92 9f       	mul	r25, r18
    4ddc:	f0 0d       	add	r31, r0
    4dde:	11 24       	eor	r1, r1
    4de0:	e7 58       	subi	r30, 0x87	; 135
    4de2:	f8 4f       	sbci	r31, 0xF8	; 248
    4de4:	87 89       	ldd	r24, Z+23	; 0x17
    4de6:	90 8d       	ldd	r25, Z+24	; 0x18
    4de8:	89 2b       	or	r24, r25
    4dea:	29 f4       	brne	.+10     	; 0x4df6 <nrk_activate_task+0x9c>
    {
        nrk_task_TCB[Task->task_ID].task_state = READY;
    4dec:	82 e0       	ldi	r24, 0x02	; 2
    4dee:	81 87       	std	Z+9, r24	; 0x09
        nrk_add_to_readyQ (Task->task_ID);
    4df0:	88 81       	ld	r24, Y
    4df2:	0e 94 d1 25 	call	0x4ba2	; 0x4ba2 <nrk_add_to_readyQ>
    4df6:	81 e0       	ldi	r24, 0x01	; 1
    }

    return NRK_OK;
}
    4df8:	df 91       	pop	r29
    4dfa:	cf 91       	pop	r28
    4dfc:	1f 91       	pop	r17
    4dfe:	0f 91       	pop	r16
    4e00:	ff 90       	pop	r15
    4e02:	ef 90       	pop	r14
    4e04:	08 95       	ret

00004e06 <nrk_time_sub>:
/*
 * result = high-low
 *
 */
int8_t nrk_time_sub(nrk_time_t *result,nrk_time_t high, nrk_time_t low)
{
    4e06:	8f 92       	push	r8
    4e08:	9f 92       	push	r9
    4e0a:	af 92       	push	r10
    4e0c:	bf 92       	push	r11
    4e0e:	cf 92       	push	r12
    4e10:	df 92       	push	r13
    4e12:	ef 92       	push	r14
    4e14:	ff 92       	push	r15
    4e16:	0f 93       	push	r16
    4e18:	1f 93       	push	r17
    4e1a:	df 93       	push	r29
    4e1c:	cf 93       	push	r28
    4e1e:	cd b7       	in	r28, 0x3d	; 61
    4e20:	de b7       	in	r29, 0x3e	; 62
    4e22:	60 97       	sbiw	r28, 0x10	; 16
    4e24:	0f b6       	in	r0, 0x3f	; 63
    4e26:	f8 94       	cli
    4e28:	de bf       	out	0x3e, r29	; 62
    4e2a:	0f be       	out	0x3f, r0	; 63
    4e2c:	cd bf       	out	0x3d, r28	; 61
    4e2e:	fc 01       	movw	r30, r24
    4e30:	09 83       	std	Y+1, r16	; 0x01
    4e32:	1a 83       	std	Y+2, r17	; 0x02
    4e34:	2b 83       	std	Y+3, r18	; 0x03
    4e36:	3c 83       	std	Y+4, r19	; 0x04
    4e38:	4d 83       	std	Y+5, r20	; 0x05
    4e3a:	5e 83       	std	Y+6, r21	; 0x06
    4e3c:	6f 83       	std	Y+7, r22	; 0x07
    4e3e:	78 87       	std	Y+8, r23	; 0x08
    4e40:	89 86       	std	Y+9, r8	; 0x09
    4e42:	9a 86       	std	Y+10, r9	; 0x0a
    4e44:	ab 86       	std	Y+11, r10	; 0x0b
    4e46:	bc 86       	std	Y+12, r11	; 0x0c
    4e48:	cd 86       	std	Y+13, r12	; 0x0d
    4e4a:	de 86       	std	Y+14, r13	; 0x0e
    4e4c:	ef 86       	std	Y+15, r14	; 0x0f
    4e4e:	f8 8a       	std	Y+16, r15	; 0x10
    4e50:	89 81       	ldd	r24, Y+1	; 0x01
    4e52:	9a 81       	ldd	r25, Y+2	; 0x02
    4e54:	ab 81       	ldd	r26, Y+3	; 0x03
    4e56:	bc 81       	ldd	r27, Y+4	; 0x04
    4e58:	2d 81       	ldd	r18, Y+5	; 0x05
    4e5a:	3e 81       	ldd	r19, Y+6	; 0x06
    4e5c:	4f 81       	ldd	r20, Y+7	; 0x07
    4e5e:	58 85       	ldd	r21, Y+8	; 0x08
    4e60:	e9 84       	ldd	r14, Y+9	; 0x09
    4e62:	fa 84       	ldd	r15, Y+10	; 0x0a
    4e64:	0b 85       	ldd	r16, Y+11	; 0x0b
    4e66:	1c 85       	ldd	r17, Y+12	; 0x0c
    4e68:	ad 84       	ldd	r10, Y+13	; 0x0d
    4e6a:	be 84       	ldd	r11, Y+14	; 0x0e
    4e6c:	cf 84       	ldd	r12, Y+15	; 0x0f
    4e6e:	d8 88       	ldd	r13, Y+16	; 0x10
if(high.secs<low.secs) return NRK_ERROR; 
    4e70:	8e 15       	cp	r24, r14
    4e72:	9f 05       	cpc	r25, r15
    4e74:	a0 07       	cpc	r26, r16
    4e76:	b1 07       	cpc	r27, r17
    4e78:	f0 f1       	brcs	.+124    	; 0x4ef6 <nrk_time_sub+0xf0>
if(low.secs==high.secs)
    4e7a:	e8 16       	cp	r14, r24
    4e7c:	f9 06       	cpc	r15, r25
    4e7e:	0a 07       	cpc	r16, r26
    4e80:	1b 07       	cpc	r17, r27
    4e82:	91 f4       	brne	.+36     	; 0x4ea8 <nrk_time_sub+0xa2>
	{
	if((uint32_t)low.nano_secs>(uint32_t)high.nano_secs)  return NRK_ERROR;  
    4e84:	2a 15       	cp	r18, r10
    4e86:	3b 05       	cpc	r19, r11
    4e88:	4c 05       	cpc	r20, r12
    4e8a:	5d 05       	cpc	r21, r13
    4e8c:	a0 f1       	brcs	.+104    	; 0x4ef6 <nrk_time_sub+0xf0>
	result->nano_secs=(uint32_t)high.nano_secs-(uint32_t)low.nano_secs;
    4e8e:	2a 19       	sub	r18, r10
    4e90:	3b 09       	sbc	r19, r11
    4e92:	4c 09       	sbc	r20, r12
    4e94:	5d 09       	sbc	r21, r13
    4e96:	24 83       	std	Z+4, r18	; 0x04
    4e98:	35 83       	std	Z+5, r19	; 0x05
    4e9a:	46 83       	std	Z+6, r20	; 0x06
    4e9c:	57 83       	std	Z+7, r21	; 0x07
	result->secs=0;
    4e9e:	10 82       	st	Z, r1
    4ea0:	11 82       	std	Z+1, r1	; 0x01
    4ea2:	12 82       	std	Z+2, r1	; 0x02
    4ea4:	13 82       	std	Z+3, r1	; 0x03
    4ea6:	1c c0       	rjmp	.+56     	; 0x4ee0 <nrk_time_sub+0xda>
	return NRK_OK;
	}
if(low.nano_secs > high.nano_secs)
    4ea8:	2a 15       	cp	r18, r10
    4eaa:	3b 05       	cpc	r19, r11
    4eac:	4c 05       	cpc	r20, r12
    4eae:	5d 05       	cpc	r21, r13
    4eb0:	c8 f4       	brcc	.+50     	; 0x4ee4 <nrk_time_sub+0xde>
{
	high.secs--;
	high.nano_secs+=(uint32_t)NANOS_PER_SEC;
	result->secs=high.secs-low.secs;
    4eb2:	01 97       	sbiw	r24, 0x01	; 1
    4eb4:	a1 09       	sbc	r26, r1
    4eb6:	b1 09       	sbc	r27, r1
    4eb8:	8e 19       	sub	r24, r14
    4eba:	9f 09       	sbc	r25, r15
    4ebc:	a0 0b       	sbc	r26, r16
    4ebe:	b1 0b       	sbc	r27, r17
    4ec0:	80 83       	st	Z, r24
    4ec2:	91 83       	std	Z+1, r25	; 0x01
    4ec4:	a2 83       	std	Z+2, r26	; 0x02
    4ec6:	b3 83       	std	Z+3, r27	; 0x03
	result->nano_secs=high.nano_secs-low.nano_secs;
    4ec8:	20 50       	subi	r18, 0x00	; 0
    4eca:	36 43       	sbci	r19, 0x36	; 54
    4ecc:	45 46       	sbci	r20, 0x65	; 101
    4ece:	54 4c       	sbci	r21, 0xC4	; 196
    4ed0:	2a 19       	sub	r18, r10
    4ed2:	3b 09       	sbc	r19, r11
    4ed4:	4c 09       	sbc	r20, r12
    4ed6:	5d 09       	sbc	r21, r13
    4ed8:	24 83       	std	Z+4, r18	; 0x04
    4eda:	35 83       	std	Z+5, r19	; 0x05
    4edc:	46 83       	std	Z+6, r20	; 0x06
    4ede:	57 83       	std	Z+7, r21	; 0x07
    4ee0:	81 e0       	ldi	r24, 0x01	; 1
    4ee2:	0a c0       	rjmp	.+20     	; 0x4ef8 <nrk_time_sub+0xf2>
	return NRK_OK;
}

result->secs=high.secs-low.secs;
    4ee4:	8e 19       	sub	r24, r14
    4ee6:	9f 09       	sbc	r25, r15
    4ee8:	a0 0b       	sbc	r26, r16
    4eea:	b1 0b       	sbc	r27, r17
    4eec:	80 83       	st	Z, r24
    4eee:	91 83       	std	Z+1, r25	; 0x01
    4ef0:	a2 83       	std	Z+2, r26	; 0x02
    4ef2:	b3 83       	std	Z+3, r27	; 0x03
    4ef4:	ed cf       	rjmp	.-38     	; 0x4ed0 <nrk_time_sub+0xca>
result->nano_secs=high.nano_secs-low.nano_secs;
return NRK_OK;
    4ef6:	8f ef       	ldi	r24, 0xFF	; 255
}
    4ef8:	60 96       	adiw	r28, 0x10	; 16
    4efa:	0f b6       	in	r0, 0x3f	; 63
    4efc:	f8 94       	cli
    4efe:	de bf       	out	0x3e, r29	; 62
    4f00:	0f be       	out	0x3f, r0	; 63
    4f02:	cd bf       	out	0x3d, r28	; 61
    4f04:	cf 91       	pop	r28
    4f06:	df 91       	pop	r29
    4f08:	1f 91       	pop	r17
    4f0a:	0f 91       	pop	r16
    4f0c:	ff 90       	pop	r15
    4f0e:	ef 90       	pop	r14
    4f10:	df 90       	pop	r13
    4f12:	cf 90       	pop	r12
    4f14:	bf 90       	pop	r11
    4f16:	af 90       	pop	r10
    4f18:	9f 90       	pop	r9
    4f1a:	8f 90       	pop	r8
    4f1c:	08 95       	ret

00004f1e <nrk_time_add>:
/*
 * result = a+b
 *
 */
int8_t nrk_time_add(nrk_time_t *result,nrk_time_t a, nrk_time_t b)
{
    4f1e:	8f 92       	push	r8
    4f20:	9f 92       	push	r9
    4f22:	af 92       	push	r10
    4f24:	bf 92       	push	r11
    4f26:	cf 92       	push	r12
    4f28:	df 92       	push	r13
    4f2a:	ef 92       	push	r14
    4f2c:	ff 92       	push	r15
    4f2e:	0f 93       	push	r16
    4f30:	1f 93       	push	r17
    4f32:	df 93       	push	r29
    4f34:	cf 93       	push	r28
    4f36:	cd b7       	in	r28, 0x3d	; 61
    4f38:	de b7       	in	r29, 0x3e	; 62
    4f3a:	60 97       	sbiw	r28, 0x10	; 16
    4f3c:	0f b6       	in	r0, 0x3f	; 63
    4f3e:	f8 94       	cli
    4f40:	de bf       	out	0x3e, r29	; 62
    4f42:	0f be       	out	0x3f, r0	; 63
    4f44:	cd bf       	out	0x3d, r28	; 61
    4f46:	fc 01       	movw	r30, r24
    4f48:	09 83       	std	Y+1, r16	; 0x01
    4f4a:	1a 83       	std	Y+2, r17	; 0x02
    4f4c:	2b 83       	std	Y+3, r18	; 0x03
    4f4e:	3c 83       	std	Y+4, r19	; 0x04
    4f50:	4d 83       	std	Y+5, r20	; 0x05
    4f52:	5e 83       	std	Y+6, r21	; 0x06
    4f54:	6f 83       	std	Y+7, r22	; 0x07
    4f56:	78 87       	std	Y+8, r23	; 0x08
    4f58:	89 86       	std	Y+9, r8	; 0x09
    4f5a:	9a 86       	std	Y+10, r9	; 0x0a
    4f5c:	ab 86       	std	Y+11, r10	; 0x0b
    4f5e:	bc 86       	std	Y+12, r11	; 0x0c
    4f60:	cd 86       	std	Y+13, r12	; 0x0d
    4f62:	de 86       	std	Y+14, r13	; 0x0e
    4f64:	ef 86       	std	Y+15, r14	; 0x0f
    4f66:	f8 8a       	std	Y+16, r15	; 0x10
    4f68:	ad 80       	ldd	r10, Y+5	; 0x05
    4f6a:	be 80       	ldd	r11, Y+6	; 0x06
    4f6c:	cf 80       	ldd	r12, Y+7	; 0x07
    4f6e:	d8 84       	ldd	r13, Y+8	; 0x08
    4f70:	ed 84       	ldd	r14, Y+13	; 0x0d
    4f72:	fe 84       	ldd	r15, Y+14	; 0x0e
    4f74:	0f 85       	ldd	r16, Y+15	; 0x0f
    4f76:	18 89       	ldd	r17, Y+16	; 0x10
result->secs=a.secs+b.secs;
    4f78:	89 85       	ldd	r24, Y+9	; 0x09
    4f7a:	9a 85       	ldd	r25, Y+10	; 0x0a
    4f7c:	ab 85       	ldd	r26, Y+11	; 0x0b
    4f7e:	bc 85       	ldd	r27, Y+12	; 0x0c
    4f80:	29 81       	ldd	r18, Y+1	; 0x01
    4f82:	3a 81       	ldd	r19, Y+2	; 0x02
    4f84:	4b 81       	ldd	r20, Y+3	; 0x03
    4f86:	5c 81       	ldd	r21, Y+4	; 0x04
    4f88:	82 0f       	add	r24, r18
    4f8a:	93 1f       	adc	r25, r19
    4f8c:	a4 1f       	adc	r26, r20
    4f8e:	b5 1f       	adc	r27, r21
    4f90:	80 83       	st	Z, r24
    4f92:	91 83       	std	Z+1, r25	; 0x01
    4f94:	a2 83       	std	Z+2, r26	; 0x02
    4f96:	b3 83       	std	Z+3, r27	; 0x03
result->nano_secs=a.nano_secs+b.nano_secs;
    4f98:	ea 0c       	add	r14, r10
    4f9a:	fb 1c       	adc	r15, r11
    4f9c:	0c 1d       	adc	r16, r12
    4f9e:	1d 1d       	adc	r17, r13
    4fa0:	e4 82       	std	Z+4, r14	; 0x04
    4fa2:	f5 82       	std	Z+5, r15	; 0x05
    4fa4:	06 83       	std	Z+6, r16	; 0x06
    4fa6:	17 83       	std	Z+7, r17	; 0x07
    4fa8:	13 c0       	rjmp	.+38     	; 0x4fd0 <nrk_time_add+0xb2>
 */
inline void nrk_time_compact_nanos(nrk_time_t *t)
{
  while(t->nano_secs>=NANOS_PER_SEC)
    {
    t->nano_secs-=NANOS_PER_SEC;
    4faa:	80 50       	subi	r24, 0x00	; 0
    4fac:	9a 4c       	sbci	r25, 0xCA	; 202
    4fae:	aa 49       	sbci	r26, 0x9A	; 154
    4fb0:	bb 43       	sbci	r27, 0x3B	; 59
    4fb2:	84 83       	std	Z+4, r24	; 0x04
    4fb4:	95 83       	std	Z+5, r25	; 0x05
    4fb6:	a6 83       	std	Z+6, r26	; 0x06
    4fb8:	b7 83       	std	Z+7, r27	; 0x07
    t->secs++;
    4fba:	80 81       	ld	r24, Z
    4fbc:	91 81       	ldd	r25, Z+1	; 0x01
    4fbe:	a2 81       	ldd	r26, Z+2	; 0x02
    4fc0:	b3 81       	ldd	r27, Z+3	; 0x03
    4fc2:	01 96       	adiw	r24, 0x01	; 1
    4fc4:	a1 1d       	adc	r26, r1
    4fc6:	b1 1d       	adc	r27, r1
    4fc8:	80 83       	st	Z, r24
    4fca:	91 83       	std	Z+1, r25	; 0x01
    4fcc:	a2 83       	std	Z+2, r26	; 0x02
    4fce:	b3 83       	std	Z+3, r27	; 0x03
 * seconds into the seconds field.
 *
 */
inline void nrk_time_compact_nanos(nrk_time_t *t)
{
  while(t->nano_secs>=NANOS_PER_SEC)
    4fd0:	84 81       	ldd	r24, Z+4	; 0x04
    4fd2:	95 81       	ldd	r25, Z+5	; 0x05
    4fd4:	a6 81       	ldd	r26, Z+6	; 0x06
    4fd6:	b7 81       	ldd	r27, Z+7	; 0x07
    4fd8:	80 30       	cpi	r24, 0x00	; 0
    4fda:	2a ec       	ldi	r18, 0xCA	; 202
    4fdc:	92 07       	cpc	r25, r18
    4fde:	2a e9       	ldi	r18, 0x9A	; 154
    4fe0:	a2 07       	cpc	r26, r18
    4fe2:	2b e3       	ldi	r18, 0x3B	; 59
    4fe4:	b2 07       	cpc	r27, r18
    4fe6:	08 f7       	brcc	.-62     	; 0x4faa <nrk_time_add+0x8c>
{
result->secs=a.secs+b.secs;
result->nano_secs=a.nano_secs+b.nano_secs;
nrk_time_compact_nanos(result);
return NRK_OK;
}
    4fe8:	81 e0       	ldi	r24, 0x01	; 1
    4fea:	60 96       	adiw	r28, 0x10	; 16
    4fec:	0f b6       	in	r0, 0x3f	; 63
    4fee:	f8 94       	cli
    4ff0:	de bf       	out	0x3e, r29	; 62
    4ff2:	0f be       	out	0x3f, r0	; 63
    4ff4:	cd bf       	out	0x3d, r28	; 61
    4ff6:	cf 91       	pop	r28
    4ff8:	df 91       	pop	r29
    4ffa:	1f 91       	pop	r17
    4ffc:	0f 91       	pop	r16
    4ffe:	ff 90       	pop	r15
    5000:	ef 90       	pop	r14
    5002:	df 90       	pop	r13
    5004:	cf 90       	pop	r12
    5006:	bf 90       	pop	r11
    5008:	af 90       	pop	r10
    500a:	9f 90       	pop	r9
    500c:	8f 90       	pop	r8
    500e:	08 95       	ret

00005010 <nrk_time_compact_nanos>:
 * the nano seconds field, this function will move the nano
 * seconds into the seconds field.
 *
 */
inline void nrk_time_compact_nanos(nrk_time_t *t)
{
    5010:	fc 01       	movw	r30, r24
    5012:	13 c0       	rjmp	.+38     	; 0x503a <nrk_time_compact_nanos+0x2a>
  while(t->nano_secs>=NANOS_PER_SEC)
    {
    t->nano_secs-=NANOS_PER_SEC;
    5014:	80 50       	subi	r24, 0x00	; 0
    5016:	9a 4c       	sbci	r25, 0xCA	; 202
    5018:	aa 49       	sbci	r26, 0x9A	; 154
    501a:	bb 43       	sbci	r27, 0x3B	; 59
    501c:	84 83       	std	Z+4, r24	; 0x04
    501e:	95 83       	std	Z+5, r25	; 0x05
    5020:	a6 83       	std	Z+6, r26	; 0x06
    5022:	b7 83       	std	Z+7, r27	; 0x07
    t->secs++;
    5024:	80 81       	ld	r24, Z
    5026:	91 81       	ldd	r25, Z+1	; 0x01
    5028:	a2 81       	ldd	r26, Z+2	; 0x02
    502a:	b3 81       	ldd	r27, Z+3	; 0x03
    502c:	01 96       	adiw	r24, 0x01	; 1
    502e:	a1 1d       	adc	r26, r1
    5030:	b1 1d       	adc	r27, r1
    5032:	80 83       	st	Z, r24
    5034:	91 83       	std	Z+1, r25	; 0x01
    5036:	a2 83       	std	Z+2, r26	; 0x02
    5038:	b3 83       	std	Z+3, r27	; 0x03
 * seconds into the seconds field.
 *
 */
inline void nrk_time_compact_nanos(nrk_time_t *t)
{
  while(t->nano_secs>=NANOS_PER_SEC)
    503a:	84 81       	ldd	r24, Z+4	; 0x04
    503c:	95 81       	ldd	r25, Z+5	; 0x05
    503e:	a6 81       	ldd	r26, Z+6	; 0x06
    5040:	b7 81       	ldd	r27, Z+7	; 0x07
    5042:	80 30       	cpi	r24, 0x00	; 0
    5044:	2a ec       	ldi	r18, 0xCA	; 202
    5046:	92 07       	cpc	r25, r18
    5048:	2a e9       	ldi	r18, 0x9A	; 154
    504a:	a2 07       	cpc	r26, r18
    504c:	2b e3       	ldi	r18, 0x3B	; 59
    504e:	b2 07       	cpc	r27, r18
    5050:	08 f7       	brcc	.-62     	; 0x5014 <nrk_time_compact_nanos+0x4>
    {
    t->nano_secs-=NANOS_PER_SEC;
    t->secs++;
    }
}
    5052:	08 95       	ret

00005054 <nrk_time_set>:



void nrk_time_set(uint32_t secs, uint32_t nano_secs)
{
  nrk_system_time.secs=secs;
    5054:	60 93 35 08 	sts	0x0835, r22
    5058:	70 93 36 08 	sts	0x0836, r23
    505c:	80 93 37 08 	sts	0x0837, r24
    5060:	90 93 38 08 	sts	0x0838, r25
  nrk_system_time.nano_secs=nano_secs;
    5064:	20 93 39 08 	sts	0x0839, r18
    5068:	30 93 3a 08 	sts	0x083A, r19
    506c:	40 93 3b 08 	sts	0x083B, r20
    5070:	50 93 3c 08 	sts	0x083C, r21
}
    5074:	08 95       	ret

00005076 <_nrk_time_to_ticks>:

uint16_t _nrk_time_to_ticks(nrk_time_t *t)
{
    5076:	6f 92       	push	r6
    5078:	7f 92       	push	r7
    507a:	8f 92       	push	r8
    507c:	9f 92       	push	r9
    507e:	af 92       	push	r10
    5080:	bf 92       	push	r11
    5082:	cf 92       	push	r12
    5084:	df 92       	push	r13
    5086:	ef 92       	push	r14
    5088:	ff 92       	push	r15
    508a:	0f 93       	push	r16
    508c:	1f 93       	push	r17
    508e:	fc 01       	movw	r30, r24
uint16_t ticks;
uint64_t tmp;
uint8_t i;
// FIXME: This will overflow
if(t->secs>0)
    5090:	60 80       	ld	r6, Z
    5092:	71 80       	ldd	r7, Z+1	; 0x01
    5094:	82 80       	ldd	r8, Z+2	; 0x02
    5096:	93 80       	ldd	r9, Z+3	; 0x03
    5098:	64 81       	ldd	r22, Z+4	; 0x04
    509a:	75 81       	ldd	r23, Z+5	; 0x05
    509c:	86 81       	ldd	r24, Z+6	; 0x06
    509e:	97 81       	ldd	r25, Z+7	; 0x07
    50a0:	61 14       	cp	r6, r1
    50a2:	71 04       	cpc	r7, r1
    50a4:	81 04       	cpc	r8, r1
    50a6:	91 04       	cpc	r9, r1
    50a8:	09 f4       	brne	.+2      	; 0x50ac <_nrk_time_to_ticks+0x36>
    50aa:	69 c0       	rjmp	.+210    	; 0x517e <_nrk_time_to_ticks+0x108>
{
   tmp=t->nano_secs;
   if(t->secs>65) return 0;
    50ac:	22 e4       	ldi	r18, 0x42	; 66
    50ae:	62 16       	cp	r6, r18
    50b0:	71 04       	cpc	r7, r1
    50b2:	81 04       	cpc	r8, r1
    50b4:	91 04       	cpc	r9, r1
    50b6:	18 f0       	brcs	.+6      	; 0x50be <_nrk_time_to_ticks+0x48>
    50b8:	20 e0       	ldi	r18, 0x00	; 0
    50ba:	30 e0       	ldi	r19, 0x00	; 0
    50bc:	66 c0       	rjmp	.+204    	; 0x518a <_nrk_time_to_ticks+0x114>
uint64_t tmp;
uint8_t i;
// FIXME: This will overflow
if(t->secs>0)
{
   tmp=t->nano_secs;
    50be:	5b 01       	movw	r10, r22
    50c0:	6c 01       	movw	r12, r24
    50c2:	ee 24       	eor	r14, r14
    50c4:	ff 24       	eor	r15, r15
    50c6:	87 01       	movw	r16, r14
    50c8:	50 e0       	ldi	r21, 0x00	; 0
    50ca:	3d c0       	rjmp	.+122    	; 0x5146 <_nrk_time_to_ticks+0xd0>
   if(t->secs>65) return 0;
   for(i=0; i<t->secs; i++ ) tmp+=NANOS_PER_SEC; // t->nano_secs+=NANOS_PER_SEC;
    50cc:	fa 2d       	mov	r31, r10
    50ce:	eb 2d       	mov	r30, r11
    50d0:	e6 53       	subi	r30, 0x36	; 54
    50d2:	91 e0       	ldi	r25, 0x01	; 1
    50d4:	eb 15       	cp	r30, r11
    50d6:	08 f0       	brcs	.+2      	; 0x50da <_nrk_time_to_ticks+0x64>
    50d8:	90 e0       	ldi	r25, 0x00	; 0
    50da:	8c 2d       	mov	r24, r12
    50dc:	86 56       	subi	r24, 0x66	; 102
    50de:	21 e0       	ldi	r18, 0x01	; 1
    50e0:	8c 15       	cp	r24, r12
    50e2:	08 f0       	brcs	.+2      	; 0x50e6 <_nrk_time_to_ticks+0x70>
    50e4:	20 e0       	ldi	r18, 0x00	; 0
    50e6:	79 2f       	mov	r23, r25
    50e8:	78 0f       	add	r23, r24
    50ea:	91 e0       	ldi	r25, 0x01	; 1
    50ec:	78 17       	cp	r23, r24
    50ee:	08 f0       	brcs	.+2      	; 0x50f2 <_nrk_time_to_ticks+0x7c>
    50f0:	90 e0       	ldi	r25, 0x00	; 0
    50f2:	29 2b       	or	r18, r25
    50f4:	8d 2d       	mov	r24, r13
    50f6:	85 5c       	subi	r24, 0xC5	; 197
    50f8:	31 e0       	ldi	r19, 0x01	; 1
    50fa:	8d 15       	cp	r24, r13
    50fc:	08 f0       	brcs	.+2      	; 0x5100 <_nrk_time_to_ticks+0x8a>
    50fe:	30 e0       	ldi	r19, 0x00	; 0
    5100:	62 2f       	mov	r22, r18
    5102:	68 0f       	add	r22, r24
    5104:	91 e0       	ldi	r25, 0x01	; 1
    5106:	68 17       	cp	r22, r24
    5108:	08 f0       	brcs	.+2      	; 0x510c <_nrk_time_to_ticks+0x96>
    510a:	90 e0       	ldi	r25, 0x00	; 0
    510c:	23 2f       	mov	r18, r19
    510e:	29 2b       	or	r18, r25
    5110:	2e 0d       	add	r18, r14
    5112:	91 e0       	ldi	r25, 0x01	; 1
    5114:	2e 15       	cp	r18, r14
    5116:	08 f0       	brcs	.+2      	; 0x511a <_nrk_time_to_ticks+0xa4>
    5118:	90 e0       	ldi	r25, 0x00	; 0
    511a:	49 2f       	mov	r20, r25
    511c:	4f 0d       	add	r20, r15
    511e:	91 e0       	ldi	r25, 0x01	; 1
    5120:	4f 15       	cp	r20, r15
    5122:	08 f0       	brcs	.+2      	; 0x5126 <_nrk_time_to_ticks+0xb0>
    5124:	90 e0       	ldi	r25, 0x00	; 0
    5126:	39 2f       	mov	r19, r25
    5128:	30 0f       	add	r19, r16
    512a:	91 e0       	ldi	r25, 0x01	; 1
    512c:	30 17       	cp	r19, r16
    512e:	08 f0       	brcs	.+2      	; 0x5132 <_nrk_time_to_ticks+0xbc>
    5130:	90 e0       	ldi	r25, 0x00	; 0
    5132:	91 0f       	add	r25, r17
    5134:	af 2e       	mov	r10, r31
    5136:	be 2e       	mov	r11, r30
    5138:	c7 2e       	mov	r12, r23
    513a:	d6 2e       	mov	r13, r22
    513c:	e2 2e       	mov	r14, r18
    513e:	f4 2e       	mov	r15, r20
    5140:	03 2f       	mov	r16, r19
    5142:	19 2f       	mov	r17, r25
    5144:	5f 5f       	subi	r21, 0xFF	; 255
    5146:	85 2f       	mov	r24, r21
    5148:	90 e0       	ldi	r25, 0x00	; 0
    514a:	a0 e0       	ldi	r26, 0x00	; 0
    514c:	b0 e0       	ldi	r27, 0x00	; 0
    514e:	86 15       	cp	r24, r6
    5150:	97 05       	cpc	r25, r7
    5152:	a8 05       	cpc	r26, r8
    5154:	b9 05       	cpc	r27, r9
    5156:	08 f4       	brcc	.+2      	; 0x515a <_nrk_time_to_ticks+0xe4>
    5158:	b9 cf       	rjmp	.-142    	; 0x50cc <_nrk_time_to_ticks+0x56>
   ticks=tmp/(uint32_t)NANOS_PER_TICK;
    515a:	95 01       	movw	r18, r10
    515c:	a6 01       	movw	r20, r12
    515e:	b7 01       	movw	r22, r14
    5160:	c8 01       	movw	r24, r16
    5162:	a3 eb       	ldi	r26, 0xB3	; 179
    5164:	aa 2e       	mov	r10, r26
    5166:	f6 ee       	ldi	r31, 0xE6	; 230
    5168:	bf 2e       	mov	r11, r31
    516a:	ee e0       	ldi	r30, 0x0E	; 14
    516c:	ce 2e       	mov	r12, r30
    516e:	dd 24       	eor	r13, r13
    5170:	ee 24       	eor	r14, r14
    5172:	ff 24       	eor	r15, r15
    5174:	00 e0       	ldi	r16, 0x00	; 0
    5176:	10 e0       	ldi	r17, 0x00	; 0
    5178:	0e 94 f3 3c 	call	0x79e6	; 0x79e6 <__udivdi3>
    517c:	06 c0       	rjmp	.+12     	; 0x518a <_nrk_time_to_ticks+0x114>
   //ticks=t->nano_secs/(uint32_t)NANOS_PER_TICK;
}else
{
ticks=t->nano_secs/(uint32_t)NANOS_PER_TICK;
    517e:	23 eb       	ldi	r18, 0xB3	; 179
    5180:	36 ee       	ldi	r19, 0xE6	; 230
    5182:	4e e0       	ldi	r20, 0x0E	; 14
    5184:	50 e0       	ldi	r21, 0x00	; 0
    5186:	0e 94 c2 4a 	call	0x9584	; 0x9584 <__udivmodsi4>
}
*/
//ticks=t->nano_secs/(uint32_t)NANOS_PER_TICK;
//ticks+=t->secs*(uint32_t)TICKS_PER_SEC;
return ticks;
}
    518a:	c9 01       	movw	r24, r18
    518c:	1f 91       	pop	r17
    518e:	0f 91       	pop	r16
    5190:	ff 90       	pop	r15
    5192:	ef 90       	pop	r14
    5194:	df 90       	pop	r13
    5196:	cf 90       	pop	r12
    5198:	bf 90       	pop	r11
    519a:	af 90       	pop	r10
    519c:	9f 90       	pop	r9
    519e:	8f 90       	pop	r8
    51a0:	7f 90       	pop	r7
    51a2:	6f 90       	pop	r6
    51a4:	08 95       	ret

000051a6 <_nrk_ticks_to_time>:

nrk_time_t _nrk_ticks_to_time(uint32_t ticks)
{
    51a6:	ef 92       	push	r14
    51a8:	ff 92       	push	r15
    51aa:	0f 93       	push	r16
    51ac:	1f 93       	push	r17
    51ae:	df 93       	push	r29
    51b0:	cf 93       	push	r28
    51b2:	cd b7       	in	r28, 0x3d	; 61
    51b4:	de b7       	in	r29, 0x3e	; 62
    51b6:	28 97       	sbiw	r28, 0x08	; 8
    51b8:	0f b6       	in	r0, 0x3f	; 63
    51ba:	f8 94       	cli
    51bc:	de bf       	out	0x3e, r29	; 62
    51be:	0f be       	out	0x3f, r0	; 63
    51c0:	cd bf       	out	0x3d, r28	; 61
    51c2:	7b 01       	movw	r14, r22
    51c4:	8c 01       	movw	r16, r24
nrk_time_t t;

t.secs=ticks/TICKS_PER_SEC;
t.nano_secs=(ticks%TICKS_PER_SEC)*NANOS_PER_TICK;

return t;
    51c6:	73 70       	andi	r23, 0x03	; 3
    51c8:	80 70       	andi	r24, 0x00	; 0
    51ca:	90 70       	andi	r25, 0x00	; 0
    51cc:	23 eb       	ldi	r18, 0xB3	; 179
    51ce:	36 ee       	ldi	r19, 0xE6	; 230
    51d0:	4e e0       	ldi	r20, 0x0E	; 14
    51d2:	50 e0       	ldi	r21, 0x00	; 0
    51d4:	0e 94 8f 4a 	call	0x951e	; 0x951e <__mulsi3>
    51d8:	6d 83       	std	Y+5, r22	; 0x05
    51da:	7e 83       	std	Y+6, r23	; 0x06
    51dc:	8f 83       	std	Y+7, r24	; 0x07
    51de:	98 87       	std	Y+8, r25	; 0x08
    51e0:	a8 01       	movw	r20, r16
    51e2:	97 01       	movw	r18, r14
    51e4:	ba e0       	ldi	r27, 0x0A	; 10
    51e6:	56 95       	lsr	r21
    51e8:	47 95       	ror	r20
    51ea:	37 95       	ror	r19
    51ec:	27 95       	ror	r18
    51ee:	ba 95       	dec	r27
    51f0:	d1 f7       	brne	.-12     	; 0x51e6 <_nrk_ticks_to_time+0x40>
    51f2:	29 83       	std	Y+1, r18	; 0x01
    51f4:	3a 83       	std	Y+2, r19	; 0x02
    51f6:	4b 83       	std	Y+3, r20	; 0x03
    51f8:	5c 83       	std	Y+4, r21	; 0x04
    51fa:	3a 81       	ldd	r19, Y+2	; 0x02
    51fc:	4b 81       	ldd	r20, Y+3	; 0x03
    51fe:	5c 81       	ldd	r21, Y+4	; 0x04
}
    5200:	28 96       	adiw	r28, 0x08	; 8
    5202:	0f b6       	in	r0, 0x3f	; 63
    5204:	f8 94       	cli
    5206:	de bf       	out	0x3e, r29	; 62
    5208:	0f be       	out	0x3f, r0	; 63
    520a:	cd bf       	out	0x3d, r28	; 61
    520c:	cf 91       	pop	r28
    520e:	df 91       	pop	r29
    5210:	1f 91       	pop	r17
    5212:	0f 91       	pop	r16
    5214:	ff 90       	pop	r15
    5216:	ef 90       	pop	r14
    5218:	08 95       	ret

0000521a <_nrk_time_to_ticks_long>:

uint32_t _nrk_time_to_ticks_long(nrk_time_t *t)
{
    521a:	6f 92       	push	r6
    521c:	7f 92       	push	r7
    521e:	8f 92       	push	r8
    5220:	9f 92       	push	r9
    5222:	af 92       	push	r10
    5224:	bf 92       	push	r11
    5226:	cf 92       	push	r12
    5228:	df 92       	push	r13
    522a:	ef 92       	push	r14
    522c:	ff 92       	push	r15
    522e:	0f 93       	push	r16
    5230:	1f 93       	push	r17
    5232:	fc 01       	movw	r30, r24
uint32_t ticks;
uint64_t tmp;
uint8_t i;
// FIXME: This will overflow
if(t->secs>0)
    5234:	60 80       	ld	r6, Z
    5236:	71 80       	ldd	r7, Z+1	; 0x01
    5238:	82 80       	ldd	r8, Z+2	; 0x02
    523a:	93 80       	ldd	r9, Z+3	; 0x03
    523c:	64 81       	ldd	r22, Z+4	; 0x04
    523e:	75 81       	ldd	r23, Z+5	; 0x05
    5240:	86 81       	ldd	r24, Z+6	; 0x06
    5242:	97 81       	ldd	r25, Z+7	; 0x07
    5244:	61 14       	cp	r6, r1
    5246:	71 04       	cpc	r7, r1
    5248:	81 04       	cpc	r8, r1
    524a:	91 04       	cpc	r9, r1
    524c:	09 f4       	brne	.+2      	; 0x5250 <_nrk_time_to_ticks_long+0x36>
    524e:	60 c0       	rjmp	.+192    	; 0x5310 <_nrk_time_to_ticks_long+0xf6>
{
   tmp=t->nano_secs;
    5250:	5b 01       	movw	r10, r22
    5252:	6c 01       	movw	r12, r24
    5254:	ee 24       	eor	r14, r14
    5256:	ff 24       	eor	r15, r15
    5258:	87 01       	movw	r16, r14
    525a:	50 e0       	ldi	r21, 0x00	; 0
    525c:	3d c0       	rjmp	.+122    	; 0x52d8 <_nrk_time_to_ticks_long+0xbe>
   for(i=0; i<t->secs; i++ ) tmp+=NANOS_PER_SEC; // t->nano_secs+=NANOS_PER_SEC;
    525e:	fa 2d       	mov	r31, r10
    5260:	eb 2d       	mov	r30, r11
    5262:	e6 53       	subi	r30, 0x36	; 54
    5264:	91 e0       	ldi	r25, 0x01	; 1
    5266:	eb 15       	cp	r30, r11
    5268:	08 f0       	brcs	.+2      	; 0x526c <_nrk_time_to_ticks_long+0x52>
    526a:	90 e0       	ldi	r25, 0x00	; 0
    526c:	8c 2d       	mov	r24, r12
    526e:	86 56       	subi	r24, 0x66	; 102
    5270:	21 e0       	ldi	r18, 0x01	; 1
    5272:	8c 15       	cp	r24, r12
    5274:	08 f0       	brcs	.+2      	; 0x5278 <_nrk_time_to_ticks_long+0x5e>
    5276:	20 e0       	ldi	r18, 0x00	; 0
    5278:	79 2f       	mov	r23, r25
    527a:	78 0f       	add	r23, r24
    527c:	91 e0       	ldi	r25, 0x01	; 1
    527e:	78 17       	cp	r23, r24
    5280:	08 f0       	brcs	.+2      	; 0x5284 <_nrk_time_to_ticks_long+0x6a>
    5282:	90 e0       	ldi	r25, 0x00	; 0
    5284:	29 2b       	or	r18, r25
    5286:	8d 2d       	mov	r24, r13
    5288:	85 5c       	subi	r24, 0xC5	; 197
    528a:	31 e0       	ldi	r19, 0x01	; 1
    528c:	8d 15       	cp	r24, r13
    528e:	08 f0       	brcs	.+2      	; 0x5292 <_nrk_time_to_ticks_long+0x78>
    5290:	30 e0       	ldi	r19, 0x00	; 0
    5292:	62 2f       	mov	r22, r18
    5294:	68 0f       	add	r22, r24
    5296:	91 e0       	ldi	r25, 0x01	; 1
    5298:	68 17       	cp	r22, r24
    529a:	08 f0       	brcs	.+2      	; 0x529e <_nrk_time_to_ticks_long+0x84>
    529c:	90 e0       	ldi	r25, 0x00	; 0
    529e:	23 2f       	mov	r18, r19
    52a0:	29 2b       	or	r18, r25
    52a2:	2e 0d       	add	r18, r14
    52a4:	91 e0       	ldi	r25, 0x01	; 1
    52a6:	2e 15       	cp	r18, r14
    52a8:	08 f0       	brcs	.+2      	; 0x52ac <_nrk_time_to_ticks_long+0x92>
    52aa:	90 e0       	ldi	r25, 0x00	; 0
    52ac:	49 2f       	mov	r20, r25
    52ae:	4f 0d       	add	r20, r15
    52b0:	91 e0       	ldi	r25, 0x01	; 1
    52b2:	4f 15       	cp	r20, r15
    52b4:	08 f0       	brcs	.+2      	; 0x52b8 <_nrk_time_to_ticks_long+0x9e>
    52b6:	90 e0       	ldi	r25, 0x00	; 0
    52b8:	39 2f       	mov	r19, r25
    52ba:	30 0f       	add	r19, r16
    52bc:	91 e0       	ldi	r25, 0x01	; 1
    52be:	30 17       	cp	r19, r16
    52c0:	08 f0       	brcs	.+2      	; 0x52c4 <_nrk_time_to_ticks_long+0xaa>
    52c2:	90 e0       	ldi	r25, 0x00	; 0
    52c4:	91 0f       	add	r25, r17
    52c6:	af 2e       	mov	r10, r31
    52c8:	be 2e       	mov	r11, r30
    52ca:	c7 2e       	mov	r12, r23
    52cc:	d6 2e       	mov	r13, r22
    52ce:	e2 2e       	mov	r14, r18
    52d0:	f4 2e       	mov	r15, r20
    52d2:	03 2f       	mov	r16, r19
    52d4:	19 2f       	mov	r17, r25
    52d6:	5f 5f       	subi	r21, 0xFF	; 255
    52d8:	85 2f       	mov	r24, r21
    52da:	90 e0       	ldi	r25, 0x00	; 0
    52dc:	a0 e0       	ldi	r26, 0x00	; 0
    52de:	b0 e0       	ldi	r27, 0x00	; 0
    52e0:	86 15       	cp	r24, r6
    52e2:	97 05       	cpc	r25, r7
    52e4:	a8 05       	cpc	r26, r8
    52e6:	b9 05       	cpc	r27, r9
    52e8:	08 f4       	brcc	.+2      	; 0x52ec <_nrk_time_to_ticks_long+0xd2>
    52ea:	b9 cf       	rjmp	.-142    	; 0x525e <_nrk_time_to_ticks_long+0x44>
   ticks=tmp/(uint32_t)NANOS_PER_TICK;
    52ec:	95 01       	movw	r18, r10
    52ee:	a6 01       	movw	r20, r12
    52f0:	b7 01       	movw	r22, r14
    52f2:	c8 01       	movw	r24, r16
    52f4:	e3 eb       	ldi	r30, 0xB3	; 179
    52f6:	ae 2e       	mov	r10, r30
    52f8:	06 ee       	ldi	r16, 0xE6	; 230
    52fa:	b0 2e       	mov	r11, r16
    52fc:	1e e0       	ldi	r17, 0x0E	; 14
    52fe:	c1 2e       	mov	r12, r17
    5300:	dd 24       	eor	r13, r13
    5302:	ee 24       	eor	r14, r14
    5304:	ff 24       	eor	r15, r15
    5306:	00 e0       	ldi	r16, 0x00	; 0
    5308:	10 e0       	ldi	r17, 0x00	; 0
    530a:	0e 94 f3 3c 	call	0x79e6	; 0x79e6 <__udivdi3>
    530e:	06 c0       	rjmp	.+12     	; 0x531c <_nrk_time_to_ticks_long+0x102>
   //ticks=t->nano_secs/(uint32_t)NANOS_PER_TICK;
}else
{
ticks=t->nano_secs/(uint32_t)NANOS_PER_TICK;
    5310:	23 eb       	ldi	r18, 0xB3	; 179
    5312:	36 ee       	ldi	r19, 0xE6	; 230
    5314:	4e e0       	ldi	r20, 0x0E	; 14
    5316:	50 e0       	ldi	r21, 0x00	; 0
    5318:	0e 94 c2 4a 	call	0x9584	; 0x9584 <__udivmodsi4>
}
return ticks;
}
    531c:	b9 01       	movw	r22, r18
    531e:	ca 01       	movw	r24, r20
    5320:	1f 91       	pop	r17
    5322:	0f 91       	pop	r16
    5324:	ff 90       	pop	r15
    5326:	ef 90       	pop	r14
    5328:	df 90       	pop	r13
    532a:	cf 90       	pop	r12
    532c:	bf 90       	pop	r11
    532e:	af 90       	pop	r10
    5330:	9f 90       	pop	r9
    5332:	8f 90       	pop	r8
    5334:	7f 90       	pop	r7
    5336:	6f 90       	pop	r6
    5338:	08 95       	ret

0000533a <nrk_time_get>:
#include <nrk.h>
#include <nrk_timer.h>
#include <nrk_error.h>

void nrk_time_get(nrk_time_t *t)
{
    533a:	ef 92       	push	r14
    533c:	ff 92       	push	r15
    533e:	0f 93       	push	r16
    5340:	1f 93       	push	r17
    5342:	cf 93       	push	r28
    5344:	df 93       	push	r29
    5346:	ec 01       	movw	r28, r24
 //t->nano_secs=(((uint32_t)_nrk_precision_os_timer_get()%PRECISION_TICKS_PER_TICK)*(uint32_t)NANOS_PER_PRECISION_TICK);
#ifdef NRK_SUB_TICK_TIMING
       	t->nano_secs=(((uint32_t)_nrk_precision_os_timer_get())*(uint32_t)NANOS_PER_PRECISION_TICK);
#else
       	t->nano_secs=0;
    5348:	1c 82       	std	Y+4, r1	; 0x04
    534a:	1d 82       	std	Y+5, r1	; 0x05
    534c:	1e 82       	std	Y+6, r1	; 0x06
    534e:	1f 82       	std	Y+7, r1	; 0x07

#endif

 t->secs=nrk_system_time.secs;
    5350:	80 91 35 08 	lds	r24, 0x0835
    5354:	90 91 36 08 	lds	r25, 0x0836
    5358:	a0 91 37 08 	lds	r26, 0x0837
    535c:	b0 91 38 08 	lds	r27, 0x0838
    5360:	88 83       	st	Y, r24
    5362:	99 83       	std	Y+1, r25	; 0x01
    5364:	aa 83       	std	Y+2, r26	; 0x02
    5366:	bb 83       	std	Y+3, r27	; 0x03
 t->nano_secs+=nrk_system_time.nano_secs;
    5368:	e0 90 39 08 	lds	r14, 0x0839
    536c:	f0 90 3a 08 	lds	r15, 0x083A
    5370:	00 91 3b 08 	lds	r16, 0x083B
    5374:	10 91 3c 08 	lds	r17, 0x083C
    5378:	ec 82       	std	Y+4, r14	; 0x04
    537a:	fd 82       	std	Y+5, r15	; 0x05
    537c:	0e 83       	std	Y+6, r16	; 0x06
    537e:	1f 83       	std	Y+7, r17	; 0x07
   
   t->nano_secs+=((uint32_t)_nrk_os_timer_get()*(uint32_t)NANOS_PER_TICK);
    5380:	0e 94 b6 2e 	call	0x5d6c	; 0x5d6c <_nrk_os_timer_get>
    5384:	90 e0       	ldi	r25, 0x00	; 0
    5386:	a0 e0       	ldi	r26, 0x00	; 0
    5388:	b0 e0       	ldi	r27, 0x00	; 0
    538a:	bc 01       	movw	r22, r24
    538c:	cd 01       	movw	r24, r26
    538e:	23 eb       	ldi	r18, 0xB3	; 179
    5390:	36 ee       	ldi	r19, 0xE6	; 230
    5392:	4e e0       	ldi	r20, 0x0E	; 14
    5394:	50 e0       	ldi	r21, 0x00	; 0
    5396:	0e 94 8f 4a 	call	0x951e	; 0x951e <__mulsi3>
    539a:	e6 0e       	add	r14, r22
    539c:	f7 1e       	adc	r15, r23
    539e:	08 1f       	adc	r16, r24
    53a0:	19 1f       	adc	r17, r25
    53a2:	ec 82       	std	Y+4, r14	; 0x04
    53a4:	fd 82       	std	Y+5, r15	; 0x05
    53a6:	0e 83       	std	Y+6, r16	; 0x06
    53a8:	1f 83       	std	Y+7, r17	; 0x07
    53aa:	13 c0       	rjmp	.+38     	; 0x53d2 <nrk_time_get+0x98>
  

    while(t->nano_secs>=(uint32_t)NANOS_PER_SEC)
    {
    t->nano_secs-=(uint32_t)NANOS_PER_SEC;
    53ac:	80 50       	subi	r24, 0x00	; 0
    53ae:	9a 4c       	sbci	r25, 0xCA	; 202
    53b0:	aa 49       	sbci	r26, 0x9A	; 154
    53b2:	bb 43       	sbci	r27, 0x3B	; 59
    53b4:	8c 83       	std	Y+4, r24	; 0x04
    53b6:	9d 83       	std	Y+5, r25	; 0x05
    53b8:	ae 83       	std	Y+6, r26	; 0x06
    53ba:	bf 83       	std	Y+7, r27	; 0x07
    t->secs++;
    53bc:	88 81       	ld	r24, Y
    53be:	99 81       	ldd	r25, Y+1	; 0x01
    53c0:	aa 81       	ldd	r26, Y+2	; 0x02
    53c2:	bb 81       	ldd	r27, Y+3	; 0x03
    53c4:	01 96       	adiw	r24, 0x01	; 1
    53c6:	a1 1d       	adc	r26, r1
    53c8:	b1 1d       	adc	r27, r1
    53ca:	88 83       	st	Y, r24
    53cc:	99 83       	std	Y+1, r25	; 0x01
    53ce:	aa 83       	std	Y+2, r26	; 0x02
    53d0:	bb 83       	std	Y+3, r27	; 0x03
 t->nano_secs+=nrk_system_time.nano_secs;
   
   t->nano_secs+=((uint32_t)_nrk_os_timer_get()*(uint32_t)NANOS_PER_TICK);
  

    while(t->nano_secs>=(uint32_t)NANOS_PER_SEC)
    53d2:	8c 81       	ldd	r24, Y+4	; 0x04
    53d4:	9d 81       	ldd	r25, Y+5	; 0x05
    53d6:	ae 81       	ldd	r26, Y+6	; 0x06
    53d8:	bf 81       	ldd	r27, Y+7	; 0x07
    53da:	80 30       	cpi	r24, 0x00	; 0
    53dc:	2a ec       	ldi	r18, 0xCA	; 202
    53de:	92 07       	cpc	r25, r18
    53e0:	2a e9       	ldi	r18, 0x9A	; 154
    53e2:	a2 07       	cpc	r26, r18
    53e4:	2b e3       	ldi	r18, 0x3B	; 59
    53e6:	b2 07       	cpc	r27, r18
    53e8:	08 f7       	brcc	.-62     	; 0x53ac <nrk_time_get+0x72>
    {
    t->nano_secs-=(uint32_t)NANOS_PER_SEC;
    t->secs++;
    }

}
    53ea:	df 91       	pop	r29
    53ec:	cf 91       	pop	r28
    53ee:	1f 91       	pop	r17
    53f0:	0f 91       	pop	r16
    53f2:	ff 90       	pop	r15
    53f4:	ef 90       	pop	r14
    53f6:	08 95       	ret

000053f8 <nrk_idle_task>:
#include <nrk_platform_time.h>
#include <nrk_scheduler.h>
#include <stdio.h>

void nrk_idle_task()
{
    53f8:	0f 93       	push	r16
    53fa:	1f 93       	push	r17

  nrk_stack_check(); 
  
  if(_nrk_get_next_wakeup()<=NRK_SLEEP_WAKEUP_TIME) 
    {
	    _nrk_cpu_state=CPU_IDLE;
    53fc:	01 e0       	ldi	r16, 0x01	; 1
    }
    else {
	#ifndef NRK_NO_POWER_DOWN
	    // Allow last UART byte to get out
    	    nrk_spin_wait_us(10);  
	    _nrk_cpu_state=CPU_SLEEP;
    53fe:	12 e0       	ldi	r17, 0x02	; 2
volatile unsigned char *stkc;
// unsigned int *stk ;  // 2 bytes
while(1)
{

  nrk_stack_check(); 
    5400:	0e 94 5e 20 	call	0x40bc	; 0x40bc <nrk_stack_check>
  
  if(_nrk_get_next_wakeup()<=NRK_SLEEP_WAKEUP_TIME) 
    5404:	0e 94 b0 2e 	call	0x5d60	; 0x5d60 <_nrk_get_next_wakeup>
    5408:	85 31       	cpi	r24, 0x15	; 21
    540a:	28 f4       	brcc	.+10     	; 0x5416 <nrk_idle_task+0x1e>
    {
	    _nrk_cpu_state=CPU_IDLE;
    540c:	00 93 32 08 	sts	0x0832, r16
	    nrk_idle();
    5410:	0e 94 22 30 	call	0x6044	; 0x6044 <nrk_idle>
    5414:	08 c0       	rjmp	.+16     	; 0x5426 <nrk_idle_task+0x2e>
    }
    else {
	#ifndef NRK_NO_POWER_DOWN
	    // Allow last UART byte to get out
    	    nrk_spin_wait_us(10);  
    5416:	8a e0       	ldi	r24, 0x0A	; 10
    5418:	90 e0       	ldi	r25, 0x00	; 0
    541a:	0e 94 1b 2e 	call	0x5c36	; 0x5c36 <nrk_spin_wait_us>
	    _nrk_cpu_state=CPU_SLEEP;
    541e:	10 93 32 08 	sts	0x0832, r17
	    nrk_sleep();
    5422:	0e 94 16 30 	call	0x602c	; 0x602c <nrk_sleep>
	    nrk_idle();
	#endif
    }
 
#ifdef NRK_STACK_CHECK
   if(nrk_idle_task_stk[0]!=STK_CANARY_VAL) nrk_error_add(NRK_STACK_SMASH);
    5426:	80 91 38 06 	lds	r24, 0x0638
    542a:	85 35       	cpi	r24, 0x55	; 85
    542c:	19 f0       	breq	.+6      	; 0x5434 <nrk_idle_task+0x3c>
    542e:	88 e0       	ldi	r24, 0x08	; 8
    5430:	0e 94 53 1f 	call	0x3ea6	; 0x3ea6 <nrk_error_add>
   #ifdef KERNEL_STK_ARRAY
   	if(nrk_kernel_stk[0]!=STK_CANARY_VAL) nrk_error_add(NRK_STACK_SMASH);
   #else
   	stkc=(unsigned char*)(NRK_KERNEL_STK_TOP-NRK_KERNEL_STACKSIZE);
   	if(*stkc!=STK_CANARY_VAL) nrk_error_add(NRK_STACK_SMASH);
    5434:	80 91 7e 10 	lds	r24, 0x107E
    5438:	85 35       	cpi	r24, 0x55	; 85
    543a:	11 f3       	breq	.-60     	; 0x5400 <nrk_idle_task+0x8>
    543c:	88 e0       	ldi	r24, 0x08	; 8
    543e:	0e 94 53 1f 	call	0x3ea6	; 0x3ea6 <nrk_error_add>
    5442:	de cf       	rjmp	.-68     	; 0x5400 <nrk_idle_task+0x8>

00005444 <_nrk_scheduler>:

/*This is the variable to store the task ID of the next scheduled task. This will be the task with the earliest deadline*/
uint8_t earliestDeadlineID = 0;

void inline _nrk_scheduler()
{
    5444:	4f 92       	push	r4
    5446:	5f 92       	push	r5
    5448:	6f 92       	push	r6
    544a:	7f 92       	push	r7
    544c:	8f 92       	push	r8
    544e:	9f 92       	push	r9
    5450:	af 92       	push	r10
    5452:	bf 92       	push	r11
    5454:	cf 92       	push	r12
    5456:	df 92       	push	r13
    5458:	ef 92       	push	r14
    545a:	ff 92       	push	r15
    545c:	0f 93       	push	r16
    545e:	1f 93       	push	r17
    5460:	cf 93       	push	r28
    5462:	df 93       	push	r29

#ifndef NRK_NO_BOUNDED_CONTEXT_SWAP
    _nrk_high_speed_timer_reset();
    start_time_stamp=_nrk_high_speed_timer_get();
#endif
    _nrk_set_next_wakeup(MAX_SCHED_WAKEUP_TIME);
    5464:	8a ef       	ldi	r24, 0xFA	; 250
    5466:	0e 94 b3 2e 	call	0x5d66	; 0x5d66 <_nrk_set_next_wakeup>
    next_wake=60000;
    // Safety zone starts here....


#ifdef NRK_WATCHDOG
    nrk_watchdog_reset();
    546a:	0e 94 f4 2f 	call	0x5fe8	; 0x5fe8 <nrk_watchdog_reset>
#endif

#ifdef NRK_SW_WDT
    _nrk_sw_wdt_check();
    546e:	0e 94 9f 2d 	call	0x5b3e	; 0x5b3e <_nrk_sw_wdt_check>
    if((_nrk_cpu_state!=CPU_ACTIVE) && (_nrk_os_timer_get()>nrk_max_sleep_wakeup_time))
        nrk_max_sleep_wakeup_time=_nrk_os_timer_get();
#endif
    //while(_nrk_time_trigger>0)
    //{
    nrk_system_time.nano_secs+=((uint32_t)_nrk_prev_timer_val*NANOS_PER_TICK);
    5472:	d0 90 9c 05 	lds	r13, 0x059C
    5476:	6d 2d       	mov	r22, r13
    5478:	70 e0       	ldi	r23, 0x00	; 0
    547a:	80 e0       	ldi	r24, 0x00	; 0
    547c:	90 e0       	ldi	r25, 0x00	; 0
    547e:	23 eb       	ldi	r18, 0xB3	; 179
    5480:	36 ee       	ldi	r19, 0xE6	; 230
    5482:	4e e0       	ldi	r20, 0x0E	; 14
    5484:	50 e0       	ldi	r21, 0x00	; 0
    5486:	0e 94 8f 4a 	call	0x951e	; 0x951e <__mulsi3>
    548a:	7b 01       	movw	r14, r22
    548c:	8c 01       	movw	r16, r24
    548e:	80 91 39 08 	lds	r24, 0x0839
    5492:	90 91 3a 08 	lds	r25, 0x083A
    5496:	a0 91 3b 08 	lds	r26, 0x083B
    549a:	b0 91 3c 08 	lds	r27, 0x083C
    549e:	e8 0e       	add	r14, r24
    54a0:	f9 1e       	adc	r15, r25
    54a2:	0a 1f       	adc	r16, r26
    54a4:	1b 1f       	adc	r17, r27
    nrk_system_time.nano_secs-=(nrk_system_time.nano_secs%(uint32_t)NANOS_PER_TICK);
    54a6:	c8 01       	movw	r24, r16
    54a8:	b7 01       	movw	r22, r14
    54aa:	0e 94 c2 4a 	call	0x9584	; 0x9584 <__udivmodsi4>
    54ae:	e6 1a       	sub	r14, r22
    54b0:	f7 0a       	sbc	r15, r23
    54b2:	08 0b       	sbc	r16, r24
    54b4:	19 0b       	sbc	r17, r25
    54b6:	e0 92 39 08 	sts	0x0839, r14
    54ba:	f0 92 3a 08 	sts	0x083A, r15
    54be:	00 93 3b 08 	sts	0x083B, r16
    54c2:	10 93 3c 08 	sts	0x083C, r17

#ifdef NRK_STATS_TRACKER
    if(nrk_cur_task_TCB->task_ID==NRK_IDLE_TASK_ID)
    54c6:	e0 91 3e 08 	lds	r30, 0x083E
    54ca:	f0 91 3f 08 	lds	r31, 0x083F
    54ce:	90 85       	ldd	r25, Z+8	; 0x08
    54d0:	99 23       	and	r25, r25
    54d2:	b9 f4       	brne	.+46     	; 0x5502 <_nrk_scheduler+0xbe>
    {
        if(_nrk_cpu_state==CPU_SLEEP) _nrk_stats_sleep(_nrk_prev_timer_val);
    54d4:	80 91 32 08 	lds	r24, 0x0832
    54d8:	82 30       	cpi	r24, 0x02	; 2
    54da:	19 f4       	brne	.+6      	; 0x54e2 <_nrk_scheduler+0x9e>
    54dc:	8d 2d       	mov	r24, r13
    54de:	0e 94 fc 1c 	call	0x39f8	; 0x39f8 <_nrk_stats_sleep>
        _nrk_stats_task_preempted(nrk_cur_task_TCB->task_ID, _nrk_prev_timer_val);
    54e2:	e0 91 3e 08 	lds	r30, 0x083E
    54e6:	f0 91 3f 08 	lds	r31, 0x083F
    54ea:	80 85       	ldd	r24, Z+8	; 0x08
    54ec:	60 91 9c 05 	lds	r22, 0x059C
    54f0:	0e 94 8c 17 	call	0x2f18	; 0x2f18 <_nrk_stats_task_preempted>
        // Add 0 time since the preempted call before set the correct value
        _nrk_stats_task_suspend(nrk_cur_task_TCB->task_ID, 0);
    54f4:	e0 91 3e 08 	lds	r30, 0x083E
    54f8:	f0 91 3f 08 	lds	r31, 0x083F
    54fc:	80 85       	ldd	r24, Z+8	; 0x08
    54fe:	60 e0       	ldi	r22, 0x00	; 0
    5500:	05 c0       	rjmp	.+10     	; 0x550c <_nrk_scheduler+0xc8>
    }
    else
    {
        if(nrk_cur_task_TCB->suspend_flag==1)
    5502:	85 81       	ldd	r24, Z+5	; 0x05
    5504:	88 23       	and	r24, r24
    5506:	29 f0       	breq	.+10     	; 0x5512 <_nrk_scheduler+0xce>
            _nrk_stats_task_suspend(nrk_cur_task_TCB->task_ID, _nrk_prev_timer_val);
    5508:	89 2f       	mov	r24, r25
    550a:	6d 2d       	mov	r22, r13
    550c:	0e 94 46 18 	call	0x308c	; 0x308c <_nrk_stats_task_suspend>
    5510:	04 c0       	rjmp	.+8      	; 0x551a <_nrk_scheduler+0xd6>
        else
            _nrk_stats_task_preempted(nrk_cur_task_TCB->task_ID, _nrk_prev_timer_val);
    5512:	89 2f       	mov	r24, r25
    5514:	6d 2d       	mov	r22, r13
    5516:	0e 94 8c 17 	call	0x2f18	; 0x2f18 <_nrk_stats_task_preempted>
    551a:	80 91 35 08 	lds	r24, 0x0835
    551e:	90 91 36 08 	lds	r25, 0x0836
    5522:	a0 91 37 08 	lds	r26, 0x0837
    5526:	b0 91 38 08 	lds	r27, 0x0838
    552a:	20 91 39 08 	lds	r18, 0x0839
    552e:	30 91 3a 08 	lds	r19, 0x083A
    5532:	40 91 3b 08 	lds	r20, 0x083B
    5536:	50 91 3c 08 	lds	r21, 0x083C
    553a:	1b c0       	rjmp	.+54     	; 0x5572 <_nrk_scheduler+0x12e>
    }
#endif

    while(nrk_system_time.nano_secs>=NANOS_PER_SEC)
    {
        nrk_system_time.nano_secs-=NANOS_PER_SEC;
    553c:	e1 2c       	mov	r14, r1
    553e:	66 e3       	ldi	r22, 0x36	; 54
    5540:	f6 2e       	mov	r15, r22
    5542:	65 e6       	ldi	r22, 0x65	; 101
    5544:	06 2f       	mov	r16, r22
    5546:	64 ec       	ldi	r22, 0xC4	; 196
    5548:	16 2f       	mov	r17, r22
    554a:	e2 0e       	add	r14, r18
    554c:	f3 1e       	adc	r15, r19
    554e:	04 1f       	adc	r16, r20
    5550:	15 1f       	adc	r17, r21
        nrk_system_time.secs++;
        nrk_system_time.nano_secs-=(nrk_system_time.nano_secs%(uint32_t)NANOS_PER_TICK);
    5552:	c8 01       	movw	r24, r16
    5554:	b7 01       	movw	r22, r14
    5556:	23 eb       	ldi	r18, 0xB3	; 179
    5558:	36 ee       	ldi	r19, 0xE6	; 230
    555a:	4e e0       	ldi	r20, 0x0E	; 14
    555c:	50 e0       	ldi	r21, 0x00	; 0
    555e:	0e 94 c2 4a 	call	0x9584	; 0x9584 <__udivmodsi4>
    5562:	a8 01       	movw	r20, r16
    5564:	97 01       	movw	r18, r14
    5566:	26 1b       	sub	r18, r22
    5568:	37 0b       	sbc	r19, r23
    556a:	48 0b       	sbc	r20, r24
    556c:	59 0b       	sbc	r21, r25
    556e:	d6 01       	movw	r26, r12
    5570:	c5 01       	movw	r24, r10
    5572:	5c 01       	movw	r10, r24
    5574:	6d 01       	movw	r12, r26
    5576:	08 94       	sec
    5578:	a1 1c       	adc	r10, r1
    557a:	b1 1c       	adc	r11, r1
    557c:	c1 1c       	adc	r12, r1
    557e:	d1 1c       	adc	r13, r1
        else
            _nrk_stats_task_preempted(nrk_cur_task_TCB->task_ID, _nrk_prev_timer_val);
    }
#endif

    while(nrk_system_time.nano_secs>=NANOS_PER_SEC)
    5580:	20 30       	cpi	r18, 0x00	; 0
    5582:	6a ec       	ldi	r22, 0xCA	; 202
    5584:	36 07       	cpc	r19, r22
    5586:	6a e9       	ldi	r22, 0x9A	; 154
    5588:	46 07       	cpc	r20, r22
    558a:	6b e3       	ldi	r22, 0x3B	; 59
    558c:	56 07       	cpc	r21, r22
    558e:	b0 f6       	brcc	.-84     	; 0x553c <_nrk_scheduler+0xf8>
    5590:	80 93 35 08 	sts	0x0835, r24
    5594:	90 93 36 08 	sts	0x0836, r25
    5598:	a0 93 37 08 	sts	0x0837, r26
    559c:	b0 93 38 08 	sts	0x0838, r27
    55a0:	20 93 39 08 	sts	0x0839, r18
    55a4:	30 93 3a 08 	sts	0x083A, r19
    55a8:	40 93 3b 08 	sts	0x083B, r20
    55ac:	50 93 3c 08 	sts	0x083C, r21
        nrk_system_time.secs++;
        nrk_system_time.nano_secs-=(nrk_system_time.nano_secs%(uint32_t)NANOS_PER_TICK);
    }
    //  _nrk_time_trigger--;
    //}
    if(nrk_cur_task_TCB->suspend_flag==1 && nrk_cur_task_TCB->task_state!=FINISHED)
    55b0:	e0 91 3e 08 	lds	r30, 0x083E
    55b4:	f0 91 3f 08 	lds	r31, 0x083F
    55b8:	85 81       	ldd	r24, Z+5	; 0x05
    55ba:	88 23       	and	r24, r24
    55bc:	b9 f0       	breq	.+46     	; 0x55ec <_nrk_scheduler+0x1a8>
    55be:	81 85       	ldd	r24, Z+9	; 0x09
    55c0:	84 30       	cpi	r24, 0x04	; 4
    55c2:	a1 f0       	breq	.+40     	; 0x55ec <_nrk_scheduler+0x1a8>
    {
        //	nrk_cur_task_TCB->task_state = EVENT_SUSPENDED;

        if(nrk_cur_task_TCB->event_suspend==RSRC_EVENT_SUSPENDED)
    55c4:	87 81       	ldd	r24, Z+7	; 0x07
    55c6:	82 30       	cpi	r24, 0x02	; 2
    55c8:	29 f0       	breq	.+10     	; 0x55d4 <_nrk_scheduler+0x190>
            nrk_cur_task_TCB->task_state = EVENT_SUSPENDED;
        else if( nrk_cur_task_TCB->event_suspend>0 && nrk_cur_task_TCB->nw_flag==0)
    55ca:	88 23       	and	r24, r24
    55cc:	41 f0       	breq	.+16     	; 0x55de <_nrk_scheduler+0x19a>
    55ce:	86 81       	ldd	r24, Z+6	; 0x06
    55d0:	88 23       	and	r24, r24
    55d2:	11 f4       	brne	.+4      	; 0x55d8 <_nrk_scheduler+0x194>
            nrk_cur_task_TCB->task_state = EVENT_SUSPENDED;
    55d4:	85 e0       	ldi	r24, 0x05	; 5
    55d6:	01 c0       	rjmp	.+2      	; 0x55da <_nrk_scheduler+0x196>
        else if( nrk_cur_task_TCB->event_suspend>0 && nrk_cur_task_TCB->nw_flag==1)
            nrk_cur_task_TCB->task_state = SUSPENDED;
    55d8:	83 e0       	ldi	r24, 0x03	; 3
    55da:	81 87       	std	Z+9, r24	; 0x09
    55dc:	04 c0       	rjmp	.+8      	; 0x55e6 <_nrk_scheduler+0x1a2>
        else
        {
            nrk_cur_task_TCB->task_state = SUSPENDED;
    55de:	83 e0       	ldi	r24, 0x03	; 3
    55e0:	81 87       	std	Z+9, r24	; 0x09
            nrk_cur_task_TCB->event_suspend=0;
    55e2:	17 82       	std	Z+7, r1	; 0x07
            nrk_cur_task_TCB->nw_flag=0;
    55e4:	16 82       	std	Z+6, r1	; 0x06
        }
        nrk_rem_from_readyQ(nrk_cur_task_TCB->task_ID);
    55e6:	80 85       	ldd	r24, Z+8	; 0x08
    55e8:	0e 94 8a 23 	call	0x4714	; 0x4714 <nrk_rem_from_readyQ>
    }

    if(nrk_cur_task_TCB->cpu_reserve!=0 && nrk_cur_task_TCB->task_ID!=NRK_IDLE_TASK_ID && nrk_cur_task_TCB->task_state!=FINISHED )
    55ec:	e0 91 3e 08 	lds	r30, 0x083E
    55f0:	f0 91 3f 08 	lds	r31, 0x083F
    55f4:	87 8d       	ldd	r24, Z+31	; 0x1f
    55f6:	90 a1       	ldd	r25, Z+32	; 0x20
    55f8:	89 2b       	or	r24, r25
    55fa:	09 f4       	brne	.+2      	; 0x55fe <_nrk_scheduler+0x1ba>
    55fc:	59 c0       	rjmp	.+178    	; 0x56b0 <_nrk_scheduler+0x26c>
    55fe:	40 85       	ldd	r20, Z+8	; 0x08
    5600:	44 23       	and	r20, r20
    5602:	09 f4       	brne	.+2      	; 0x5606 <_nrk_scheduler+0x1c2>
    5604:	55 c0       	rjmp	.+170    	; 0x56b0 <_nrk_scheduler+0x26c>
    5606:	81 85       	ldd	r24, Z+9	; 0x09
    5608:	84 30       	cpi	r24, 0x04	; 4
    560a:	09 f4       	brne	.+2      	; 0x560e <_nrk_scheduler+0x1ca>
    560c:	51 c0       	rjmp	.+162    	; 0x56b0 <_nrk_scheduler+0x26c>
    {
		if(nrk_cur_task_TCB->cpu_remaining<_nrk_prev_timer_val)
    560e:	23 8d       	ldd	r18, Z+27	; 0x1b
    5610:	34 8d       	ldd	r19, Z+28	; 0x1c
    5612:	80 91 9c 05 	lds	r24, 0x059C
    5616:	90 e0       	ldi	r25, 0x00	; 0
    5618:	28 17       	cp	r18, r24
    561a:	39 07       	cpc	r19, r25
    561c:	90 f4       	brcc	.+36     	; 0x5642 <_nrk_scheduler+0x1fe>
		{
		#ifdef NRK_STATS_TRACKER
				_nrk_stats_add_violation(nrk_cur_task_TCB->task_ID);
    561e:	84 2f       	mov	r24, r20
    5620:	0e 94 e7 16 	call	0x2dce	; 0x2dce <_nrk_stats_add_violation>
		#endif
				nrk_kernel_error_add(NRK_RESERVE_ERROR,nrk_cur_task_TCB->task_ID);
    5624:	e0 91 3e 08 	lds	r30, 0x083E
    5628:	f0 91 3f 08 	lds	r31, 0x083F
    562c:	82 e0       	ldi	r24, 0x02	; 2
    562e:	60 85       	ldd	r22, Z+8	; 0x08
    5630:	0e 94 3c 1f 	call	0x3e78	; 0x3e78 <nrk_kernel_error_add>
				nrk_cur_task_TCB->cpu_remaining=0;
    5634:	e0 91 3e 08 	lds	r30, 0x083E
    5638:	f0 91 3f 08 	lds	r31, 0x083F
    563c:	14 8e       	std	Z+28, r1	; 0x1c
    563e:	13 8e       	std	Z+27, r1	; 0x1b
    5640:	04 c0       	rjmp	.+8      	; 0x564a <_nrk_scheduler+0x206>
		}
		else
		nrk_cur_task_TCB->cpu_remaining-=_nrk_prev_timer_val;
    5642:	28 1b       	sub	r18, r24
    5644:	39 0b       	sbc	r19, r25
    5646:	34 8f       	std	Z+28, r19	; 0x1c
    5648:	23 8f       	std	Z+27, r18	; 0x1b
		
		task_ID= nrk_cur_task_TCB->task_ID;
    564a:	e0 91 3e 08 	lds	r30, 0x083E
    564e:	f0 91 3f 08 	lds	r31, 0x083F
    5652:	10 85       	ldd	r17, Z+8	; 0x08

		if (nrk_cur_task_TCB->cpu_remaining ==0 )
    5654:	83 8d       	ldd	r24, Z+27	; 0x1b
    5656:	94 8d       	ldd	r25, Z+28	; 0x1c
    5658:	89 2b       	or	r24, r25
    565a:	51 f5       	brne	.+84     	; 0x56b0 <_nrk_scheduler+0x26c>
		{
		#ifdef NRK_STATS_TRACKER
				_nrk_stats_add_violation(nrk_cur_task_TCB->task_ID);
    565c:	81 2f       	mov	r24, r17
    565e:	0e 94 e7 16 	call	0x2dce	; 0x2dce <_nrk_stats_add_violation>
		#endif
				// Checks the CBS_TASK type
				if( nrk_cur_task_TCB->Type == CBS_TASK )
    5662:	e0 91 3e 08 	lds	r30, 0x083E
    5666:	f0 91 3f 08 	lds	r31, 0x083F
    566a:	86 89       	ldd	r24, Z+22	; 0x16
    566c:	83 30       	cpi	r24, 0x03	; 3
    566e:	99 f4       	brne	.+38     	; 0x5696 <_nrk_scheduler+0x252>
				{
					//Prepare TCB to add to the ready queue
					nrk_cur_task_TCB->cpu_remaining = nrk_cur_task_TCB->cpu_reserve;
    5670:	87 8d       	ldd	r24, Z+31	; 0x1f
    5672:	90 a1       	ldd	r25, Z+32	; 0x20
    5674:	94 8f       	std	Z+28, r25	; 0x1c
    5676:	83 8f       	std	Z+27, r24	; 0x1b
					nrk_cur_task_TCB->next_period += nrk_cur_task_TCB->period;
    5678:	81 8d       	ldd	r24, Z+25	; 0x19
    567a:	92 8d       	ldd	r25, Z+26	; 0x1a
    567c:	25 8d       	ldd	r18, Z+29	; 0x1d
    567e:	36 8d       	ldd	r19, Z+30	; 0x1e
    5680:	82 0f       	add	r24, r18
    5682:	93 1f       	adc	r25, r19
    5684:	92 8f       	std	Z+26, r25	; 0x1a
    5686:	81 8f       	std	Z+25, r24	; 0x19
					nrk_rem_from_readyQ(task_ID);
    5688:	81 2f       	mov	r24, r17
    568a:	0e 94 8a 23 	call	0x4714	; 0x4714 <nrk_rem_from_readyQ>
					nrk_add_to_readyQ(task_ID);
    568e:	81 2f       	mov	r24, r17
    5690:	0e 94 d1 25 	call	0x4ba2	; 0x4ba2 <nrk_add_to_readyQ>
    5694:	0d c0       	rjmp	.+26     	; 0x56b0 <_nrk_scheduler+0x26c>
				} 
				else 
				{
					nrk_kernel_error_add(NRK_RESERVE_VIOLATED,task_ID);
    5696:	83 e0       	ldi	r24, 0x03	; 3
    5698:	61 2f       	mov	r22, r17
    569a:	0e 94 3c 1f 	call	0x3e78	; 0x3e78 <nrk_kernel_error_add>
					nrk_cur_task_TCB->task_state = SUSPENDED;
    569e:	e0 91 3e 08 	lds	r30, 0x083E
    56a2:	f0 91 3f 08 	lds	r31, 0x083F
    56a6:	83 e0       	ldi	r24, 0x03	; 3
    56a8:	81 87       	std	Z+9, r24	; 0x09
					nrk_rem_from_readyQ(task_ID);
    56aa:	81 2f       	mov	r24, r17
    56ac:	0e 94 8a 23 	call	0x4714	; 0x4714 <nrk_rem_from_readyQ>
    56b0:	ce e7       	ldi	r28, 0x7E	; 126
    56b2:	d7 e0       	ldi	r29, 0x07	; 7
    56b4:	ee 24       	eor	r14, r14
    56b6:	40 e6       	ldi	r20, 0x60	; 96
    56b8:	c4 2e       	mov	r12, r20
    56ba:	4a ee       	ldi	r20, 0xEA	; 234
    56bc:	d4 2e       	mov	r13, r20
				{
					nrk_task_TCB[task_ID].cpu_remaining = nrk_task_TCB[task_ID].cpu_reserve;
					nrk_task_TCB[task_ID].next_wakeup = (nrk_task_TCB[task_ID].period*(nrk_task_TCB[task_ID].num_periods-1));
					nrk_task_TCB[task_ID].next_period = (nrk_task_TCB[task_ID].period*(nrk_task_TCB[task_ID].num_periods-1));
                    if(nrk_task_TCB[task_ID].period==0) nrk_task_TCB[task_ID].next_wakeup = MAX_SCHED_WAKEUP_TIME;
					nrk_task_TCB[task_ID].num_periods=1;
    56be:	31 e0       	ldi	r19, 0x01	; 1
    56c0:	43 2e       	mov	r4, r19
    56c2:	51 2c       	mov	r5, r1
				else 
				{
					nrk_task_TCB[task_ID].cpu_remaining = nrk_task_TCB[task_ID].cpu_reserve;
					nrk_task_TCB[task_ID].next_wakeup = (nrk_task_TCB[task_ID].period*(nrk_task_TCB[task_ID].num_periods-1));
					nrk_task_TCB[task_ID].next_period = (nrk_task_TCB[task_ID].period*(nrk_task_TCB[task_ID].num_periods-1));
                    if(nrk_task_TCB[task_ID].period==0) nrk_task_TCB[task_ID].next_wakeup = MAX_SCHED_WAKEUP_TIME;
    56c4:	2a ef       	ldi	r18, 0xFA	; 250
    56c6:	62 2e       	mov	r6, r18
    56c8:	71 2c       	mov	r7, r1
				nrk_task_TCB[task_ID].nw_flag=0;
				nrk_task_TCB[task_ID].suspend_flag=0;
				if(nrk_task_TCB[task_ID].num_periods==1) 
				{
					nrk_task_TCB[task_ID].cpu_remaining = nrk_task_TCB[task_ID].cpu_reserve;
					nrk_task_TCB[task_ID].task_state = READY;
    56ca:	92 e0       	ldi	r25, 0x02	; 2
    56cc:	f9 2e       	mov	r15, r25
		{
			if (nrk_task_TCB[task_ID].next_wakeup == 0) 
			{
				if(nrk_task_TCB[task_ID].event_suspend>0 && nrk_task_TCB[task_ID].nw_flag==1) 
				{
					nrk_task_TCB[task_ID].active_signal_mask=SIG(nrk_wakeup_signal);
    56ce:	81 e0       	ldi	r24, 0x01	; 1
    56d0:	88 2e       	mov	r8, r24
    56d2:	91 2c       	mov	r9, r1
    56d4:	a1 2c       	mov	r10, r1
    56d6:	b1 2c       	mov	r11, r1
			}
	}

	for (task_ID=0; task_ID < NRK_MAX_TASKS; task_ID++)
	{
	   if(nrk_task_TCB[task_ID].task_ID==-1) continue;
    56d8:	8b 81       	ldd	r24, Y+3	; 0x03
    56da:	8f 3f       	cpi	r24, 0xFF	; 255
    56dc:	09 f4       	brne	.+2      	; 0x56e0 <_nrk_scheduler+0x29c>
    56de:	a6 c0       	rjmp	.+332    	; 0x582c <_nrk_scheduler+0x3e8>
		nrk_task_TCB[task_ID].suspend_flag=0;
    56e0:	18 82       	st	Y, r1
		if( nrk_task_TCB[task_ID].task_ID!=NRK_IDLE_TASK_ID && nrk_task_TCB[task_ID].task_state!=FINISHED )
    56e2:	88 23       	and	r24, r24
    56e4:	91 f1       	breq	.+100    	; 0x574a <_nrk_scheduler+0x306>
    56e6:	8c 81       	ldd	r24, Y+4	; 0x04
    56e8:	84 30       	cpi	r24, 0x04	; 4
    56ea:	79 f1       	breq	.+94     	; 0x574a <_nrk_scheduler+0x306>
		{
			if(  nrk_task_TCB[task_ID].next_wakeup >= _nrk_prev_timer_val ) 
    56ec:	2a 89       	ldd	r18, Y+18	; 0x12
    56ee:	3b 89       	ldd	r19, Y+19	; 0x13
    56f0:	80 91 9c 05 	lds	r24, 0x059C
    56f4:	90 e0       	ldi	r25, 0x00	; 0
    56f6:	28 17       	cp	r18, r24
    56f8:	39 07       	cpc	r19, r25
    56fa:	28 f0       	brcs	.+10     	; 0x5706 <_nrk_scheduler+0x2c2>
			{
				nrk_task_TCB[task_ID].next_wakeup-=_nrk_prev_timer_val;
    56fc:	28 1b       	sub	r18, r24
    56fe:	39 0b       	sbc	r19, r25
    5700:	3b 8b       	std	Y+19, r19	; 0x13
    5702:	2a 8b       	std	Y+18, r18	; 0x12
    5704:	02 c0       	rjmp	.+4      	; 0x570a <_nrk_scheduler+0x2c6>
			}
			else 
			{
				nrk_task_TCB[task_ID].next_wakeup=0;
    5706:	1b 8a       	std	Y+19, r1	; 0x13
    5708:	1a 8a       	std	Y+18, r1	; 0x12
			}
		
			if( nrk_task_TCB[task_ID].next_period >= _nrk_prev_timer_val ) 
    570a:	2c 89       	ldd	r18, Y+20	; 0x14
    570c:	3d 89       	ldd	r19, Y+21	; 0x15
    570e:	28 17       	cp	r18, r24
    5710:	39 07       	cpc	r19, r25
    5712:	28 f0       	brcs	.+10     	; 0x571e <_nrk_scheduler+0x2da>
			{
				nrk_task_TCB[task_ID].next_period-=_nrk_prev_timer_val;
    5714:	28 1b       	sub	r18, r24
    5716:	39 0b       	sbc	r19, r25
    5718:	3d 8b       	std	Y+21, r19	; 0x15
    571a:	2c 8b       	std	Y+20, r18	; 0x14
    571c:	0e c0       	rjmp	.+28     	; 0x573a <_nrk_scheduler+0x2f6>
			}
			else 
			{	
			if(nrk_task_TCB[task_ID].period>_nrk_prev_timer_val)
    571e:	68 8d       	ldd	r22, Y+24	; 0x18
    5720:	79 8d       	ldd	r23, Y+25	; 0x19
    5722:	86 17       	cp	r24, r22
    5724:	97 07       	cpc	r25, r23
    5726:	28 f4       	brcc	.+10     	; 0x5732 <_nrk_scheduler+0x2ee>
				nrk_task_TCB[task_ID].next_period= nrk_task_TCB[task_ID].period-_nrk_prev_timer_val;
    5728:	68 1b       	sub	r22, r24
    572a:	79 0b       	sbc	r23, r25
    572c:	7d 8b       	std	Y+21, r23	; 0x15
    572e:	6c 8b       	std	Y+20, r22	; 0x14
    5730:	04 c0       	rjmp	.+8      	; 0x573a <_nrk_scheduler+0x2f6>
			else
				nrk_task_TCB[task_ID].next_period= _nrk_prev_timer_val % nrk_task_TCB[task_ID].period;
    5732:	0e 94 ae 4a 	call	0x955c	; 0x955c <__udivmodhi4>
    5736:	9d 8b       	std	Y+21, r25	; 0x15
    5738:	8c 8b       	std	Y+20, r24	; 0x14
			}
			if(nrk_task_TCB[task_ID].next_period==0) 
    573a:	8c 89       	ldd	r24, Y+20	; 0x14
    573c:	9d 89       	ldd	r25, Y+21	; 0x15
    573e:	89 2b       	or	r24, r25
    5740:	21 f4       	brne	.+8      	; 0x574a <_nrk_scheduler+0x306>
			{
				nrk_task_TCB[task_ID].next_period=nrk_task_TCB[task_ID].period;
    5742:	88 8d       	ldd	r24, Y+24	; 0x18
    5744:	99 8d       	ldd	r25, Y+25	; 0x19
    5746:	9d 8b       	std	Y+21, r25	; 0x15
    5748:	8c 8b       	std	Y+20, r24	; 0x14
			}
		}

		if (nrk_task_TCB[task_ID].task_state == SUSPENDED ) 
    574a:	8c 81       	ldd	r24, Y+4	; 0x04
    574c:	83 30       	cpi	r24, 0x03	; 3
    574e:	09 f0       	breq	.+2      	; 0x5752 <_nrk_scheduler+0x30e>
    5750:	6d c0       	rjmp	.+218    	; 0x582c <_nrk_scheduler+0x3e8>
		{
			if (nrk_task_TCB[task_ID].next_wakeup == 0) 
    5752:	8a 89       	ldd	r24, Y+18	; 0x12
    5754:	9b 89       	ldd	r25, Y+19	; 0x13
    5756:	89 2b       	or	r24, r25
    5758:	09 f0       	breq	.+2      	; 0x575c <_nrk_scheduler+0x318>
    575a:	60 c0       	rjmp	.+192    	; 0x581c <_nrk_scheduler+0x3d8>
			{
				if(nrk_task_TCB[task_ID].event_suspend>0 && nrk_task_TCB[task_ID].nw_flag==1) 
    575c:	8a 81       	ldd	r24, Y+2	; 0x02
    575e:	88 23       	and	r24, r24
    5760:	91 f0       	breq	.+36     	; 0x5786 <_nrk_scheduler+0x342>
    5762:	89 81       	ldd	r24, Y+1	; 0x01
    5764:	88 23       	and	r24, r24
    5766:	79 f0       	breq	.+30     	; 0x5786 <_nrk_scheduler+0x342>
				{
					nrk_task_TCB[task_ID].active_signal_mask=SIG(nrk_wakeup_signal);
    5768:	d5 01       	movw	r26, r10
    576a:	c4 01       	movw	r24, r8
    576c:	00 90 2e 08 	lds	r0, 0x082E
    5770:	04 c0       	rjmp	.+8      	; 0x577a <_nrk_scheduler+0x336>
    5772:	88 0f       	add	r24, r24
    5774:	99 1f       	adc	r25, r25
    5776:	aa 1f       	adc	r26, r26
    5778:	bb 1f       	adc	r27, r27
    577a:	0a 94       	dec	r0
    577c:	d2 f7       	brpl	.-12     	; 0x5772 <_nrk_scheduler+0x32e>
    577e:	8c 87       	std	Y+12, r24	; 0x0c
    5780:	9d 87       	std	Y+13, r25	; 0x0d
    5782:	ae 87       	std	Y+14, r26	; 0x0e
    5784:	bf 87       	std	Y+15, r27	; 0x0f
				}
				nrk_task_TCB[task_ID].event_suspend=0;
    5786:	1a 82       	std	Y+2, r1	; 0x02
				nrk_task_TCB[task_ID].nw_flag=0;
    5788:	19 82       	std	Y+1, r1	; 0x01
				nrk_task_TCB[task_ID].suspend_flag=0;
    578a:	18 82       	st	Y, r1
				if(nrk_task_TCB[task_ID].num_periods==1) 
    578c:	2c 8d       	ldd	r18, Y+28	; 0x1c
    578e:	3d 8d       	ldd	r19, Y+29	; 0x1d
    5790:	48 8d       	ldd	r20, Y+24	; 0x18
    5792:	59 8d       	ldd	r21, Y+25	; 0x19
    5794:	8a 8d       	ldd	r24, Y+26	; 0x1a
    5796:	9b 8d       	ldd	r25, Y+27	; 0x1b
    5798:	21 30       	cpi	r18, 0x01	; 1
    579a:	31 05       	cpc	r19, r1
    579c:	51 f5       	brne	.+84     	; 0x57f2 <_nrk_scheduler+0x3ae>
				{
					nrk_task_TCB[task_ID].cpu_remaining = nrk_task_TCB[task_ID].cpu_reserve;
    579e:	9f 8b       	std	Y+23, r25	; 0x17
    57a0:	8e 8b       	std	Y+22, r24	; 0x16
					nrk_task_TCB[task_ID].task_state = READY;
    57a2:	fc 82       	std	Y+4, r15	; 0x04
					nrk_task_TCB[task_ID].next_wakeup = nrk_task_TCB[task_ID].next_period;
    57a4:	8c 89       	ldd	r24, Y+20	; 0x14
    57a6:	9d 89       	ldd	r25, Y+21	; 0x15
    57a8:	9b 8b       	std	Y+19, r25	; 0x13
    57aa:	8a 8b       	std	Y+18, r24	; 0x12
                    if(nrk_task_TCB[task_ID].period==0) nrk_task_TCB[task_ID].next_wakeup = MAX_SCHED_WAKEUP_TIME;
    57ac:	45 2b       	or	r20, r21
    57ae:	11 f4       	brne	.+4      	; 0x57b4 <_nrk_scheduler+0x370>
    57b0:	7b 8a       	std	Y+19, r7	; 0x13
    57b2:	6a 8a       	std	Y+18, r6	; 0x12
					
					// Sets the next period of the suspended CBS_TASK 
					 if( nrk_task_TCB[task_ID].Type == CBS_TASK && 
    57b4:	89 89       	ldd	r24, Y+17	; 0x11
    57b6:	83 30       	cpi	r24, 0x03	; 3
    57b8:	c1 f4       	brne	.+48     	; 0x57ea <_nrk_scheduler+0x3a6>
    57ba:	e8 8d       	ldd	r30, Y+24	; 0x18
    57bc:	f9 8d       	ldd	r31, Y+25	; 0x19
    57be:	2a 8d       	ldd	r18, Y+26	; 0x1a
    57c0:	3b 8d       	ldd	r19, Y+27	; 0x1b
    57c2:	8c 89       	ldd	r24, Y+20	; 0x14
    57c4:	9d 89       	ldd	r25, Y+21	; 0x15
    57c6:	ac 01       	movw	r20, r24
    57c8:	24 9f       	mul	r18, r20
    57ca:	c0 01       	movw	r24, r0
    57cc:	25 9f       	mul	r18, r21
    57ce:	90 0d       	add	r25, r0
    57d0:	34 9f       	mul	r19, r20
    57d2:	90 0d       	add	r25, r0
    57d4:	11 24       	eor	r1, r1
    57d6:	bf 01       	movw	r22, r30
    57d8:	0e 94 ae 4a 	call	0x955c	; 0x955c <__udivmodhi4>
    57dc:	8e 89       	ldd	r24, Y+22	; 0x16
    57de:	9f 89       	ldd	r25, Y+23	; 0x17
    57e0:	68 17       	cp	r22, r24
    57e2:	79 07       	cpc	r23, r25
    57e4:	10 f4       	brcc	.+4      	; 0x57ea <_nrk_scheduler+0x3a6>
						 (nrk_task_TCB[task_ID].cpu_remaining > nrk_task_TCB[task_ID].next_period * nrk_task_TCB[task_ID].cpu_reserve / nrk_task_TCB[task_ID].period) )
					 {
						 nrk_task_TCB[task_ID].next_period = nrk_task_TCB[task_ID].period;
    57e6:	fd 8b       	std	Y+21, r31	; 0x15
    57e8:	ec 8b       	std	Y+20, r30	; 0x14
                     }
					nrk_add_to_readyQ(task_ID);				
    57ea:	8e 2d       	mov	r24, r14
    57ec:	0e 94 d1 25 	call	0x4ba2	; 0x4ba2 <nrk_add_to_readyQ>
    57f0:	15 c0       	rjmp	.+42     	; 0x581c <_nrk_scheduler+0x3d8>
				} 
				else 
				{
					nrk_task_TCB[task_ID].cpu_remaining = nrk_task_TCB[task_ID].cpu_reserve;
    57f2:	9f 8b       	std	Y+23, r25	; 0x17
    57f4:	8e 8b       	std	Y+22, r24	; 0x16
					nrk_task_TCB[task_ID].next_wakeup = (nrk_task_TCB[task_ID].period*(nrk_task_TCB[task_ID].num_periods-1));
    57f6:	21 50       	subi	r18, 0x01	; 1
    57f8:	30 40       	sbci	r19, 0x00	; 0
    57fa:	24 9f       	mul	r18, r20
    57fc:	c0 01       	movw	r24, r0
    57fe:	25 9f       	mul	r18, r21
    5800:	90 0d       	add	r25, r0
    5802:	34 9f       	mul	r19, r20
    5804:	90 0d       	add	r25, r0
    5806:	11 24       	eor	r1, r1
    5808:	9b 8b       	std	Y+19, r25	; 0x13
    580a:	8a 8b       	std	Y+18, r24	; 0x12
					nrk_task_TCB[task_ID].next_period = (nrk_task_TCB[task_ID].period*(nrk_task_TCB[task_ID].num_periods-1));
    580c:	9d 8b       	std	Y+21, r25	; 0x15
    580e:	8c 8b       	std	Y+20, r24	; 0x14
                    if(nrk_task_TCB[task_ID].period==0) nrk_task_TCB[task_ID].next_wakeup = MAX_SCHED_WAKEUP_TIME;
    5810:	45 2b       	or	r20, r21
    5812:	11 f4       	brne	.+4      	; 0x5818 <_nrk_scheduler+0x3d4>
    5814:	7b 8a       	std	Y+19, r7	; 0x13
    5816:	6a 8a       	std	Y+18, r6	; 0x12
					nrk_task_TCB[task_ID].num_periods=1;
    5818:	5d 8e       	std	Y+29, r5	; 0x1d
    581a:	4c 8e       	std	Y+28, r4	; 0x1c
				}
			}
			if(nrk_task_TCB[task_ID].next_wakeup!=0 &&
    581c:	0a 89       	ldd	r16, Y+18	; 0x12
    581e:	1b 89       	ldd	r17, Y+19	; 0x13
    5820:	01 15       	cp	r16, r1
    5822:	11 05       	cpc	r17, r1
    5824:	19 f0       	breq	.+6      	; 0x582c <_nrk_scheduler+0x3e8>
    5826:	0c 15       	cp	r16, r12
    5828:	1d 05       	cpc	r17, r13
    582a:	08 f0       	brcs	.+2      	; 0x582e <_nrk_scheduler+0x3ea>
    582c:	86 01       	movw	r16, r12
					nrk_rem_from_readyQ(task_ID);
				}
			}
	}

	for (task_ID=0; task_ID < NRK_MAX_TASKS; task_ID++)
    582e:	e3 94       	inc	r14
    5830:	a3 96       	adiw	r28, 0x23	; 35
    5832:	55 e0       	ldi	r21, 0x05	; 5
    5834:	e5 16       	cp	r14, r21
    5836:	11 f0       	breq	.+4      	; 0x583c <_nrk_scheduler+0x3f8>
    5838:	68 01       	movw	r12, r16
    583a:	4e cf       	rjmp	.-356    	; 0x56d8 <_nrk_scheduler+0x294>
	} // For ends here


#ifdef NRK_STATS_TRACKER
    
	_nrk_stats_task_start(nrk_cur_task_TCB->task_ID);
    583c:	e0 91 3e 08 	lds	r30, 0x083E
    5840:	f0 91 3f 08 	lds	r31, 0x083F
    5844:	80 85       	ldd	r24, Z+8	; 0x08
    5846:	0e 94 2a 17 	call	0x2e54	; 0x2e54 <_nrk_stats_task_start>
#endif

	task_ID = nrk_get_high_ready_task_ID();
    584a:	0e 94 79 23 	call	0x46f2	; 0x46f2 <nrk_get_high_ready_task_ID>
    584e:	e8 2e       	mov	r14, r24
	nrk_high_ready_prio = nrk_task_TCB[task_ID].task_prio;
    5850:	28 2f       	mov	r18, r24
    5852:	33 27       	eor	r19, r19
    5854:	27 fd       	sbrc	r18, 7
    5856:	30 95       	com	r19
    5858:	83 e2       	ldi	r24, 0x23	; 35
    585a:	90 e0       	ldi	r25, 0x00	; 0
    585c:	28 9f       	mul	r18, r24
    585e:	f0 01       	movw	r30, r0
    5860:	29 9f       	mul	r18, r25
    5862:	f0 0d       	add	r31, r0
    5864:	38 9f       	mul	r19, r24
    5866:	f0 0d       	add	r31, r0
    5868:	11 24       	eor	r1, r1
    586a:	e7 58       	subi	r30, 0x87	; 135
    586c:	f8 4f       	sbci	r31, 0xF8	; 248
    586e:	82 85       	ldd	r24, Z+10	; 0x0a
    5870:	80 93 40 08 	sts	0x0840, r24
	nrk_high_ready_TCB = &nrk_task_TCB[task_ID];
    5874:	83 e2       	ldi	r24, 0x23	; 35
    5876:	6e 2d       	mov	r22, r14
    5878:	68 02       	muls	r22, r24
    587a:	c0 01       	movw	r24, r0
    587c:	11 24       	eor	r1, r1
    587e:	87 58       	subi	r24, 0x87	; 135
    5880:	98 4f       	sbci	r25, 0xF8	; 248
    5882:	90 93 30 08 	sts	0x0830, r25
    5886:	80 93 2f 08 	sts	0x082F, r24
    // task_ID holds the highest priority READY task ID
    // So nrk_task_TCB[task_ID].cpu_remaining holds the READY task's end time

    // Now we pick the next wakeup (either the end of the current task, or the possible resume
    // of a suspended task)
    if(task_ID!=NRK_IDLE_TASK_ID)
    588a:	ee 20       	and	r14, r14
    588c:	89 f0       	breq	.+34     	; 0x58b0 <_nrk_scheduler+0x46c>
    {
        // You are a non-Idle Task
        if(nrk_task_TCB[task_ID].cpu_reserve!=0 && nrk_task_TCB[task_ID].cpu_remaining<MAX_SCHED_WAKEUP_TIME)
    588e:	87 8d       	ldd	r24, Z+31	; 0x1f
    5890:	90 a1       	ldd	r25, Z+32	; 0x20
    5892:	89 2b       	or	r24, r25
    5894:	49 f0       	breq	.+18     	; 0x58a8 <_nrk_scheduler+0x464>
    5896:	c3 8d       	ldd	r28, Z+27	; 0x1b
    5898:	d4 8d       	ldd	r29, Z+28	; 0x1c
    589a:	ca 3f       	cpi	r28, 0xFA	; 250
    589c:	d1 05       	cpc	r29, r1
    589e:	20 f4       	brcc	.+8      	; 0x58a8 <_nrk_scheduler+0x464>
        {
            if(next_wake>nrk_task_TCB[task_ID].cpu_remaining)
    58a0:	c0 17       	cp	r28, r16
    58a2:	d1 07       	cpc	r29, r17
    58a4:	f8 f0       	brcs	.+62     	; 0x58e4 <_nrk_scheduler+0x4a0>
    58a6:	1a c0       	rjmp	.+52     	; 0x58dc <_nrk_scheduler+0x498>
                next_wake=nrk_task_TCB[task_ID].cpu_remaining;
        }
        else
        {
            if(next_wake>MAX_SCHED_WAKEUP_TIME)  next_wake=MAX_SCHED_WAKEUP_TIME;
    58a8:	0b 3f       	cpi	r16, 0xFB	; 251
    58aa:	11 05       	cpc	r17, r1
    58ac:	c8 f4       	brcc	.+50     	; 0x58e0 <_nrk_scheduler+0x49c>
    58ae:	16 c0       	rjmp	.+44     	; 0x58dc <_nrk_scheduler+0x498>
        // Make sure you wake up from the idle task a little earlier
        // if you would go into deep sleep...
        // After waking from deep sleep, the next context swap must be at least
        // NRK_SLEEP_WAKEUP_TIME-1 away to make sure the CPU wakes up in time.
#ifndef NRK_NO_POWER_DOWN
        if(next_wake>NRK_SLEEP_WAKEUP_TIME)
    58b0:	05 31       	cpi	r16, 0x15	; 21
    58b2:	11 05       	cpc	r17, r1
    58b4:	98 f0       	brcs	.+38     	; 0x58dc <_nrk_scheduler+0x498>
        {
            if(next_wake-NRK_SLEEP_WAKEUP_TIME<MAX_SCHED_WAKEUP_TIME)
    58b6:	98 01       	movw	r18, r16
    58b8:	24 51       	subi	r18, 0x14	; 20
    58ba:	30 40       	sbci	r19, 0x00	; 0
    58bc:	2a 3f       	cpi	r18, 0xFA	; 250
    58be:	31 05       	cpc	r19, r1
    58c0:	38 f4       	brcc	.+14     	; 0x58d0 <_nrk_scheduler+0x48c>
    58c2:	e9 01       	movw	r28, r18
    58c4:	23 31       	cpi	r18, 0x13	; 19
    58c6:	31 05       	cpc	r19, r1
    58c8:	68 f4       	brcc	.+26     	; 0x58e4 <_nrk_scheduler+0x4a0>
    58ca:	c3 e1       	ldi	r28, 0x13	; 19
    58cc:	d0 e0       	ldi	r29, 0x00	; 0
    58ce:	0a c0       	rjmp	.+20     	; 0x58e4 <_nrk_scheduler+0x4a0>
                else
                {
                    next_wake=next_wake-NRK_SLEEP_WAKEUP_TIME;
                }
            }
            else if(next_wake>NRK_SLEEP_WAKEUP_TIME+MAX_SCHED_WAKEUP_TIME)
    58d0:	0f 50       	subi	r16, 0x0F	; 15
    58d2:	11 40       	sbci	r17, 0x01	; 1
    58d4:	28 f4       	brcc	.+10     	; 0x58e0 <_nrk_scheduler+0x49c>
    58d6:	c6 ee       	ldi	r28, 0xE6	; 230
    58d8:	d0 e0       	ldi	r29, 0x00	; 0
    58da:	04 c0       	rjmp	.+8      	; 0x58e4 <_nrk_scheduler+0x4a0>
    58dc:	e8 01       	movw	r28, r16
    58de:	02 c0       	rjmp	.+4      	; 0x58e4 <_nrk_scheduler+0x4a0>
    58e0:	ca ef       	ldi	r28, 0xFA	; 250
    58e2:	d0 e0       	ldi	r29, 0x00	; 0
//  If we disable power down, we still need to wakeup before the overflow
#ifdef NRK_NO_POWER_DOWN
    if(next_wake>MAX_SCHED_WAKEUP_TIME)  next_wake=MAX_SCHED_WAKEUP_TIME;
#endif
    //printf( "nw = %d %d %d\r\n",task_ID,_nrk_cpu_state,next_wake);
    nrk_cur_task_prio = nrk_high_ready_prio;
    58e4:	80 91 40 08 	lds	r24, 0x0840
    58e8:	80 93 31 08 	sts	0x0831, r24
    nrk_cur_task_TCB  = nrk_high_ready_TCB;
    58ec:	80 91 2f 08 	lds	r24, 0x082F
    58f0:	90 91 30 08 	lds	r25, 0x0830
    58f4:	90 93 3f 08 	sts	0x083F, r25
    58f8:	80 93 3e 08 	sts	0x083E, r24
        nrk_kprintf( PSTR( "KERNEL TEST: BAD TCB!\r\n" ));
    }
#endif
    //printf( "n %u %u %u %u\r\n",task_ID, _nrk_prev_timer_val, next_wake,_nrk_os_timer_get());

    _nrk_prev_timer_val=next_wake;
    58fc:	c0 93 9c 05 	sts	0x059C, r28


    if((_nrk_os_timer_get()+1)>=next_wake)  // just bigger then, or equal?
    5900:	0e 94 b6 2e 	call	0x5d6c	; 0x5d6c <_nrk_os_timer_get>
    5904:	90 e0       	ldi	r25, 0x00	; 0
    5906:	01 96       	adiw	r24, 0x01	; 1
    5908:	8c 17       	cp	r24, r28
    590a:	9d 07       	cpc	r25, r29
    590c:	38 f0       	brcs	.+14     	; 0x591c <_nrk_scheduler+0x4d8>
        if(!(task_ID==NRK_IDLE_TASK_ID && _nrk_cpu_state==CPU_SLEEP))
            nrk_kernel_error_add(NRK_WAKEUP_MISSED,task_ID);
#endif
        // This is bad news, but keeps things running
        // +2 just in case we are on the edge of the last tick
        next_wake=_nrk_os_timer_get()+2;
    590e:	0e 94 b6 2e 	call	0x5d6c	; 0x5d6c <_nrk_os_timer_get>
    5912:	c8 2f       	mov	r28, r24
    5914:	d0 e0       	ldi	r29, 0x00	; 0
    5916:	22 96       	adiw	r28, 0x02	; 2
        _nrk_prev_timer_val=next_wake;
    5918:	c0 93 9c 05 	sts	0x059C, r28
    }

    if(task_ID!=NRK_IDLE_TASK_ID) _nrk_cpu_state=CPU_ACTIVE;
    591c:	ee 20       	and	r14, r14
    591e:	11 f0       	breq	.+4      	; 0x5924 <_nrk_scheduler+0x4e0>
    5920:	10 92 32 08 	sts	0x0832, r1

    _nrk_set_next_wakeup(next_wake);
    5924:	8c 2f       	mov	r24, r28
    5926:	0e 94 b3 2e 	call	0x5d66	; 0x5d66 <_nrk_set_next_wakeup>

#ifndef NRK_NO_BOUNDED_CONTEXT_SWAP
    // Bound Context Swap to 100us
    nrk_high_speed_timer_wait(start_time_stamp,CONTEXT_SWAP_TIME_BOUND);
#endif
    nrk_stack_pointer_restore();
    592a:	0e 94 58 30 	call	0x60b0	; 0x60b0 <nrk_stack_pointer_restore>
    //nrk_int_enable();
    nrk_start_high_ready_task();
    592e:	0e 94 c8 3c 	call	0x7990	; 0x7990 <nrk_start_high_ready_task>

}
    5932:	df 91       	pop	r29
    5934:	cf 91       	pop	r28
    5936:	1f 91       	pop	r17
    5938:	0f 91       	pop	r16
    593a:	ff 90       	pop	r15
    593c:	ef 90       	pop	r14
    593e:	df 90       	pop	r13
    5940:	cf 90       	pop	r12
    5942:	bf 90       	pop	r11
    5944:	af 90       	pop	r10
    5946:	9f 90       	pop	r9
    5948:	8f 90       	pop	r8
    594a:	7f 90       	pop	r7
    594c:	6f 90       	pop	r6
    594e:	5f 90       	pop	r5
    5950:	4f 90       	pop	r4
    5952:	08 95       	ret

00005954 <_nrk_sw_wdt_init>:

void _nrk_sw_wdt_init()
{
    uint8_t i;
    for(i=0; i<NRK_MAX_SW_WDT; i++ )
        sw_wdts[i].active=0;
    5954:	10 92 43 08 	sts	0x0843, r1
    5958:	10 92 56 08 	sts	0x0856, r1
    595c:	10 92 69 08 	sts	0x0869, r1
}
    5960:	08 95       	ret

00005962 <nrk_sw_wdt_init>:

int8_t nrk_sw_wdt_init(uint8_t id, nrk_time_t *period, void *func)
{
    5962:	cf 93       	push	r28
    5964:	df 93       	push	r29
    5966:	eb 01       	movw	r28, r22
    if(id>=NRK_MAX_SW_WDT) return NRK_ERROR;
    5968:	83 30       	cpi	r24, 0x03	; 3
    596a:	10 f0       	brcs	.+4      	; 0x5970 <nrk_sw_wdt_init+0xe>
    596c:	8f ef       	ldi	r24, 0xFF	; 255
    596e:	21 c0       	rjmp	.+66     	; 0x59b2 <nrk_sw_wdt_init+0x50>
    sw_wdts[id].error_func=func;
    5970:	28 2f       	mov	r18, r24
    5972:	30 e0       	ldi	r19, 0x00	; 0
    5974:	83 e1       	ldi	r24, 0x13	; 19
    5976:	90 e0       	ldi	r25, 0x00	; 0
    5978:	28 9f       	mul	r18, r24
    597a:	f0 01       	movw	r30, r0
    597c:	29 9f       	mul	r18, r25
    597e:	f0 0d       	add	r31, r0
    5980:	38 9f       	mul	r19, r24
    5982:	f0 0d       	add	r31, r0
    5984:	11 24       	eor	r1, r1
    5986:	ef 5b       	subi	r30, 0xBF	; 191
    5988:	f7 4f       	sbci	r31, 0xF7	; 247
    598a:	51 83       	std	Z+1, r21	; 0x01
    598c:	40 83       	st	Z, r20
    sw_wdts[id].period.secs=period->secs;
    598e:	88 81       	ld	r24, Y
    5990:	99 81       	ldd	r25, Y+1	; 0x01
    5992:	aa 81       	ldd	r26, Y+2	; 0x02
    5994:	bb 81       	ldd	r27, Y+3	; 0x03
    5996:	83 83       	std	Z+3, r24	; 0x03
    5998:	94 83       	std	Z+4, r25	; 0x04
    599a:	a5 83       	std	Z+5, r26	; 0x05
    599c:	b6 83       	std	Z+6, r27	; 0x06
    sw_wdts[id].period.nano_secs=period->nano_secs;
    599e:	8c 81       	ldd	r24, Y+4	; 0x04
    59a0:	9d 81       	ldd	r25, Y+5	; 0x05
    59a2:	ae 81       	ldd	r26, Y+6	; 0x06
    59a4:	bf 81       	ldd	r27, Y+7	; 0x07
    59a6:	87 83       	std	Z+7, r24	; 0x07
    59a8:	90 87       	std	Z+8, r25	; 0x08
    59aa:	a1 87       	std	Z+9, r26	; 0x09
    59ac:	b2 87       	std	Z+10, r27	; 0x0a
    sw_wdts[id].active=0;
    59ae:	12 82       	std	Z+2, r1	; 0x02
    59b0:	81 e0       	ldi	r24, 0x01	; 1
    return NRK_OK;
}
    59b2:	df 91       	pop	r29
    59b4:	cf 91       	pop	r28
    59b6:	08 95       	ret

000059b8 <nrk_sw_wdt_stop>:
    return NRK_OK;
}

int8_t nrk_sw_wdt_stop(uint8_t id)
{
    if(id>=NRK_MAX_SW_WDT) return NRK_ERROR;
    59b8:	83 30       	cpi	r24, 0x03	; 3
    59ba:	10 f0       	brcs	.+4      	; 0x59c0 <nrk_sw_wdt_stop+0x8>
    59bc:	8f ef       	ldi	r24, 0xFF	; 255
    59be:	08 95       	ret
    sw_wdts[id].active=0;
    59c0:	28 2f       	mov	r18, r24
    59c2:	30 e0       	ldi	r19, 0x00	; 0
    59c4:	83 e1       	ldi	r24, 0x13	; 19
    59c6:	90 e0       	ldi	r25, 0x00	; 0
    59c8:	28 9f       	mul	r18, r24
    59ca:	f0 01       	movw	r30, r0
    59cc:	29 9f       	mul	r18, r25
    59ce:	f0 0d       	add	r31, r0
    59d0:	38 9f       	mul	r19, r24
    59d2:	f0 0d       	add	r31, r0
    59d4:	11 24       	eor	r1, r1
    59d6:	ef 5b       	subi	r30, 0xBF	; 191
    59d8:	f7 4f       	sbci	r31, 0xF7	; 247
    59da:	12 82       	std	Z+2, r1	; 0x02
    59dc:	81 e0       	ldi	r24, 0x01	; 1
    return NRK_OK;
}
    59de:	08 95       	ret

000059e0 <nrk_sw_wdt_start>:
    sw_wdts[id].active=1;
    return NRK_OK;
}

int8_t nrk_sw_wdt_start(uint8_t id)
{
    59e0:	1f 93       	push	r17
    59e2:	df 93       	push	r29
    59e4:	cf 93       	push	r28
    59e6:	cd b7       	in	r28, 0x3d	; 61
    59e8:	de b7       	in	r29, 0x3e	; 62
    59ea:	28 97       	sbiw	r28, 0x08	; 8
    59ec:	0f b6       	in	r0, 0x3f	; 63
    59ee:	f8 94       	cli
    59f0:	de bf       	out	0x3e, r29	; 62
    59f2:	0f be       	out	0x3f, r0	; 63
    59f4:	cd bf       	out	0x3d, r28	; 61
    59f6:	18 2f       	mov	r17, r24
    nrk_time_t now;
    if(id>=NRK_MAX_SW_WDT) return NRK_ERROR;
    59f8:	83 30       	cpi	r24, 0x03	; 3
    59fa:	10 f0       	brcs	.+4      	; 0x5a00 <nrk_sw_wdt_start+0x20>
    59fc:	8f ef       	ldi	r24, 0xFF	; 255
    59fe:	33 c0       	rjmp	.+102    	; 0x5a66 <nrk_sw_wdt_start+0x86>
    nrk_time_get(&now);
    5a00:	ce 01       	movw	r24, r28
    5a02:	01 96       	adiw	r24, 0x01	; 1
    5a04:	0e 94 9d 29 	call	0x533a	; 0x533a <nrk_time_get>
    sw_wdts[id].next_period.secs=now.secs+sw_wdts[id].period.secs;
    5a08:	21 2f       	mov	r18, r17
    5a0a:	30 e0       	ldi	r19, 0x00	; 0
    5a0c:	83 e1       	ldi	r24, 0x13	; 19
    5a0e:	90 e0       	ldi	r25, 0x00	; 0
    5a10:	28 9f       	mul	r18, r24
    5a12:	f0 01       	movw	r30, r0
    5a14:	29 9f       	mul	r18, r25
    5a16:	f0 0d       	add	r31, r0
    5a18:	38 9f       	mul	r19, r24
    5a1a:	f0 0d       	add	r31, r0
    5a1c:	11 24       	eor	r1, r1
    5a1e:	ef 5b       	subi	r30, 0xBF	; 191
    5a20:	f7 4f       	sbci	r31, 0xF7	; 247
    5a22:	83 81       	ldd	r24, Z+3	; 0x03
    5a24:	94 81       	ldd	r25, Z+4	; 0x04
    5a26:	a5 81       	ldd	r26, Z+5	; 0x05
    5a28:	b6 81       	ldd	r27, Z+6	; 0x06
    5a2a:	29 81       	ldd	r18, Y+1	; 0x01
    5a2c:	3a 81       	ldd	r19, Y+2	; 0x02
    5a2e:	4b 81       	ldd	r20, Y+3	; 0x03
    5a30:	5c 81       	ldd	r21, Y+4	; 0x04
    5a32:	82 0f       	add	r24, r18
    5a34:	93 1f       	adc	r25, r19
    5a36:	a4 1f       	adc	r26, r20
    5a38:	b5 1f       	adc	r27, r21
    5a3a:	83 87       	std	Z+11, r24	; 0x0b
    5a3c:	94 87       	std	Z+12, r25	; 0x0c
    5a3e:	a5 87       	std	Z+13, r26	; 0x0d
    5a40:	b6 87       	std	Z+14, r27	; 0x0e
    sw_wdts[id].next_period.nano_secs=now.nano_secs+sw_wdts[id].period.nano_secs;
    5a42:	87 81       	ldd	r24, Z+7	; 0x07
    5a44:	90 85       	ldd	r25, Z+8	; 0x08
    5a46:	a1 85       	ldd	r26, Z+9	; 0x09
    5a48:	b2 85       	ldd	r27, Z+10	; 0x0a
    5a4a:	2d 81       	ldd	r18, Y+5	; 0x05
    5a4c:	3e 81       	ldd	r19, Y+6	; 0x06
    5a4e:	4f 81       	ldd	r20, Y+7	; 0x07
    5a50:	58 85       	ldd	r21, Y+8	; 0x08
    5a52:	82 0f       	add	r24, r18
    5a54:	93 1f       	adc	r25, r19
    5a56:	a4 1f       	adc	r26, r20
    5a58:	b5 1f       	adc	r27, r21
    5a5a:	87 87       	std	Z+15, r24	; 0x0f
    5a5c:	90 8b       	std	Z+16, r25	; 0x10
    5a5e:	a1 8b       	std	Z+17, r26	; 0x11
    5a60:	b2 8b       	std	Z+18, r27	; 0x12
    sw_wdts[id].active=1;
    5a62:	81 e0       	ldi	r24, 0x01	; 1
    5a64:	82 83       	std	Z+2, r24	; 0x02

    return NRK_OK;
}
    5a66:	28 96       	adiw	r28, 0x08	; 8
    5a68:	0f b6       	in	r0, 0x3f	; 63
    5a6a:	f8 94       	cli
    5a6c:	de bf       	out	0x3e, r29	; 62
    5a6e:	0f be       	out	0x3f, r0	; 63
    5a70:	cd bf       	out	0x3d, r28	; 61
    5a72:	cf 91       	pop	r28
    5a74:	df 91       	pop	r29
    5a76:	1f 91       	pop	r17
    5a78:	08 95       	ret

00005a7a <nrk_sw_wdt_update>:
    sw_wdts[id].active=0;
    return NRK_OK;
}

int8_t nrk_sw_wdt_update(uint8_t id)
{
    5a7a:	cf 92       	push	r12
    5a7c:	df 92       	push	r13
    5a7e:	ef 92       	push	r14
    5a80:	ff 92       	push	r15
    5a82:	0f 93       	push	r16
    5a84:	1f 93       	push	r17
    5a86:	df 93       	push	r29
    5a88:	cf 93       	push	r28
    5a8a:	cd b7       	in	r28, 0x3d	; 61
    5a8c:	de b7       	in	r29, 0x3e	; 62
    5a8e:	28 97       	sbiw	r28, 0x08	; 8
    5a90:	0f b6       	in	r0, 0x3f	; 63
    5a92:	f8 94       	cli
    5a94:	de bf       	out	0x3e, r29	; 62
    5a96:	0f be       	out	0x3f, r0	; 63
    5a98:	cd bf       	out	0x3d, r28	; 61
    5a9a:	18 2f       	mov	r17, r24
    nrk_time_t now;
    if(id>=NRK_MAX_SW_WDT) return NRK_ERROR;
    5a9c:	83 30       	cpi	r24, 0x03	; 3
    5a9e:	10 f0       	brcs	.+4      	; 0x5aa4 <nrk_sw_wdt_update+0x2a>
    5aa0:	8f ef       	ldi	r24, 0xFF	; 255
    5aa2:	3e c0       	rjmp	.+124    	; 0x5b20 <nrk_sw_wdt_update+0xa6>
    nrk_time_get(&now);
    5aa4:	ce 01       	movw	r24, r28
    5aa6:	01 96       	adiw	r24, 0x01	; 1
    5aa8:	0e 94 9d 29 	call	0x533a	; 0x533a <nrk_time_get>
    sw_wdts[id].next_period.secs=now.secs+sw_wdts[id].period.secs;
    5aac:	21 2f       	mov	r18, r17
    5aae:	30 e0       	ldi	r19, 0x00	; 0
    5ab0:	83 e1       	ldi	r24, 0x13	; 19
    5ab2:	90 e0       	ldi	r25, 0x00	; 0
    5ab4:	ac 01       	movw	r20, r24
    5ab6:	24 9f       	mul	r18, r20
    5ab8:	c0 01       	movw	r24, r0
    5aba:	25 9f       	mul	r18, r21
    5abc:	90 0d       	add	r25, r0
    5abe:	34 9f       	mul	r19, r20
    5ac0:	90 0d       	add	r25, r0
    5ac2:	11 24       	eor	r1, r1
    5ac4:	21 e4       	ldi	r18, 0x41	; 65
    5ac6:	c2 2e       	mov	r12, r18
    5ac8:	28 e0       	ldi	r18, 0x08	; 8
    5aca:	d2 2e       	mov	r13, r18
    5acc:	c8 0e       	add	r12, r24
    5ace:	d9 1e       	adc	r13, r25
    5ad0:	f6 01       	movw	r30, r12
    5ad2:	23 81       	ldd	r18, Z+3	; 0x03
    5ad4:	34 81       	ldd	r19, Z+4	; 0x04
    5ad6:	45 81       	ldd	r20, Z+5	; 0x05
    5ad8:	56 81       	ldd	r21, Z+6	; 0x06
    5ada:	e9 80       	ldd	r14, Y+1	; 0x01
    5adc:	fa 80       	ldd	r15, Y+2	; 0x02
    5ade:	0b 81       	ldd	r16, Y+3	; 0x03
    5ae0:	1c 81       	ldd	r17, Y+4	; 0x04
    5ae2:	2e 0d       	add	r18, r14
    5ae4:	3f 1d       	adc	r19, r15
    5ae6:	40 1f       	adc	r20, r16
    5ae8:	51 1f       	adc	r21, r17
    5aea:	23 87       	std	Z+11, r18	; 0x0b
    5aec:	34 87       	std	Z+12, r19	; 0x0c
    5aee:	45 87       	std	Z+13, r20	; 0x0d
    5af0:	56 87       	std	Z+14, r21	; 0x0e
    sw_wdts[id].next_period.nano_secs=now.nano_secs+sw_wdts[id].period.nano_secs;
    5af2:	27 81       	ldd	r18, Z+7	; 0x07
    5af4:	30 85       	ldd	r19, Z+8	; 0x08
    5af6:	41 85       	ldd	r20, Z+9	; 0x09
    5af8:	52 85       	ldd	r21, Z+10	; 0x0a
    5afa:	ed 80       	ldd	r14, Y+5	; 0x05
    5afc:	fe 80       	ldd	r15, Y+6	; 0x06
    5afe:	0f 81       	ldd	r16, Y+7	; 0x07
    5b00:	18 85       	ldd	r17, Y+8	; 0x08
    5b02:	2e 0d       	add	r18, r14
    5b04:	3f 1d       	adc	r19, r15
    5b06:	40 1f       	adc	r20, r16
    5b08:	51 1f       	adc	r21, r17
    5b0a:	27 87       	std	Z+15, r18	; 0x0f
    5b0c:	30 8b       	std	Z+16, r19	; 0x10
    5b0e:	41 8b       	std	Z+17, r20	; 0x11
    5b10:	52 8b       	std	Z+18, r21	; 0x12
    nrk_time_compact_nanos(&(sw_wdts[id].next_period));
    5b12:	84 5b       	subi	r24, 0xB4	; 180
    5b14:	97 4f       	sbci	r25, 0xF7	; 247
    5b16:	0e 94 08 28 	call	0x5010	; 0x5010 <nrk_time_compact_nanos>
    sw_wdts[id].active=1;
    5b1a:	81 e0       	ldi	r24, 0x01	; 1
    5b1c:	f6 01       	movw	r30, r12
    5b1e:	82 83       	std	Z+2, r24	; 0x02
    return NRK_OK;
}
    5b20:	28 96       	adiw	r28, 0x08	; 8
    5b22:	0f b6       	in	r0, 0x3f	; 63
    5b24:	f8 94       	cli
    5b26:	de bf       	out	0x3e, r29	; 62
    5b28:	0f be       	out	0x3f, r0	; 63
    5b2a:	cd bf       	out	0x3d, r28	; 61
    5b2c:	cf 91       	pop	r28
    5b2e:	df 91       	pop	r29
    5b30:	1f 91       	pop	r17
    5b32:	0f 91       	pop	r16
    5b34:	ff 90       	pop	r15
    5b36:	ef 90       	pop	r14
    5b38:	df 90       	pop	r13
    5b3a:	cf 90       	pop	r12
    5b3c:	08 95       	ret

00005b3e <_nrk_sw_wdt_check>:
#include <stdio.h>

#ifdef NRK_SW_WDT

void _nrk_sw_wdt_check()
{
    5b3e:	2f 92       	push	r2
    5b40:	3f 92       	push	r3
    5b42:	4f 92       	push	r4
    5b44:	5f 92       	push	r5
    5b46:	6f 92       	push	r6
    5b48:	7f 92       	push	r7
    5b4a:	8f 92       	push	r8
    5b4c:	9f 92       	push	r9
    5b4e:	af 92       	push	r10
    5b50:	bf 92       	push	r11
    5b52:	cf 92       	push	r12
    5b54:	df 92       	push	r13
    5b56:	ef 92       	push	r14
    5b58:	ff 92       	push	r15
    5b5a:	0f 93       	push	r16
    5b5c:	1f 93       	push	r17
    5b5e:	df 93       	push	r29
    5b60:	cf 93       	push	r28
    5b62:	cd b7       	in	r28, 0x3d	; 61
    5b64:	de b7       	in	r29, 0x3e	; 62
    5b66:	60 97       	sbiw	r28, 0x10	; 16
    5b68:	0f b6       	in	r0, 0x3f	; 63
    5b6a:	f8 94       	cli
    5b6c:	de bf       	out	0x3e, r29	; 62
    5b6e:	0f be       	out	0x3f, r0	; 63
    5b70:	cd bf       	out	0x3d, r28	; 61
    uint8_t i;
    nrk_time_t now;
    nrk_time_t sub;
    nrk_time_get(&now);
    5b72:	ce 01       	movw	r24, r28
    5b74:	01 96       	adiw	r24, 0x01	; 1
    5b76:	0e 94 9d 29 	call	0x533a	; 0x533a <nrk_time_get>
    5b7a:	41 e4       	ldi	r20, 0x41	; 65
    5b7c:	44 2e       	mov	r4, r20
    5b7e:	48 e0       	ldi	r20, 0x08	; 8
    5b80:	54 2e       	mov	r5, r20
    5b82:	66 24       	eor	r6, r6
    5b84:	77 24       	eor	r7, r7
    for(i=0; i<NRK_MAX_SW_WDT; i++ )
    {
        if(sw_wdts[i].active==1 && (nrk_time_sub(&sub,sw_wdts[i].next_period,now)==NRK_ERROR))
    5b86:	33 e1       	ldi	r19, 0x13	; 19
    5b88:	23 2e       	mov	r2, r19
    5b8a:	31 2c       	mov	r3, r1
    5b8c:	d2 01       	movw	r26, r4
    5b8e:	12 96       	adiw	r26, 0x02	; 2
    5b90:	8c 91       	ld	r24, X
    5b92:	81 30       	cpi	r24, 0x01	; 1
    5b94:	61 f5       	brne	.+88     	; 0x5bee <_nrk_sw_wdt_check+0xb0>
    5b96:	62 9c       	mul	r6, r2
    5b98:	f0 01       	movw	r30, r0
    5b9a:	63 9c       	mul	r6, r3
    5b9c:	f0 0d       	add	r31, r0
    5b9e:	72 9c       	mul	r7, r2
    5ba0:	f0 0d       	add	r31, r0
    5ba2:	11 24       	eor	r1, r1
    5ba4:	e4 5b       	subi	r30, 0xB4	; 180
    5ba6:	f7 4f       	sbci	r31, 0xF7	; 247
    5ba8:	ce 01       	movw	r24, r28
    5baa:	09 96       	adiw	r24, 0x09	; 9
    5bac:	00 81       	ld	r16, Z
    5bae:	11 81       	ldd	r17, Z+1	; 0x01
    5bb0:	22 81       	ldd	r18, Z+2	; 0x02
    5bb2:	33 81       	ldd	r19, Z+3	; 0x03
    5bb4:	44 81       	ldd	r20, Z+4	; 0x04
    5bb6:	55 81       	ldd	r21, Z+5	; 0x05
    5bb8:	66 81       	ldd	r22, Z+6	; 0x06
    5bba:	77 81       	ldd	r23, Z+7	; 0x07
    5bbc:	89 80       	ldd	r8, Y+1	; 0x01
    5bbe:	9a 80       	ldd	r9, Y+2	; 0x02
    5bc0:	ab 80       	ldd	r10, Y+3	; 0x03
    5bc2:	bc 80       	ldd	r11, Y+4	; 0x04
    5bc4:	cd 80       	ldd	r12, Y+5	; 0x05
    5bc6:	de 80       	ldd	r13, Y+6	; 0x06
    5bc8:	ef 80       	ldd	r14, Y+7	; 0x07
    5bca:	f8 84       	ldd	r15, Y+8	; 0x08
    5bcc:	0e 94 03 27 	call	0x4e06	; 0x4e06 <nrk_time_sub>
    5bd0:	8f 3f       	cpi	r24, 0xFF	; 255
    5bd2:	69 f4       	brne	.+26     	; 0x5bee <_nrk_sw_wdt_check+0xb0>
        {
            nrk_kernel_error_add(NRK_SW_WATCHDOG_ERROR,i );
    5bd4:	85 e1       	ldi	r24, 0x15	; 21
    5bd6:	66 2d       	mov	r22, r6
    5bd8:	0e 94 3c 1f 	call	0x3e78	; 0x3e78 <nrk_kernel_error_add>
            if(sw_wdts[i].error_func==NULL)
    5bdc:	d2 01       	movw	r26, r4
    5bde:	ed 91       	ld	r30, X+
    5be0:	fc 91       	ld	r31, X
    5be2:	30 97       	sbiw	r30, 0x00	; 0
    5be4:	19 f4       	brne	.+6      	; 0x5bec <_nrk_sw_wdt_check+0xae>
                // if hw wtd set, this will reboot node
                nrk_halt();
    5be6:	0e 94 64 14 	call	0x28c8	; 0x28c8 <nrk_halt>
    5bea:	01 c0       	rjmp	.+2      	; 0x5bee <_nrk_sw_wdt_check+0xb0>
            else
                sw_wdts[i].error_func();
    5bec:	09 95       	icall
    5bee:	08 94       	sec
    5bf0:	61 1c       	adc	r6, r1
    5bf2:	71 1c       	adc	r7, r1
    5bf4:	e3 e1       	ldi	r30, 0x13	; 19
    5bf6:	f0 e0       	ldi	r31, 0x00	; 0
    5bf8:	4e 0e       	add	r4, r30
    5bfa:	5f 1e       	adc	r5, r31
{
    uint8_t i;
    nrk_time_t now;
    nrk_time_t sub;
    nrk_time_get(&now);
    for(i=0; i<NRK_MAX_SW_WDT; i++ )
    5bfc:	f3 e0       	ldi	r31, 0x03	; 3
    5bfe:	6f 16       	cp	r6, r31
    5c00:	71 04       	cpc	r7, r1
    5c02:	21 f6       	brne	.-120    	; 0x5b8c <_nrk_sw_wdt_check+0x4e>
                sw_wdts[i].error_func();
            // call func
        }
    }

}
    5c04:	60 96       	adiw	r28, 0x10	; 16
    5c06:	0f b6       	in	r0, 0x3f	; 63
    5c08:	f8 94       	cli
    5c0a:	de bf       	out	0x3e, r29	; 62
    5c0c:	0f be       	out	0x3f, r0	; 63
    5c0e:	cd bf       	out	0x3d, r28	; 61
    5c10:	cf 91       	pop	r28
    5c12:	df 91       	pop	r29
    5c14:	1f 91       	pop	r17
    5c16:	0f 91       	pop	r16
    5c18:	ff 90       	pop	r15
    5c1a:	ef 90       	pop	r14
    5c1c:	df 90       	pop	r13
    5c1e:	cf 90       	pop	r12
    5c20:	bf 90       	pop	r11
    5c22:	af 90       	pop	r10
    5c24:	9f 90       	pop	r9
    5c26:	8f 90       	pop	r8
    5c28:	7f 90       	pop	r7
    5c2a:	6f 90       	pop	r6
    5c2c:	5f 90       	pop	r5
    5c2e:	4f 90       	pop	r4
    5c30:	3f 90       	pop	r3
    5c32:	2f 90       	pop	r2
    5c34:	08 95       	ret

00005c36 <nrk_spin_wait_us>:
	...
        NOP();
        NOP();
        NOP();
        NOP();
    }
    while (--timeout);
    5c3e:	01 97       	sbiw	r24, 0x01	; 1
    5c40:	d1 f7       	brne	.-12     	; 0x5c36 <nrk_spin_wait_us>

}
    5c42:	08 95       	ret

00005c44 <_nrk_setup_timer>:
void _nrk_setup_timer()
{
    _nrk_prev_timer_val=254;

// Timer 0 Setup as Asynchronous timer running from 32Khz Clock
    ASSR = BM(AS0);
    5c44:	88 e0       	ldi	r24, 0x08	; 8
    5c46:	80 bf       	out	0x30, r24	; 48
    OCR0 = _nrk_prev_timer_val;
    5c48:	8e ef       	ldi	r24, 0xFE	; 254
    5c4a:	81 bf       	out	0x31, r24	; 49
    TIFR =   BM(OCF0) | BM(TOV0);       // Clear interrupt flag
    5c4c:	83 e0       	ldi	r24, 0x03	; 3
    5c4e:	86 bf       	out	0x36, r24	; 54
    // TOP = OCR0, OCR0 update immediate, Overflow is set on MAX (255), Prescaler 32, Clear timer on compare match
    TCCR0 = BM(WGM01) | BM(CS01) | BM(CS00);
    5c50:	9b e0       	ldi	r25, 0x0B	; 11
    5c52:	93 bf       	out	0x33, r25	; 51
    SFIOR |= TSM;              // reset prescaler
    5c54:	80 b5       	in	r24, 0x20	; 32
    5c56:	87 60       	ori	r24, 0x07	; 7
    5c58:	80 bd       	out	0x20, r24	; 32
    // reset prescaler
//    SFIOR |= TSM;

// Timer 1 High Precision Timer
// No interrupt, prescaler 1, Normal Operation
    TCCR1A=0;
    5c5a:	1f bc       	out	0x2f, r1	; 47
    TCCR1B=BM(CS10);  // clk I/O no prescale
    5c5c:	81 e0       	ldi	r24, 0x01	; 1
    5c5e:	8e bd       	out	0x2e, r24	; 46
    TCNT1=0;  // 16 bit
    5c60:	1d bc       	out	0x2d, r1	; 45
    5c62:	1c bc       	out	0x2c, r1	; 44
    SFIOR |= BM(PSR321);              // reset prescaler
    5c64:	80 b5       	in	r24, 0x20	; 32
    5c66:	81 60       	ori	r24, 0x01	; 1
    5c68:	80 bd       	out	0x20, r24	; 32
}

inline void _nrk_os_timer_reset()
{

    SFIOR |= BM(PSR0);              // reset prescaler
    5c6a:	80 b5       	in	r24, 0x20	; 32
    5c6c:	82 60       	ori	r24, 0x02	; 2
    5c6e:	80 bd       	out	0x20, r24	; 32
    TCNT0 = 0;                  // reset counter
    5c70:	12 be       	out	0x32, r1	; 50
    _nrk_time_trigger=0;
    _nrk_prev_timer_val=0;
    5c72:	10 92 9c 05 	sts	0x059C, r1
    //ASSR = 0;
}
//must also include timer3
void _nrk_os_timer_start()
{
    TCCR0 = BM(WGM01) | BM(CS01) | BM(CS00); // set divider to 32
    5c76:	93 bf       	out	0x33, r25	; 51
    TIMSK =  TIMSK| BM(OCIE0) | BM(TOIE0) ;//| BM(TICIE1);    // Enable interrupt
    5c78:	87 b7       	in	r24, 0x37	; 55
    5c7a:	83 60       	ori	r24, 0x03	; 3
    5c7c:	87 bf       	out	0x37, r24	; 55
    TCNT1=0;  // 16 bit
    SFIOR |= BM(PSR321);              // reset prescaler

    _nrk_os_timer_reset();
    _nrk_os_timer_start();
    _nrk_time_trigger=0;
    5c7e:	10 92 40 04 	sts	0x0440, r1
}
    5c82:	08 95       	ret

00005c84 <_nrk_high_speed_timer_stop>:

void _nrk_high_speed_timer_stop()
{
    TCCR1B=0;  // no clock
    5c84:	1e bc       	out	0x2e, r1	; 46
}
    5c86:	08 95       	ret

00005c88 <_nrk_high_speed_timer_start>:

void _nrk_high_speed_timer_start()
{
    TCCR1B=BM(CS10);  // clk I/O no prescaler
    5c88:	81 e0       	ldi	r24, 0x01	; 1
    5c8a:	8e bd       	out	0x2e, r24	; 46
}
    5c8c:	08 95       	ret

00005c8e <_nrk_high_speed_timer_reset>:


void _nrk_high_speed_timer_reset()
{
    //nrk_int_disable();
    SFIOR |= BM(PSR321);              // reset prescaler
    5c8e:	80 b5       	in	r24, 0x20	; 32
    5c90:	81 60       	ori	r24, 0x01	; 1
    5c92:	80 bd       	out	0x20, r24	; 32
    TCNT1=0;
    5c94:	1d bc       	out	0x2d, r1	; 45
    5c96:	1c bc       	out	0x2c, r1	; 44
    //nrk_int_enable();
}
    5c98:	08 95       	ret

00005c9a <nrk_high_speed_timer_wait>:
  This function blocks for n ticks of the high speed timer after the
  start number of ticks.  It will handle the overflow that can occur.
  Do not use this for delays longer than 8ms!
*/
void nrk_high_speed_timer_wait( uint16_t start, uint16_t ticks )
{
    5c9a:	df 93       	push	r29
    5c9c:	cf 93       	push	r28
    5c9e:	00 d0       	rcall	.+0      	; 0x5ca0 <nrk_high_speed_timer_wait+0x6>
    5ca0:	cd b7       	in	r28, 0x3d	; 61
    5ca2:	de b7       	in	r29, 0x3e	; 62
    5ca4:	fc 01       	movw	r30, r24
    uint32_t tmp;
    if(start>65400) start=0;
    5ca6:	8f ef       	ldi	r24, 0xFF	; 255
    5ca8:	e9 37       	cpi	r30, 0x79	; 121
    5caa:	f8 07       	cpc	r31, r24
    5cac:	10 f0       	brcs	.+4      	; 0x5cb2 <nrk_high_speed_timer_wait+0x18>
    5cae:	e0 e0       	ldi	r30, 0x00	; 0
    5cb0:	f0 e0       	ldi	r31, 0x00	; 0
    tmp=(uint32_t)start+(uint32_t)ticks;
    5cb2:	9f 01       	movw	r18, r30
    5cb4:	40 e0       	ldi	r20, 0x00	; 0
    5cb6:	50 e0       	ldi	r21, 0x00	; 0
    5cb8:	cb 01       	movw	r24, r22
    5cba:	a0 e0       	ldi	r26, 0x00	; 0
    5cbc:	b0 e0       	ldi	r27, 0x00	; 0
    5cbe:	28 0f       	add	r18, r24
    5cc0:	39 1f       	adc	r19, r25
    5cc2:	4a 1f       	adc	r20, r26
    5cc4:	5b 1f       	adc	r21, r27
    if(tmp>65536)
    5cc6:	21 30       	cpi	r18, 0x01	; 1
    5cc8:	80 e0       	ldi	r24, 0x00	; 0
    5cca:	38 07       	cpc	r19, r24
    5ccc:	81 e0       	ldi	r24, 0x01	; 1
    5cce:	48 07       	cpc	r20, r24
    5cd0:	80 e0       	ldi	r24, 0x00	; 0
    5cd2:	58 07       	cpc	r21, r24
    5cd4:	68 f0       	brcs	.+26     	; 0x5cf0 <nrk_high_speed_timer_wait+0x56>

inline uint16_t _nrk_high_speed_timer_get()
{
    volatile uint16_t tmp;
    //nrk_int_disable();
    tmp=TCNT1;
    5cd6:	8c b5       	in	r24, 0x2c	; 44
    5cd8:	9d b5       	in	r25, 0x2d	; 45
    5cda:	9a 83       	std	Y+2, r25	; 0x02
    5cdc:	89 83       	std	Y+1, r24	; 0x01
    //nrk_int_enable();
    return tmp;
    5cde:	89 81       	ldd	r24, Y+1	; 0x01
    5ce0:	9a 81       	ldd	r25, Y+2	; 0x02
    tmp=(uint32_t)start+(uint32_t)ticks;
    if(tmp>65536)
    {
        tmp-=65536;
        do {}
        while(_nrk_high_speed_timer_get()>start);
    5ce2:	e8 17       	cp	r30, r24
    5ce4:	f9 07       	cpc	r31, r25
    5ce6:	b8 f3       	brcs	.-18     	; 0x5cd6 <nrk_high_speed_timer_wait+0x3c>
    uint32_t tmp;
    if(start>65400) start=0;
    tmp=(uint32_t)start+(uint32_t)ticks;
    if(tmp>65536)
    {
        tmp-=65536;
    5ce8:	20 50       	subi	r18, 0x00	; 0
    5cea:	30 40       	sbci	r19, 0x00	; 0
    5cec:	41 40       	sbci	r20, 0x01	; 1
    5cee:	50 40       	sbci	r21, 0x00	; 0

inline uint16_t _nrk_high_speed_timer_get()
{
    volatile uint16_t tmp;
    //nrk_int_disable();
    tmp=TCNT1;
    5cf0:	8c b5       	in	r24, 0x2c	; 44
    5cf2:	9d b5       	in	r25, 0x2d	; 45
    5cf4:	9a 83       	std	Y+2, r25	; 0x02
    5cf6:	89 83       	std	Y+1, r24	; 0x01
    //nrk_int_enable();
    return tmp;
    5cf8:	89 81       	ldd	r24, Y+1	; 0x01
    5cfa:	9a 81       	ldd	r25, Y+2	; 0x02
        while(_nrk_high_speed_timer_get()>start);
    }

    ticks=tmp;
    do {}
    while(_nrk_high_speed_timer_get()<ticks);
    5cfc:	82 17       	cp	r24, r18
    5cfe:	93 07       	cpc	r25, r19
    5d00:	b8 f3       	brcs	.-18     	; 0x5cf0 <nrk_high_speed_timer_wait+0x56>
}
    5d02:	0f 90       	pop	r0
    5d04:	0f 90       	pop	r0
    5d06:	cf 91       	pop	r28
    5d08:	df 91       	pop	r29
    5d0a:	08 95       	ret

00005d0c <_nrk_high_speed_timer_get>:

inline uint16_t _nrk_high_speed_timer_get()
{
    5d0c:	df 93       	push	r29
    5d0e:	cf 93       	push	r28
    5d10:	00 d0       	rcall	.+0      	; 0x5d12 <_nrk_high_speed_timer_get+0x6>
    5d12:	cd b7       	in	r28, 0x3d	; 61
    5d14:	de b7       	in	r29, 0x3e	; 62
    volatile uint16_t tmp;
    //nrk_int_disable();
    tmp=TCNT1;
    5d16:	8c b5       	in	r24, 0x2c	; 44
    5d18:	9d b5       	in	r25, 0x2d	; 45
    5d1a:	9a 83       	std	Y+2, r25	; 0x02
    5d1c:	89 83       	std	Y+1, r24	; 0x01
    //nrk_int_enable();
    return tmp;
    5d1e:	29 81       	ldd	r18, Y+1	; 0x01
    5d20:	3a 81       	ldd	r19, Y+2	; 0x02
}
    5d22:	c9 01       	movw	r24, r18
    5d24:	0f 90       	pop	r0
    5d26:	0f 90       	pop	r0
    5d28:	cf 91       	pop	r28
    5d2a:	df 91       	pop	r29
    5d2c:	08 95       	ret

00005d2e <_nrk_os_timer_set>:

void _nrk_os_timer_set(uint8_t v)
{
    TCNT0=v;
    5d2e:	82 bf       	out	0x32, r24	; 50
}
    5d30:	08 95       	ret

00005d32 <_nrk_os_timer_stop>:


void _nrk_os_timer_stop()
{
    TCCR0 = 0;  // stop clock
    5d32:	13 be       	out	0x33, r1	; 51
    TIMSK &=  ~BM(OCIE0) ;
    5d34:	87 b7       	in	r24, 0x37	; 55
    5d36:	8d 7f       	andi	r24, 0xFD	; 253
    5d38:	87 bf       	out	0x37, r24	; 55
    TIMSK &=  ~BM(TOIE0) ;
    5d3a:	87 b7       	in	r24, 0x37	; 55
    5d3c:	8e 7f       	andi	r24, 0xFE	; 254
    5d3e:	87 bf       	out	0x37, r24	; 55
    //ASSR = 0;
}
    5d40:	08 95       	ret

00005d42 <_nrk_os_timer_start>:
//must also include timer3
void _nrk_os_timer_start()
{
    TCCR0 = BM(WGM01) | BM(CS01) | BM(CS00); // set divider to 32
    5d42:	8b e0       	ldi	r24, 0x0B	; 11
    5d44:	83 bf       	out	0x33, r24	; 51
    TIMSK =  TIMSK| BM(OCIE0) | BM(TOIE0) ;//| BM(TICIE1);    // Enable interrupt
    5d46:	87 b7       	in	r24, 0x37	; 55
    5d48:	83 60       	ori	r24, 0x03	; 3
    5d4a:	87 bf       	out	0x37, r24	; 55
}
    5d4c:	08 95       	ret

00005d4e <_nrk_os_timer_reset>:

inline void _nrk_os_timer_reset()
{

    SFIOR |= BM(PSR0);              // reset prescaler
    5d4e:	80 b5       	in	r24, 0x20	; 32
    5d50:	82 60       	ori	r24, 0x02	; 2
    5d52:	80 bd       	out	0x20, r24	; 32
    TCNT0 = 0;                  // reset counter
    5d54:	12 be       	out	0x32, r1	; 50
    _nrk_time_trigger=0;
    5d56:	10 92 40 04 	sts	0x0440, r1
    _nrk_prev_timer_val=0;
    5d5a:	10 92 9c 05 	sts	0x059C, r1
}
    5d5e:	08 95       	ret

00005d60 <_nrk_get_next_wakeup>:


uint8_t _nrk_get_next_wakeup()
{
    return OCR0+1;      // pdiener: what's this +1 ?
    5d60:	81 b7       	in	r24, 0x31	; 49
}
    5d62:	8f 5f       	subi	r24, 0xFF	; 255
    5d64:	08 95       	ret

00005d66 <_nrk_set_next_wakeup>:

void _nrk_set_next_wakeup(uint8_t nw)
{
    OCR0 = nw-1;        // pdiener: what's this -1 ?
    5d66:	81 50       	subi	r24, 0x01	; 1
    5d68:	81 bf       	out	0x31, r24	; 49
}
    5d6a:	08 95       	ret

00005d6c <_nrk_os_timer_get>:



inline uint8_t _nrk_os_timer_get()
{
    return TCNT0;
    5d6c:	82 b7       	in	r24, 0x32	; 50
}
    5d6e:	08 95       	ret

00005d70 <__vector_15>:
// This is the SUSPEND for the OS timer Tick
// pdiener: All registers are saved and control is transfered from a task to the kernel
void SIG_OUTPUT_COMPARE0( void ) __attribute__ ( ( signal,naked ));
void SIG_OUTPUT_COMPARE0(void)
{
    asm volatile (
    5d70:	0f 92       	push	r0
    5d72:	0f b6       	in	r0, 0x3f	; 63
    5d74:	0f 92       	push	r0
    5d76:	1f 92       	push	r1
    5d78:	2f 92       	push	r2
    5d7a:	3f 92       	push	r3
    5d7c:	4f 92       	push	r4
    5d7e:	5f 92       	push	r5
    5d80:	6f 92       	push	r6
    5d82:	7f 92       	push	r7
    5d84:	8f 92       	push	r8
    5d86:	9f 92       	push	r9
    5d88:	af 92       	push	r10
    5d8a:	bf 92       	push	r11
    5d8c:	cf 92       	push	r12
    5d8e:	df 92       	push	r13
    5d90:	ef 92       	push	r14
    5d92:	ff 92       	push	r15
    5d94:	0f 93       	push	r16
    5d96:	1f 93       	push	r17
    5d98:	2f 93       	push	r18
    5d9a:	3f 93       	push	r19
    5d9c:	4f 93       	push	r20
    5d9e:	5f 93       	push	r21
    5da0:	6f 93       	push	r22
    5da2:	7f 93       	push	r23
    5da4:	8f 93       	push	r24
    5da6:	9f 93       	push	r25
    5da8:	af 93       	push	r26
    5daa:	bf 93       	push	r27
    5dac:	cf 93       	push	r28
    5dae:	df 93       	push	r29
    5db0:	ef 93       	push	r30
    5db2:	ff 93       	push	r31
    5db4:	a0 91 3e 08 	lds	r26, 0x083E
    5db8:	b0 91 3f 08 	lds	r27, 0x083F
    5dbc:	0d b6       	in	r0, 0x3d	; 61
    5dbe:	0d 92       	st	X+, r0
    5dc0:	0e b6       	in	r0, 0x3e	; 62
    5dc2:	0d 92       	st	X+, r0
    5dc4:	1f 92       	push	r1
    5dc6:	a0 91 99 05 	lds	r26, 0x0599
    5dca:	b0 91 9a 05 	lds	r27, 0x059A
    5dce:	1e 90       	ld	r1, -X
    5dd0:	be bf       	out	0x3e, r27	; 62
    5dd2:	ad bf       	out	0x3d, r26	; 61
    5dd4:	08 95       	ret

00005dd6 <nrk_timer_int_stop>:
*/


int8_t nrk_timer_int_stop(uint8_t timer )
{
    if(timer==NRK_APP_TIMER_0)
    5dd6:	88 23       	and	r24, r24
    5dd8:	19 f4       	brne	.+6      	; 0x5de0 <nrk_timer_int_stop+0xa>
    {
        TIMSK &= ~(BM(OCIE2));
    5dda:	87 b7       	in	r24, 0x37	; 55
    5ddc:	8f 77       	andi	r24, 0x7F	; 127
    5dde:	87 bf       	out	0x37, r24	; 55
    }
    return NRK_ERROR;
}
    5de0:	8f ef       	ldi	r24, 0xFF	; 255
    5de2:	08 95       	ret

00005de4 <nrk_timer_int_reset>:

int8_t nrk_timer_int_reset(uint8_t timer )
{
    if(timer==NRK_APP_TIMER_0)
    5de4:	88 23       	and	r24, r24
    5de6:	11 f0       	breq	.+4      	; 0x5dec <nrk_timer_int_reset+0x8>
    5de8:	8f ef       	ldi	r24, 0xFF	; 255
    5dea:	08 95       	ret
    {
        TCNT2=0;
    5dec:	14 bc       	out	0x24, r1	; 36
    5dee:	81 e0       	ldi	r24, 0x01	; 1
        return NRK_OK;
    }
    return NRK_ERROR;
}
    5df0:	08 95       	ret

00005df2 <nrk_timer_int_read>:

uint16_t nrk_timer_int_read(uint8_t timer )
{
    if(timer==NRK_APP_TIMER_0)
    5df2:	88 23       	and	r24, r24
    5df4:	19 f0       	breq	.+6      	; 0x5dfc <nrk_timer_int_read+0xa>
    5df6:	20 e0       	ldi	r18, 0x00	; 0
    5df8:	30 e0       	ldi	r19, 0x00	; 0
    5dfa:	03 c0       	rjmp	.+6      	; 0x5e02 <nrk_timer_int_read+0x10>
    {
        return TCNT2;
    5dfc:	84 b5       	in	r24, 0x24	; 36
    5dfe:	28 2f       	mov	r18, r24
    5e00:	30 e0       	ldi	r19, 0x00	; 0
    }
    return 0;

}
    5e02:	c9 01       	movw	r24, r18
    5e04:	08 95       	ret

00005e06 <nrk_timer_int_start>:

int8_t  nrk_timer_int_start(uint8_t timer)
{
    if(timer==NRK_APP_TIMER_0)
    5e06:	88 23       	and	r24, r24
    5e08:	11 f0       	breq	.+4      	; 0x5e0e <nrk_timer_int_start+0x8>
    5e0a:	8f ef       	ldi	r24, 0xFF	; 255
    5e0c:	08 95       	ret
    {
        TIMSK |= BM(OCIE2);
    5e0e:	87 b7       	in	r24, 0x37	; 55
    5e10:	80 68       	ori	r24, 0x80	; 128
    5e12:	87 bf       	out	0x37, r24	; 55
    5e14:	81 e0       	ldi	r24, 0x01	; 1
        return NRK_OK;
    }
    return NRK_ERROR;
}
    5e16:	08 95       	ret

00005e18 <nrk_timer_int_configure>:

int8_t  nrk_timer_int_configure(uint8_t timer, uint16_t prescaler, uint16_t compare_value, void *callback_func)
{
    if(timer==NRK_APP_TIMER_0)
    5e18:	88 23       	and	r24, r24
    5e1a:	11 f0       	breq	.+4      	; 0x5e20 <nrk_timer_int_configure+0x8>
    5e1c:	8f ef       	ldi	r24, 0xFF	; 255
    5e1e:	08 95       	ret
    {
        if(prescaler>0 && prescaler<6 ) app_timer0_prescale=prescaler;
    5e20:	cb 01       	movw	r24, r22
    5e22:	01 97       	sbiw	r24, 0x01	; 1
    5e24:	05 97       	sbiw	r24, 0x05	; 5
    5e26:	10 f4       	brcc	.+4      	; 0x5e2c <nrk_timer_int_configure+0x14>
    5e28:	60 93 9b 05 	sts	0x059B, r22
        TCCR2 = BM(WGM32);  // Automatic restart on compare, count up
    5e2c:	88 e0       	ldi	r24, 0x08	; 8
    5e2e:	85 bd       	out	0x25, r24	; 37
        OCR2 = (compare_value & 0xFF );
    5e30:	43 bd       	out	0x23, r20	; 35
        app_timer0_callback=callback_func;
    5e32:	30 93 bc 03 	sts	0x03BC, r19
    5e36:	20 93 bb 03 	sts	0x03BB, r18
        if(app_timer0_prescale==1) TCCR2 |= BM(CS30);
    5e3a:	80 91 9b 05 	lds	r24, 0x059B
    5e3e:	81 30       	cpi	r24, 0x01	; 1
    5e40:	19 f4       	brne	.+6      	; 0x5e48 <nrk_timer_int_configure+0x30>
    5e42:	85 b5       	in	r24, 0x25	; 37
    5e44:	81 60       	ori	r24, 0x01	; 1
    5e46:	09 c0       	rjmp	.+18     	; 0x5e5a <nrk_timer_int_configure+0x42>
        // Divide by 1
        else if(app_timer0_prescale==2) TCCR2 |= BM(CS31);
    5e48:	82 30       	cpi	r24, 0x02	; 2
    5e4a:	19 f4       	brne	.+6      	; 0x5e52 <nrk_timer_int_configure+0x3a>
    5e4c:	85 b5       	in	r24, 0x25	; 37
    5e4e:	82 60       	ori	r24, 0x02	; 2
    5e50:	04 c0       	rjmp	.+8      	; 0x5e5a <nrk_timer_int_configure+0x42>
        // Divide by 8
        else if(app_timer0_prescale==3) TCCR2 |= BM(CS31) | BM(CS30);
    5e52:	83 30       	cpi	r24, 0x03	; 3
    5e54:	21 f4       	brne	.+8      	; 0x5e5e <nrk_timer_int_configure+0x46>
    5e56:	85 b5       	in	r24, 0x25	; 37
    5e58:	83 60       	ori	r24, 0x03	; 3
    5e5a:	85 bd       	out	0x25, r24	; 37
    5e5c:	07 c0       	rjmp	.+14     	; 0x5e6c <nrk_timer_int_configure+0x54>
        // Divide by 64
        else if(app_timer0_prescale==4) TCCR2 |= BM(CS32) ;
    5e5e:	84 30       	cpi	r24, 0x04	; 4
    5e60:	19 f4       	brne	.+6      	; 0x5e68 <nrk_timer_int_configure+0x50>
    5e62:	85 b5       	in	r24, 0x25	; 37
    5e64:	84 60       	ori	r24, 0x04	; 4
    5e66:	f9 cf       	rjmp	.-14     	; 0x5e5a <nrk_timer_int_configure+0x42>
        // Divide by 256
        else if(app_timer0_prescale==5) TCCR2 |= BM(CS32) | BM(CS30);
    5e68:	85 30       	cpi	r24, 0x05	; 5
    5e6a:	11 f0       	breq	.+4      	; 0x5e70 <nrk_timer_int_configure+0x58>
    5e6c:	81 e0       	ldi	r24, 0x01	; 1
    5e6e:	08 95       	ret
    5e70:	85 b5       	in	r24, 0x25	; 37
    5e72:	85 60       	ori	r24, 0x05	; 5
    5e74:	85 bd       	out	0x25, r24	; 37
    5e76:	81 e0       	ldi	r24, 0x01	; 1
        // Divide by 1024
        return NRK_OK;
    }

    return NRK_ERROR;
}
    5e78:	08 95       	ret

00005e7a <__vector_9>:


SIGNAL(TIMER2_COMP_vect)
{
    5e7a:	1f 92       	push	r1
    5e7c:	0f 92       	push	r0
    5e7e:	0f b6       	in	r0, 0x3f	; 63
    5e80:	0f 92       	push	r0
    5e82:	0b b6       	in	r0, 0x3b	; 59
    5e84:	0f 92       	push	r0
    5e86:	11 24       	eor	r1, r1
    5e88:	2f 93       	push	r18
    5e8a:	3f 93       	push	r19
    5e8c:	4f 93       	push	r20
    5e8e:	5f 93       	push	r21
    5e90:	6f 93       	push	r22
    5e92:	7f 93       	push	r23
    5e94:	8f 93       	push	r24
    5e96:	9f 93       	push	r25
    5e98:	af 93       	push	r26
    5e9a:	bf 93       	push	r27
    5e9c:	ef 93       	push	r30
    5e9e:	ff 93       	push	r31
    if(app_timer0_callback!=NULL) app_timer0_callback();
    5ea0:	e0 91 bb 03 	lds	r30, 0x03BB
    5ea4:	f0 91 bc 03 	lds	r31, 0x03BC
    5ea8:	30 97       	sbiw	r30, 0x00	; 0
    5eaa:	11 f0       	breq	.+4      	; 0x5eb0 <__vector_9+0x36>
    5eac:	09 95       	icall
    5eae:	04 c0       	rjmp	.+8      	; 0x5eb8 <__vector_9+0x3e>
    else
        nrk_kernel_error_add(NRK_SEG_FAULT,0);
    5eb0:	8a e0       	ldi	r24, 0x0A	; 10
    5eb2:	60 e0       	ldi	r22, 0x00	; 0
    5eb4:	0e 94 3c 1f 	call	0x3e78	; 0x3e78 <nrk_kernel_error_add>
    return;
}
    5eb8:	ff 91       	pop	r31
    5eba:	ef 91       	pop	r30
    5ebc:	bf 91       	pop	r27
    5ebe:	af 91       	pop	r26
    5ec0:	9f 91       	pop	r25
    5ec2:	8f 91       	pop	r24
    5ec4:	7f 91       	pop	r23
    5ec6:	6f 91       	pop	r22
    5ec8:	5f 91       	pop	r21
    5eca:	4f 91       	pop	r20
    5ecc:	3f 91       	pop	r19
    5ece:	2f 91       	pop	r18
    5ed0:	0f 90       	pop	r0
    5ed2:	0b be       	out	0x3b, r0	; 59
    5ed4:	0f 90       	pop	r0
    5ed6:	0f be       	out	0x3f, r0	; 63
    5ed8:	0f 90       	pop	r0
    5eda:	1f 90       	pop	r1
    5edc:	18 95       	reti

00005ede <__vector_default>:

//-------------------------------------------------------------------------------------------------------
//  Default ISR
//-------------------------------------------------------------------------------------------------------
SIGNAL(__vector_default)
{
    5ede:	1f 92       	push	r1
    5ee0:	0f 92       	push	r0
    5ee2:	0f b6       	in	r0, 0x3f	; 63
    5ee4:	0f 92       	push	r0
    5ee6:	0b b6       	in	r0, 0x3b	; 59
    5ee8:	0f 92       	push	r0
    5eea:	11 24       	eor	r1, r1
    5eec:	2f 93       	push	r18
    5eee:	3f 93       	push	r19
    5ef0:	4f 93       	push	r20
    5ef2:	5f 93       	push	r21
    5ef4:	6f 93       	push	r22
    5ef6:	7f 93       	push	r23
    5ef8:	8f 93       	push	r24
    5efa:	9f 93       	push	r25
    5efc:	af 93       	push	r26
    5efe:	bf 93       	push	r27
    5f00:	ef 93       	push	r30
    5f02:	ff 93       	push	r31
    nrk_kernel_error_add(NRK_SEG_FAULT,0);
    5f04:	8a e0       	ldi	r24, 0x0A	; 10
    5f06:	60 e0       	ldi	r22, 0x00	; 0
    5f08:	0e 94 3c 1f 	call	0x3e78	; 0x3e78 <nrk_kernel_error_add>
}
    5f0c:	ff 91       	pop	r31
    5f0e:	ef 91       	pop	r30
    5f10:	bf 91       	pop	r27
    5f12:	af 91       	pop	r26
    5f14:	9f 91       	pop	r25
    5f16:	8f 91       	pop	r24
    5f18:	7f 91       	pop	r23
    5f1a:	6f 91       	pop	r22
    5f1c:	5f 91       	pop	r21
    5f1e:	4f 91       	pop	r20
    5f20:	3f 91       	pop	r19
    5f22:	2f 91       	pop	r18
    5f24:	0f 90       	pop	r0
    5f26:	0b be       	out	0x3b, r0	; 59
    5f28:	0f 90       	pop	r0
    5f2a:	0f be       	out	0x3f, r0	; 63
    5f2c:	0f 90       	pop	r0
    5f2e:	1f 90       	pop	r1
    5f30:	18 95       	reti

00005f32 <_nrk_startup_error>:
// Use the timer settings that are normally 0 on reset to detect
// if the OS has reboot by accident


// Check Watchdog timer
if( (MCUSR & (1<<WDRF)) != 0 )
    5f32:	04 b6       	in	r0, 0x34	; 52
    5f34:	03 fe       	sbrs	r0, 3
    5f36:	02 c0       	rjmp	.+4      	; 0x5f3c <_nrk_startup_error+0xa>
    5f38:	90 e1       	ldi	r25, 0x10	; 16
    5f3a:	01 c0       	rjmp	.+2      	; 0x5f3e <_nrk_startup_error+0xc>
    5f3c:	90 e0       	ldi	r25, 0x00	; 0
	error|=0x10;
	}


// Check Brown Out 
if( (MCUSR & (1<<BORF)) != 0 )
    5f3e:	04 b6       	in	r0, 0x34	; 52
    5f40:	02 fe       	sbrs	r0, 2
    5f42:	06 c0       	rjmp	.+12     	; 0x5f50 <_nrk_startup_error+0x1e>
	{
	MCUSR &= ~(1<<BORF);	
    5f44:	84 b7       	in	r24, 0x34	; 52
    5f46:	8b 7f       	andi	r24, 0xFB	; 251
    5f48:	84 bf       	out	0x34, r24	; 52
	// Only add brownout if it isn't the first bootup
	if( (MCUSR & (1<<PORF)) == 0 )
    5f4a:	04 b6       	in	r0, 0x34	; 52
    5f4c:	00 fe       	sbrs	r0, 0
		error|=0x04;
    5f4e:	94 60       	ori	r25, 0x04	; 4
	}

// Check External Reset 
if( (MCUSR & (1<<EXTRF)) != 0 )
    5f50:	04 b6       	in	r0, 0x34	; 52
    5f52:	01 fe       	sbrs	r0, 1
    5f54:	04 c0       	rjmp	.+8      	; 0x5f5e <_nrk_startup_error+0x2c>
	{
	MCUSR &= ~(1<<EXTRF);	
    5f56:	84 b7       	in	r24, 0x34	; 52
    5f58:	8d 7f       	andi	r24, 0xFD	; 253
    5f5a:	84 bf       	out	0x34, r24	; 52
	error|=0x02;
    5f5c:	92 60       	ori	r25, 0x02	; 2
	}

// If any of the above errors went off, then the next errors will
// incorrectly be set!  So make sure to bail early!
if(error!=0) return error;
    5f5e:	99 23       	and	r25, r25
    5f60:	51 f4       	brne	.+20     	; 0x5f76 <_nrk_startup_error+0x44>

// Check if normal power up state is set and then clear it
 if( (MCUSR & (1<<PORF)) != 0 )
    5f62:	04 b6       	in	r0, 0x34	; 52
    5f64:	00 fe       	sbrs	r0, 0
    5f66:	03 c0       	rjmp	.+6      	; 0x5f6e <_nrk_startup_error+0x3c>
   {
     MCUSR &= ~(1<<PORF);
    5f68:	84 b7       	in	r24, 0x34	; 52
    5f6a:	8e 7f       	andi	r24, 0xFE	; 254
    5f6c:	84 bf       	out	0x34, r24	; 52
 else {
   /* error|=0x01; */
 }

// check uart state 
if((volatile uint8_t)TCCR0!=0) error|=0x01;
    5f6e:	83 b7       	in	r24, 0x33	; 51
    5f70:	81 11       	cpse	r24, r1
    5f72:	81 e0       	ldi	r24, 0x01	; 1
    5f74:	98 2f       	mov	r25, r24

return error;
}
    5f76:	89 2f       	mov	r24, r25
    5f78:	08 95       	ret

00005f7a <nrk_ext_int_enable>:

int8_t  nrk_ext_int_enable(uint8_t pin )
{
//if(pin==NRK_EXT_INT_0) { EIMSK |= 1; return NRK_OK; }
return NRK_ERROR;
}
    5f7a:	8f ef       	ldi	r24, 0xFF	; 255
    5f7c:	08 95       	ret

00005f7e <nrk_ext_int_disable>:

int8_t  nrk_ext_int_disable(uint8_t pin )
{
//if(pin==NRK_EXT_INT_0) { EIMSK &= ~1; return NRK_OK; }
return NRK_ERROR;
}
    5f7e:	8f ef       	ldi	r24, 0xFF	; 255
    5f80:	08 95       	ret

00005f82 <nrk_ext_int_configure>:
	if(mode==NRK_RISING_EDGE) EICRA |= BM(ISC01) | BM(ISC00);
	return NRK_OK;
	}
*/
return NRK_ERROR;
}
    5f82:	8f ef       	ldi	r24, 0xFF	; 255
    5f84:	08 95       	ret

00005f86 <__vector_1>:



SIGNAL(INT0_vect) {
    5f86:	1f 92       	push	r1
    5f88:	0f 92       	push	r0
    5f8a:	0f b6       	in	r0, 0x3f	; 63
    5f8c:	0f 92       	push	r0
    5f8e:	0b b6       	in	r0, 0x3b	; 59
    5f90:	0f 92       	push	r0
    5f92:	11 24       	eor	r1, r1
    5f94:	2f 93       	push	r18
    5f96:	3f 93       	push	r19
    5f98:	4f 93       	push	r20
    5f9a:	5f 93       	push	r21
    5f9c:	6f 93       	push	r22
    5f9e:	7f 93       	push	r23
    5fa0:	8f 93       	push	r24
    5fa2:	9f 93       	push	r25
    5fa4:	af 93       	push	r26
    5fa6:	bf 93       	push	r27
    5fa8:	ef 93       	push	r30
    5faa:	ff 93       	push	r31
//	if(ext_int0_callback!=NULL) ext_int0_callback();
//	else
	nrk_kernel_error_add(NRK_SEG_FAULT,0);
    5fac:	8a e0       	ldi	r24, 0x0A	; 10
    5fae:	60 e0       	ldi	r22, 0x00	; 0
    5fb0:	0e 94 3c 1f 	call	0x3e78	; 0x3e78 <nrk_kernel_error_add>
	return;  	
}
    5fb4:	ff 91       	pop	r31
    5fb6:	ef 91       	pop	r30
    5fb8:	bf 91       	pop	r27
    5fba:	af 91       	pop	r26
    5fbc:	9f 91       	pop	r25
    5fbe:	8f 91       	pop	r24
    5fc0:	7f 91       	pop	r23
    5fc2:	6f 91       	pop	r22
    5fc4:	5f 91       	pop	r21
    5fc6:	4f 91       	pop	r20
    5fc8:	3f 91       	pop	r19
    5fca:	2f 91       	pop	r18
    5fcc:	0f 90       	pop	r0
    5fce:	0b be       	out	0x3b, r0	; 59
    5fd0:	0f 90       	pop	r0
    5fd2:	0f be       	out	0x3f, r0	; 63
    5fd4:	0f 90       	pop	r0
    5fd6:	1f 90       	pop	r1
    5fd8:	18 95       	reti

00005fda <nrk_watchdog_check>:
}

int8_t nrk_watchdog_check()
{

    if((MCUSR & (1<<WDRF))==0) return NRK_OK;
    5fda:	04 b6       	in	r0, 0x34	; 52
    5fdc:	03 fe       	sbrs	r0, 3
    5fde:	02 c0       	rjmp	.+4      	; 0x5fe4 <nrk_watchdog_check+0xa>
    5fe0:	8f ef       	ldi	r24, 0xFF	; 255
    5fe2:	08 95       	ret
    5fe4:	81 e0       	ldi	r24, 0x01	; 1
    return NRK_ERROR;
}
    5fe6:	08 95       	ret

00005fe8 <nrk_watchdog_reset>:

inline void nrk_watchdog_reset()
{
    wdt_reset();
    5fe8:	a8 95       	wdr

}
    5fea:	08 95       	ret

00005fec <nrk_watchdog_enable>:

void nrk_watchdog_enable()
{
// Enable watchdog with 1024K cycle timeout
// No Interrupt Trigger
    nrk_int_disable();
    5fec:	0e 94 60 14 	call	0x28c0	; 0x28c0 <nrk_int_disable>
    MCUSR &= ~(1<<WDRF);
    5ff0:	84 b7       	in	r24, 0x34	; 52
    5ff2:	87 7f       	andi	r24, 0xF7	; 247
    5ff4:	84 bf       	out	0x34, r24	; 52
    return NRK_ERROR;
}

inline void nrk_watchdog_reset()
{
    wdt_reset();
    5ff6:	a8 95       	wdr
// Enable watchdog with 1024K cycle timeout
// No Interrupt Trigger
    nrk_int_disable();
    MCUSR &= ~(1<<WDRF);
    nrk_watchdog_reset();
    WDTCR |= (1<<WDCE) | (1<<WDE);
    5ff8:	81 b5       	in	r24, 0x21	; 33
    5ffa:	88 61       	ori	r24, 0x18	; 24
    5ffc:	81 bd       	out	0x21, r24	; 33
    WDTCR = (1<<WDE) | (1<<WDP2) | (1<<WDP1) | (1<<WDP0);
    5ffe:	8f e0       	ldi	r24, 0x0F	; 15
    6000:	81 bd       	out	0x21, r24	; 33
    nrk_int_enable();
    6002:	0e 94 62 14 	call	0x28c4	; 0x28c4 <nrk_int_enable>

}
    6006:	08 95       	ret

00006008 <nrk_watchdog_disable>:
#include <avr/wdt.h>
#include <nrk.h>

void nrk_watchdog_disable()
{
    nrk_int_disable();
    6008:	0e 94 60 14 	call	0x28c0	; 0x28c0 <nrk_int_disable>
    return NRK_ERROR;
}

inline void nrk_watchdog_reset()
{
    wdt_reset();
    600c:	a8 95       	wdr

void nrk_watchdog_disable()
{
    nrk_int_disable();
    nrk_watchdog_reset();
    MCUSR &= ~(1<<WDRF);
    600e:	84 b7       	in	r24, 0x34	; 52
    6010:	87 7f       	andi	r24, 0xF7	; 247
    6012:	84 bf       	out	0x34, r24	; 52
    WDTCR |= (1<<WDCE) | (1<<WDE);
    6014:	81 b5       	in	r24, 0x21	; 33
    6016:	88 61       	ori	r24, 0x18	; 24
    6018:	81 bd       	out	0x21, r24	; 33
    WDTCR = 0;
    601a:	11 bc       	out	0x21, r1	; 33
    nrk_int_enable();
    601c:	0e 94 62 14 	call	0x28c4	; 0x28c4 <nrk_int_enable>
}
    6020:	08 95       	ret

00006022 <nrk_battery_save>:
    nrk_led_clr(2);
    nrk_led_clr(3);
    SET_VREG_INACTIVE();
    nrk_sleep();
#endif
}
    6022:	08 95       	ret

00006024 <nrk_task_set_entry_function>:

void nrk_task_set_entry_function( nrk_task_type *task, void *func )
{
    task->task=func;
    6024:	fc 01       	movw	r30, r24
    6026:	76 83       	std	Z+6, r23	; 0x06
    6028:	65 83       	std	Z+5, r22	; 0x05
}
    602a:	08 95       	ret

0000602c <nrk_sleep>:

void nrk_sleep()
{
// pdiener: Powersave stops main oscillator!
// This is in general no good idea if a fast wake up response time is needed
    set_sleep_mode (SLEEP_MODE_PWR_SAVE);
    602c:	85 b7       	in	r24, 0x35	; 53
    602e:	83 7e       	andi	r24, 0xE3	; 227
    6030:	88 61       	ori	r24, 0x18	; 24
    6032:	85 bf       	out	0x35, r24	; 53
    sleep_mode ();
    6034:	85 b7       	in	r24, 0x35	; 53
    6036:	80 62       	ori	r24, 0x20	; 32
    6038:	85 bf       	out	0x35, r24	; 53
    603a:	88 95       	sleep
    603c:	85 b7       	in	r24, 0x35	; 53
    603e:	8f 7d       	andi	r24, 0xDF	; 223
    6040:	85 bf       	out	0x35, r24	; 53

}
    6042:	08 95       	ret

00006044 <nrk_idle>:

void nrk_idle()
{
// pdiener: This stops the CPU core clock and flash clock while peripheral clock is kept running
// Main and aux oscillator keep running
    set_sleep_mode( SLEEP_MODE_IDLE);
    6044:	85 b7       	in	r24, 0x35	; 53
    6046:	83 7e       	andi	r24, 0xE3	; 227
    6048:	85 bf       	out	0x35, r24	; 53
    sleep_mode ();
    604a:	85 b7       	in	r24, 0x35	; 53
    604c:	80 62       	ori	r24, 0x20	; 32
    604e:	85 bf       	out	0x35, r24	; 53
    6050:	88 95       	sleep
    6052:	85 b7       	in	r24, 0x35	; 53
    6054:	8f 7d       	andi	r24, 0xDF	; 223
    6056:	85 bf       	out	0x35, r24	; 53

}
    6058:	08 95       	ret

0000605a <nrk_task_stk_init>:
void *nrk_task_stk_init (void (*task)(), void *ptos, void *pbos)
{
    605a:	fa 01       	movw	r30, r20
    uint16_t *stk ;  // 2 bytes
    uint8_t *stkc; // 1 byte

    stk    = (unsigned int *)pbos;          /* Load stack pointer */
    stkc = (unsigned char*)stk;
    *stkc = STK_CANARY_VAL;  // Flag for Stack Overflow
    605c:	25 e5       	ldi	r18, 0x55	; 85
    605e:	20 83       	st	Z, r18
    stk    = (unsigned int *)ptos;          /* Load stack pointer */
    6060:	fb 01       	movw	r30, r22
     *(--stk) = 0x4748;   // G H
     *(--stk) = 0x4546;   // E F
     *(--stk) = 0x4344;   // C D
     *(--stk) = 0x4142;   // A B
    */
    --stk;
    6062:	32 97       	sbiw	r30, 0x02	; 2
    stkc = (unsigned char*)stk;
    *stkc++ = (unsigned char)((unsigned int)(task)/ 256);
    6064:	90 83       	st	Z, r25
    *stkc = (unsigned char)((unsigned int)(task)%256);
    6066:	81 83       	std	Z+1, r24	; 0x01

    *(--stk) = 0;
    6068:	12 92       	st	-Z, r1
    606a:	12 92       	st	-Z, r1
    *(--stk) = 0;
    606c:	12 92       	st	-Z, r1
    606e:	12 92       	st	-Z, r1
    *(--stk) = 0;
    6070:	12 92       	st	-Z, r1
    6072:	12 92       	st	-Z, r1
    *(--stk) = 0;
    6074:	12 92       	st	-Z, r1
    6076:	12 92       	st	-Z, r1
    *(--stk) = 0;
    6078:	12 92       	st	-Z, r1
    607a:	12 92       	st	-Z, r1
    *(--stk) = 0;
    607c:	12 92       	st	-Z, r1
    607e:	12 92       	st	-Z, r1
    *(--stk) = 0;
    6080:	12 92       	st	-Z, r1
    6082:	12 92       	st	-Z, r1
    *(--stk) = 0;
    6084:	12 92       	st	-Z, r1
    6086:	12 92       	st	-Z, r1

    *(--stk) = 0;
    6088:	12 92       	st	-Z, r1
    608a:	12 92       	st	-Z, r1
    *(--stk) = 0;
    608c:	12 92       	st	-Z, r1
    608e:	12 92       	st	-Z, r1
    *(--stk) = 0;
    6090:	12 92       	st	-Z, r1
    6092:	12 92       	st	-Z, r1
    *(--stk) = 0;
    6094:	12 92       	st	-Z, r1
    6096:	12 92       	st	-Z, r1
    *(--stk) = 0;
    6098:	12 92       	st	-Z, r1
    609a:	12 92       	st	-Z, r1
    *(--stk) = 0;
    609c:	12 92       	st	-Z, r1
    609e:	12 92       	st	-Z, r1
    *(--stk) = 0;
    60a0:	12 92       	st	-Z, r1
    60a2:	12 92       	st	-Z, r1
    *(--stk) = 0;
    60a4:	12 92       	st	-Z, r1
    60a6:	12 92       	st	-Z, r1
    *(--stk) = 0;
    60a8:	12 92       	st	-Z, r1
    60aa:	12 92       	st	-Z, r1


    return ((void *)stk);
}
    60ac:	cf 01       	movw	r24, r30
    60ae:	08 95       	ret

000060b0 <nrk_stack_pointer_restore>:
#ifdef KERNEL_STK_ARRAY
    stkc = (uint16_t*)&nrk_kernel_stk[NRK_KERNEL_STACKSIZE-1];
#else
    stkc = (unsigned char*) NRK_KERNEL_STK_TOP;
#endif
    *stkc++ = (uint16_t)((uint16_t)_nrk_timer_tick>>8);
    60b0:	89 e6       	ldi	r24, 0x69	; 105
    60b2:	94 e1       	ldi	r25, 0x14	; 20
    60b4:	90 93 fe 10 	sts	0x10FE, r25
    *stkc = (uint16_t)((uint16_t)_nrk_timer_tick&0xFF);
    60b8:	80 93 ff 10 	sts	0x10FF, r24
}
    60bc:	08 95       	ret

000060be <nrk_stack_pointer_init>:
    stkc = (uint16_t*)&nrk_kernel_stk[NRK_KERNEL_STACKSIZE-1];
    nrk_kernel_stk[0]=STK_CANARY_VAL;
    nrk_kernel_stk_ptr = &nrk_kernel_stk[NRK_KERNEL_STACKSIZE-1];
#else
    stkc = (unsigned char *)NRK_KERNEL_STK_TOP-NRK_KERNEL_STACKSIZE;
    *stkc = STK_CANARY_VAL;
    60be:	85 e5       	ldi	r24, 0x55	; 85
    60c0:	80 93 7e 10 	sts	0x107E, r24
    stkc = (unsigned char *)NRK_KERNEL_STK_TOP;
    nrk_kernel_stk_ptr = (unsigned char *)NRK_KERNEL_STK_TOP;
    60c4:	ee ef       	ldi	r30, 0xFE	; 254
    60c6:	f0 e1       	ldi	r31, 0x10	; 16
    60c8:	f0 93 9a 05 	sts	0x059A, r31
    60cc:	e0 93 99 05 	sts	0x0599, r30
#endif
    *stkc++ = (uint16_t)((uint16_t)_nrk_timer_tick>>8);
    60d0:	89 e6       	ldi	r24, 0x69	; 105
    60d2:	94 e1       	ldi	r25, 0x14	; 20
    60d4:	90 83       	st	Z, r25
    *stkc = (uint16_t)((uint16_t)_nrk_timer_tick&0xFF);
    60d6:	80 93 ff 10 	sts	0x10FF, r24

}
    60da:	08 95       	ret

000060dc <nrk_target_start>:

/* start the target running */
void nrk_target_start(void)
{

    _nrk_setup_timer();
    60dc:	0e 94 22 2e 	call	0x5c44	; 0x5c44 <_nrk_setup_timer>
    nrk_int_enable();
    60e0:	0e 94 62 14 	call	0x28c4	; 0x28c4 <nrk_int_enable>

}
    60e4:	08 95       	ret

000060e6 <nrk_task_set_stk>:

    return ((void *)stk);
}

void nrk_task_set_stk( nrk_task_type *task, NRK_STK stk_base[], uint16_t stk_size )
{
    60e6:	ef 92       	push	r14
    60e8:	ff 92       	push	r15
    60ea:	0f 93       	push	r16
    60ec:	1f 93       	push	r17
    60ee:	cf 93       	push	r28
    60f0:	df 93       	push	r29
    60f2:	7c 01       	movw	r14, r24
    60f4:	8b 01       	movw	r16, r22
    60f6:	ea 01       	movw	r28, r20

    if(stk_size<32) nrk_error_add(NRK_STACK_TOO_SMALL);
    60f8:	40 32       	cpi	r20, 0x20	; 32
    60fa:	51 05       	cpc	r21, r1
    60fc:	18 f4       	brcc	.+6      	; 0x6104 <nrk_task_set_stk+0x1e>
    60fe:	81 e1       	ldi	r24, 0x11	; 17
    6100:	0e 94 53 1f 	call	0x3ea6	; 0x3ea6 <nrk_error_add>
    task->Ptos = (void *) &stk_base[stk_size-1];
    6104:	21 97       	sbiw	r28, 0x01	; 1
    6106:	c0 0f       	add	r28, r16
    6108:	d1 1f       	adc	r29, r17
    610a:	f7 01       	movw	r30, r14
    610c:	d2 83       	std	Z+2, r29	; 0x02
    610e:	c1 83       	std	Z+1, r28	; 0x01
    task->Pbos = (void *) &stk_base[0];
    6110:	14 83       	std	Z+4, r17	; 0x04
    6112:	03 83       	std	Z+3, r16	; 0x03

}
    6114:	df 91       	pop	r29
    6116:	cf 91       	pop	r28
    6118:	1f 91       	pop	r17
    611a:	0f 91       	pop	r16
    611c:	ff 90       	pop	r15
    611e:	ef 90       	pop	r14
    6120:	08 95       	ret

00006122 <ad5242_set>:

// hwAddress is defined by the Pin settings [AD1 AD0]
// channel is 1 or 2
// value is the resistor divider value
void ad5242_set(unsigned char hwAddress, unsigned char channel, unsigned char value)
{
    6122:	0f 93       	push	r16
    6124:	1f 93       	push	r17
    6126:	16 2f       	mov	r17, r22
    6128:	04 2f       	mov	r16, r20
	unsigned char address = 0b0101100 | (hwAddress & 0b11);
	
	i2c_controlByte_TX(address);
    612a:	83 70       	andi	r24, 0x03	; 3
    612c:	8c 62       	ori	r24, 0x2C	; 44
    612e:	0e 94 57 31 	call	0x62ae	; 0x62ae <i2c_controlByte_TX>
	
	// Instruction byte
	if (channel == 1)
    6132:	11 30       	cpi	r17, 0x01	; 1
    6134:	11 f4       	brne	.+4      	; 0x613a <ad5242_set+0x18>
		i2c_send(0x00);		// Channel A (1)
    6136:	80 e0       	ldi	r24, 0x00	; 0
    6138:	01 c0       	rjmp	.+2      	; 0x613c <ad5242_set+0x1a>
	else
		i2c_send(0x80);		// Channel B (2)
    613a:	80 e8       	ldi	r24, 0x80	; 128
    613c:	0e 94 1a 31 	call	0x6234	; 0x6234 <i2c_send>
		
	// Resistor divider value
	i2c_send(value);
    6140:	80 2f       	mov	r24, r16
    6142:	0e 94 1a 31 	call	0x6234	; 0x6234 <i2c_send>
		
	i2c_stop();
    6146:	0e 94 0b 31 	call	0x6216	; 0x6216 <i2c_stop>
}
    614a:	1f 91       	pop	r17
    614c:	0f 91       	pop	r16
    614e:	08 95       	ret

00006150 <ad5242_init>:


// Initialize the interface
void ad5242_init()
{
	i2c_init();
    6150:	0e 94 e1 30 	call	0x61c2	; 0x61c2 <i2c_init>
}
    6154:	08 95       	ret

00006156 <adc_init>:
#include <util/delay.h>



void adc_init()
{
    6156:	df 93       	push	r29
    6158:	cf 93       	push	r28
    615a:	00 d0       	rcall	.+0      	; 0x615c <adc_init+0x6>
    615c:	cd b7       	in	r28, 0x3d	; 61
    615e:	de b7       	in	r29, 0x3e	; 62
  volatile unsigned int dummy;

  ADMUX = (0 << REFS1) | (1 << REFS0);      						// Vcc is reference
    6160:	80 e4       	ldi	r24, 0x40	; 64
    6162:	87 b9       	out	0x07, r24	; 7
  ADCSRA = (1 << ADPS2) | (1 << ADPS1) | (0 << ADPS0);       // Prescaler = 64
    6164:	86 e0       	ldi	r24, 0x06	; 6
    6166:	86 b9       	out	0x06, r24	; 6
  ADCSRA |= (1 << ADEN);                								// ADC on
    6168:	37 9a       	sbi	0x06, 7	; 6

	// One dummy read after init
  ADCSRA |= (1<<ADSC);
    616a:	36 9a       	sbi	0x06, 6	; 6
  while (ADCSRA & (1<<ADSC));
    616c:	36 99       	sbic	0x06, 6	; 6
    616e:	fe cf       	rjmp	.-4      	; 0x616c <adc_init+0x16>
  dummy = ADCW;
    6170:	84 b1       	in	r24, 0x04	; 4
    6172:	95 b1       	in	r25, 0x05	; 5
    6174:	9a 83       	std	Y+2, r25	; 0x02
    6176:	89 83       	std	Y+1, r24	; 0x01
}
    6178:	0f 90       	pop	r0
    617a:	0f 90       	pop	r0
    617c:	cf 91       	pop	r28
    617e:	df 91       	pop	r29
    6180:	08 95       	ret

00006182 <adc_Powersave>:


// If ADC should be used after a powersave period, call init again before starting a conversion
void adc_Powersave()
{
	ADCSRA &= ~(1 << ADEN);
    6182:	37 98       	cbi	0x06, 7	; 6
}
    6184:	08 95       	ret

00006186 <adc_GetChannel>:



unsigned int adc_GetChannel(unsigned char ch)
{
  ADMUX = (ADMUX & 0b11100000) | (ch & 0b00011111);	// Select channel
    6186:	97 b1       	in	r25, 0x07	; 7
    6188:	8f 71       	andi	r24, 0x1F	; 31
    618a:	90 7e       	andi	r25, 0xE0	; 224
    618c:	89 2b       	or	r24, r25
    618e:	87 b9       	out	0x07, r24	; 7
  ADCSRA |= (1 << ADSC);										// Start a single conversion
    6190:	36 9a       	sbi	0x06, 6	; 6
  while (ADCSRA & (1 << ADSC));  							// wait until conversion result is available
    6192:	36 99       	sbic	0x06, 6	; 6
    6194:	fe cf       	rjmp	.-4      	; 0x6192 <adc_GetChannel+0xc>
  return ADCW;
    6196:	24 b1       	in	r18, 0x04	; 4
    6198:	35 b1       	in	r19, 0x05	; 5
}
    619a:	c9 01       	movw	r24, r18
    619c:	08 95       	ret

0000619e <adc_GetBatteryVoltage>:
float adc_GetBatteryVoltage()
{
// adc channel 30 is connected to the internal 1.23 V reference
	unsigned int adValue;

	adValue = adc_GetChannel(30);
    619e:	8e e1       	ldi	r24, 0x1E	; 30
    61a0:	0e 94 c3 30 	call	0x6186	; 0x6186 <adc_GetChannel>
    61a4:	a0 e0       	ldi	r26, 0x00	; 0
    61a6:	b0 e0       	ldi	r27, 0x00	; 0
    61a8:	bc 01       	movw	r22, r24
    61aa:	cd 01       	movw	r24, r26
    61ac:	0e 94 11 48 	call	0x9022	; 0x9022 <__floatunsisf>
    61b0:	9b 01       	movw	r18, r22
    61b2:	ac 01       	movw	r20, r24
    61b4:	64 ea       	ldi	r22, 0xA4	; 164
    61b6:	70 e7       	ldi	r23, 0x70	; 112
    61b8:	8d e9       	ldi	r24, 0x9D	; 157
    61ba:	94 e4       	ldi	r25, 0x44	; 68
    61bc:	0e 94 7d 47 	call	0x8efa	; 0x8efa <__divsf3>

	return (1.23 * 1024.0 / (float)adValue);
}
    61c0:	08 95       	ret

000061c2 <i2c_init>:

// inits to ~300 kHz bus frequency
void i2c_init()
{
	// Set up clock prescaler
	TWSR |= (0 << TWPS1) | (0 << TWPS0);	// Prescaler = 1
    61c2:	e1 e7       	ldi	r30, 0x71	; 113
    61c4:	f0 e0       	ldi	r31, 0x00	; 0
    61c6:	80 81       	ld	r24, Z
    61c8:	80 83       	st	Z, r24
	// Set up clock divider
	TWBR = 1;
    61ca:	81 e0       	ldi	r24, 0x01	; 1
    61cc:	80 93 70 00 	sts	0x0070, r24
	// Set up module
	TWCR = (1 << TWEN);	// I2C on, no interrupts
    61d0:	84 e0       	ldi	r24, 0x04	; 4
    61d2:	80 93 74 00 	sts	0x0074, r24
}
    61d6:	08 95       	ret

000061d8 <i2c_waitForInterruptFlag>:



void i2c_waitForInterruptFlag()
{
	while (! (TWCR & (1 << TWINT)));
    61d8:	80 91 74 00 	lds	r24, 0x0074
    61dc:	87 ff       	sbrs	r24, 7
    61de:	fc cf       	rjmp	.-8      	; 0x61d8 <i2c_waitForInterruptFlag>
}
    61e0:	08 95       	ret

000061e2 <i2c_actionStart>:



void i2c_actionStart()
{
	TWCR |= (1 << TWINT);		// clearing the interrupt flag will start the next action
    61e2:	e4 e7       	ldi	r30, 0x74	; 116
    61e4:	f0 e0       	ldi	r31, 0x00	; 0
    61e6:	80 81       	ld	r24, Z
    61e8:	80 68       	ori	r24, 0x80	; 128
    61ea:	80 83       	st	Z, r24
}
    61ec:	08 95       	ret

000061ee <i2c_start>:



void i2c_start()
{
	TWCR |= (1 << TWSTA);			// Set start condition flag
    61ee:	80 91 74 00 	lds	r24, 0x0074
    61f2:	80 62       	ori	r24, 0x20	; 32
    61f4:	80 93 74 00 	sts	0x0074, r24



void i2c_actionStart()
{
	TWCR |= (1 << TWINT);		// clearing the interrupt flag will start the next action
    61f8:	80 91 74 00 	lds	r24, 0x0074
    61fc:	80 68       	ori	r24, 0x80	; 128
    61fe:	80 93 74 00 	sts	0x0074, r24



void i2c_waitForInterruptFlag()
{
	while (! (TWCR & (1 << TWINT)));
    6202:	80 91 74 00 	lds	r24, 0x0074
    6206:	87 ff       	sbrs	r24, 7
    6208:	fc cf       	rjmp	.-8      	; 0x6202 <i2c_start+0x14>
void i2c_start()
{
	TWCR |= (1 << TWSTA);			// Set start condition flag
	i2c_actionStart();				// Send START
	i2c_waitForInterruptFlag();	// Wait until START is sent
	TWCR &= ~(1 << TWSTA);			// Clear start condition flag
    620a:	80 91 74 00 	lds	r24, 0x0074
    620e:	8f 7d       	andi	r24, 0xDF	; 223
    6210:	80 93 74 00 	sts	0x0074, r24
}
    6214:	08 95       	ret

00006216 <i2c_stop>:



void i2c_stop()
{
	TWCR |= (1 << TWSTO);			// Set stop condition flag - this will be cleared automatically
    6216:	80 91 74 00 	lds	r24, 0x0074
    621a:	80 61       	ori	r24, 0x10	; 16
    621c:	80 93 74 00 	sts	0x0074, r24



void i2c_actionStart()
{
	TWCR |= (1 << TWINT);		// clearing the interrupt flag will start the next action
    6220:	80 91 74 00 	lds	r24, 0x0074
    6224:	80 68       	ori	r24, 0x80	; 128
    6226:	80 93 74 00 	sts	0x0074, r24

void i2c_stop()
{
	TWCR |= (1 << TWSTO);			// Set stop condition flag - this will be cleared automatically
	i2c_actionStart();				// Send STOP
	while (TWCR & (1 << TWSTO));	// Wait until STOP is sent
    622a:	80 91 74 00 	lds	r24, 0x0074
    622e:	84 fd       	sbrc	r24, 4
    6230:	fc cf       	rjmp	.-8      	; 0x622a <i2c_stop+0x14>
}
    6232:	08 95       	ret

00006234 <i2c_send>:


// Returns 0 if ACK has been received, else 1
unsigned char i2c_send(unsigned char data)
{
	TWDR = data;
    6234:	80 93 73 00 	sts	0x0073, r24



void i2c_actionStart()
{
	TWCR |= (1 << TWINT);		// clearing the interrupt flag will start the next action
    6238:	80 91 74 00 	lds	r24, 0x0074
    623c:	80 68       	ori	r24, 0x80	; 128
    623e:	80 93 74 00 	sts	0x0074, r24



void i2c_waitForInterruptFlag()
{
	while (! (TWCR & (1 << TWINT)));
    6242:	80 91 74 00 	lds	r24, 0x0074
    6246:	87 ff       	sbrs	r24, 7
    6248:	fc cf       	rjmp	.-8      	; 0x6242 <i2c_send+0xe>
unsigned char i2c_send(unsigned char data)
{
	TWDR = data;
	i2c_actionStart();
	i2c_waitForInterruptFlag();
	if ((TWSR & 0xF8) == TW_MT_DATA_ACK) return 0;			// Data byte ACK
    624a:	80 91 71 00 	lds	r24, 0x0071
    624e:	88 7f       	andi	r24, 0xF8	; 248
    6250:	88 32       	cpi	r24, 0x28	; 40
    6252:	11 f4       	brne	.+4      	; 0x6258 <i2c_send+0x24>
    6254:	90 e0       	ldi	r25, 0x00	; 0
    6256:	07 c0       	rjmp	.+14     	; 0x6266 <i2c_send+0x32>
	else if ((TWSR & 0xF8) == TW_MT_SLA_ACK) return 0;	// Address byte ACK
    6258:	80 91 71 00 	lds	r24, 0x0071
    625c:	90 e0       	ldi	r25, 0x00	; 0
    625e:	88 7f       	andi	r24, 0xF8	; 248
    6260:	88 31       	cpi	r24, 0x18	; 24
    6262:	09 f0       	breq	.+2      	; 0x6266 <i2c_send+0x32>
    6264:	91 e0       	ldi	r25, 0x01	; 1
	else return 1;
}
    6266:	89 2f       	mov	r24, r25
    6268:	08 95       	ret

0000626a <i2c_receive>:


// if ack == 0, no-ACK will be sent
unsigned char i2c_receive(unsigned int ack)
{
	if (ack) TWCR |= (1 << TWEA);	// ACK
    626a:	89 2b       	or	r24, r25
    626c:	21 f0       	breq	.+8      	; 0x6276 <i2c_receive+0xc>
    626e:	80 91 74 00 	lds	r24, 0x0074
    6272:	80 64       	ori	r24, 0x40	; 64
    6274:	03 c0       	rjmp	.+6      	; 0x627c <i2c_receive+0x12>
	else 		TWCR &= ~(1 << TWEA);	// no ACK
    6276:	80 91 74 00 	lds	r24, 0x0074
    627a:	8f 7b       	andi	r24, 0xBF	; 191
    627c:	80 93 74 00 	sts	0x0074, r24



void i2c_actionStart()
{
	TWCR |= (1 << TWINT);		// clearing the interrupt flag will start the next action
    6280:	80 91 74 00 	lds	r24, 0x0074
    6284:	80 68       	ori	r24, 0x80	; 128
    6286:	80 93 74 00 	sts	0x0074, r24



void i2c_waitForInterruptFlag()
{
	while (! (TWCR & (1 << TWINT)));
    628a:	80 91 74 00 	lds	r24, 0x0074
    628e:	87 ff       	sbrs	r24, 7
    6290:	fc cf       	rjmp	.-8      	; 0x628a <i2c_receive+0x20>
{
	if (ack) TWCR |= (1 << TWEA);	// ACK
	else 		TWCR &= ~(1 << TWEA);	// no ACK
	i2c_actionStart();					// Start receiving
	i2c_waitForInterruptFlag();		// Wait until byte is received
	return TWDR;
    6292:	80 91 73 00 	lds	r24, 0x0073
}
    6296:	08 95       	ret

00006298 <i2c_controlByte_RX>:



// This initiates an rx transfer with START + SLA + R
void i2c_controlByte_RX(unsigned char address)
{
    6298:	1f 93       	push	r17
    629a:	18 2f       	mov	r17, r24
	i2c_start();
    629c:	0e 94 f7 30 	call	0x61ee	; 0x61ee <i2c_start>
	i2c_send((address << 1) | 0x01);
    62a0:	11 0f       	add	r17, r17
    62a2:	81 2f       	mov	r24, r17
    62a4:	81 60       	ori	r24, 0x01	; 1
    62a6:	0e 94 1a 31 	call	0x6234	; 0x6234 <i2c_send>
}
    62aa:	1f 91       	pop	r17
    62ac:	08 95       	ret

000062ae <i2c_controlByte_TX>:



// This initiates an tx transfer with START + SLA
void i2c_controlByte_TX(unsigned char address)
{
    62ae:	1f 93       	push	r17
    62b0:	18 2f       	mov	r17, r24
	i2c_start();
    62b2:	0e 94 f7 30 	call	0x61ee	; 0x61ee <i2c_start>
	i2c_send(address << 1);
    62b6:	81 2f       	mov	r24, r17
    62b8:	88 0f       	add	r24, r24
    62ba:	0e 94 1a 31 	call	0x6234	; 0x6234 <i2c_send>
}
    62be:	1f 91       	pop	r17
    62c0:	08 95       	ret

000062c2 <mda100_init>:


// Do not forget to init everything before using it
void mda100_init()
{
	adc_init();
    62c2:	0e 94 ab 30 	call	0x6156	; 0x6156 <adc_init>
	mda100_initDone = 1;
    62c6:	81 e0       	ldi	r24, 0x01	; 1
    62c8:	80 93 88 03 	sts	0x0388, r24
}
    62cc:	08 95       	ret

000062ce <mda100_TemperatureSensor_Power>:


// Power control via PW0
// This must be tristate if not in use, otherwise light sensor will be incorrect
void mda100_TemperatureSensor_Power(T_Power powerstatus)
{
    62ce:	1f 93       	push	r17
    62d0:	18 2f       	mov	r17, r24
	CheckIfInitDone();
    62d2:	80 91 88 03 	lds	r24, 0x0388
    62d6:	88 23       	and	r24, r24
    62d8:	11 f4       	brne	.+4      	; 0x62de <mda100_TemperatureSensor_Power+0x10>
    62da:	0e 94 61 31 	call	0x62c2	; 0x62c2 <mda100_init>
	// Switch off light sensor power first; Only one of these may be active at a time
    PORTE &= ~(1 << 5);
    62de:	1d 98       	cbi	0x03, 5	; 3
    DDRE  &= ~(1 << 5);
    62e0:	15 98       	cbi	0x02, 5	; 2

	if (powerstatus == POWER_ON)
    62e2:	11 30       	cpi	r17, 0x01	; 1
    62e4:	19 f4       	brne	.+6      	; 0x62ec <mda100_TemperatureSensor_Power+0x1e>
	{
		PORTC |= (1 << 0);
    62e6:	a8 9a       	sbi	0x15, 0	; 21
		DDRC  |= (1 << 0);
    62e8:	a0 9a       	sbi	0x14, 0	; 20
    62ea:	02 c0       	rjmp	.+4      	; 0x62f0 <mda100_TemperatureSensor_Power+0x22>
	}
	else
	{
		PORTC &= ~(1 << 0);
    62ec:	a8 98       	cbi	0x15, 0	; 21
		DDRC  &= ~(1 << 0);
    62ee:	a0 98       	cbi	0x14, 0	; 20
	}
}
    62f0:	1f 91       	pop	r17
    62f2:	08 95       	ret

000062f4 <mda100_TemperatureSensor_GetCounts>:


// This is a ratiometric value, so use Vcc as reference
unsigned int mda100_TemperatureSensor_GetCounts()
{
	CheckIfInitDone();
    62f4:	80 91 88 03 	lds	r24, 0x0388
    62f8:	88 23       	and	r24, r24
    62fa:	11 f4       	brne	.+4      	; 0x6300 <mda100_TemperatureSensor_GetCounts+0xc>
    62fc:	0e 94 61 31 	call	0x62c2	; 0x62c2 <mda100_init>
	mda100_TemperatureSensor_Power(POWER_ON);
    6300:	81 e0       	ldi	r24, 0x01	; 1
    6302:	0e 94 67 31 	call	0x62ce	; 0x62ce <mda100_TemperatureSensor_Power>
	return adc_GetChannel(1);
    6306:	81 e0       	ldi	r24, 0x01	; 1
    6308:	0e 94 c3 30 	call	0x6186	; 0x6186 <adc_GetChannel>
}
    630c:	08 95       	ret

0000630e <mda100_TemperatureSensor_GetKelvin>:



float mda100_TemperatureSensor_GetKelvin()
{
    630e:	af 92       	push	r10
    6310:	bf 92       	push	r11
    6312:	cf 92       	push	r12
    6314:	df 92       	push	r13
    6316:	ef 92       	push	r14
    6318:	ff 92       	push	r15
    631a:	0f 93       	push	r16
    631c:	1f 93       	push	r17
	float counts = mda100_TemperatureSensor_GetCounts();
    631e:	0e 94 7a 31 	call	0x62f4	; 0x62f4 <mda100_TemperatureSensor_GetCounts>
    6322:	a0 e0       	ldi	r26, 0x00	; 0
    6324:	b0 e0       	ldi	r27, 0x00	; 0
    6326:	bc 01       	movw	r22, r24
    6328:	cd 01       	movw	r24, r26
    632a:	0e 94 11 48 	call	0x9022	; 0x9022 <__floatunsisf>
    632e:	7b 01       	movw	r14, r22
    6330:	8c 01       	movw	r16, r24
	float lnRthr = log( 10e3 * (1023.0 - counts) / counts);
    6332:	60 e0       	ldi	r22, 0x00	; 0
    6334:	70 ec       	ldi	r23, 0xC0	; 192
    6336:	8f e7       	ldi	r24, 0x7F	; 127
    6338:	94 e4       	ldi	r25, 0x44	; 68
    633a:	a8 01       	movw	r20, r16
    633c:	97 01       	movw	r18, r14
    633e:	0e 94 18 47 	call	0x8e30	; 0x8e30 <__subsf3>
    6342:	20 e0       	ldi	r18, 0x00	; 0
    6344:	30 e4       	ldi	r19, 0x40	; 64
    6346:	4c e1       	ldi	r20, 0x1C	; 28
    6348:	56 e4       	ldi	r21, 0x46	; 70
    634a:	0e 94 e8 48 	call	0x91d0	; 0x91d0 <__mulsf3>
    634e:	a8 01       	movw	r20, r16
    6350:	97 01       	movw	r18, r14
    6352:	0e 94 7d 47 	call	0x8efa	; 0x8efa <__divsf3>
    6356:	0e 94 a8 48 	call	0x9150	; 0x9150 <log>
    635a:	5b 01       	movw	r10, r22
    635c:	6c 01       	movw	r12, r24
	float lnRthr3 = pow(lnRthr, 3);	// lnRthr
    635e:	20 e0       	ldi	r18, 0x00	; 0
    6360:	30 e0       	ldi	r19, 0x00	; 0
    6362:	40 e4       	ldi	r20, 0x40	; 64
    6364:	50 e4       	ldi	r21, 0x40	; 64
    6366:	0e 94 4b 49 	call	0x9296	; 0x9296 <pow>
    636a:	7b 01       	movw	r14, r22
    636c:	8c 01       	movw	r16, r24
    636e:	c6 01       	movw	r24, r12
    6370:	b5 01       	movw	r22, r10
    6372:	29 e7       	ldi	r18, 0x79	; 121
    6374:	33 ee       	ldi	r19, 0xE3	; 227
    6376:	4d e7       	ldi	r20, 0x7D	; 125
    6378:	59 e3       	ldi	r21, 0x39	; 57
    637a:	0e 94 e8 48 	call	0x91d0	; 0x91d0 <__mulsf3>
    637e:	28 ec       	ldi	r18, 0xC8	; 200
    6380:	32 e6       	ldi	r19, 0x62	; 98
    6382:	44 e8       	ldi	r20, 0x84	; 132
    6384:	5a e3       	ldi	r21, 0x3A	; 58
    6386:	0e 94 19 47 	call	0x8e32	; 0x8e32 <__addsf3>
    638a:	5b 01       	movw	r10, r22
    638c:	6c 01       	movw	r12, r24
    638e:	c8 01       	movw	r24, r16
    6390:	b7 01       	movw	r22, r14
    6392:	2d e2       	ldi	r18, 0x2D	; 45
    6394:	34 ec       	ldi	r19, 0xC4	; 196
    6396:	4c e1       	ldi	r20, 0x1C	; 28
    6398:	54 e3       	ldi	r21, 0x34	; 52
    639a:	0e 94 e8 48 	call	0x91d0	; 0x91d0 <__mulsf3>
    639e:	9b 01       	movw	r18, r22
    63a0:	ac 01       	movw	r20, r24
    63a2:	c6 01       	movw	r24, r12
    63a4:	b5 01       	movw	r22, r10
    63a6:	0e 94 19 47 	call	0x8e32	; 0x8e32 <__addsf3>
    63aa:	9b 01       	movw	r18, r22
    63ac:	ac 01       	movw	r20, r24
    63ae:	60 e0       	ldi	r22, 0x00	; 0
    63b0:	70 e0       	ldi	r23, 0x00	; 0
    63b2:	80 e8       	ldi	r24, 0x80	; 128
    63b4:	9f e3       	ldi	r25, 0x3F	; 63
    63b6:	0e 94 7d 47 	call	0x8efa	; 0x8efa <__divsf3>
	float a = 0.001010024;
	float b = 0.000242127;
	float c = 0.000000146;
	
	return ( 1 / ( a + b * lnRthr + c * lnRthr3) );
}
    63ba:	1f 91       	pop	r17
    63bc:	0f 91       	pop	r16
    63be:	ff 90       	pop	r15
    63c0:	ef 90       	pop	r14
    63c2:	df 90       	pop	r13
    63c4:	cf 90       	pop	r12
    63c6:	bf 90       	pop	r11
    63c8:	af 90       	pop	r10
    63ca:	08 95       	ret

000063cc <mda100_TemperatureSensor_GetDegreeCelsius>:



float mda100_TemperatureSensor_GetDegreeCelsius()
{
	return (mda100_TemperatureSensor_GetKelvin() - 273.15);
    63cc:	0e 94 87 31 	call	0x630e	; 0x630e <mda100_TemperatureSensor_GetKelvin>
    63d0:	23 e3       	ldi	r18, 0x33	; 51
    63d2:	33 e9       	ldi	r19, 0x93	; 147
    63d4:	48 e8       	ldi	r20, 0x88	; 136
    63d6:	53 e4       	ldi	r21, 0x43	; 67
    63d8:	0e 94 18 47 	call	0x8e30	; 0x8e30 <__subsf3>
}
    63dc:	08 95       	ret

000063de <mda100_LightSensor_Power>:


// Power control via int1 (PE5)
// This must be tristate if not in use, otherwise temperature sensor will be incorrect
void mda100_LightSensor_Power(T_Power powerstatus)
{
    63de:	1f 93       	push	r17
    63e0:	18 2f       	mov	r17, r24
	CheckIfInitDone();
    63e2:	80 91 88 03 	lds	r24, 0x0388
    63e6:	88 23       	and	r24, r24
    63e8:	11 f4       	brne	.+4      	; 0x63ee <mda100_LightSensor_Power+0x10>
    63ea:	0e 94 61 31 	call	0x62c2	; 0x62c2 <mda100_init>
	// Switch off temperature sensor power first; Only one of these may be active at a time
	PORTC &= ~(1 << 0);
    63ee:	a8 98       	cbi	0x15, 0	; 21
    DDRC  &= ~(1 << 0);
    63f0:	a0 98       	cbi	0x14, 0	; 20

	if (powerstatus == POWER_ON)
    63f2:	11 30       	cpi	r17, 0x01	; 1
    63f4:	19 f4       	brne	.+6      	; 0x63fc <mda100_LightSensor_Power+0x1e>
	{
		PORTE |= (1 << 5);
    63f6:	1d 9a       	sbi	0x03, 5	; 3
		DDRE  |= (1 << 5);
    63f8:	15 9a       	sbi	0x02, 5	; 2
    63fa:	02 c0       	rjmp	.+4      	; 0x6400 <mda100_LightSensor_Power+0x22>
	}
	else
	{
		PORTE &= ~(1 << 5);
    63fc:	1d 98       	cbi	0x03, 5	; 3
		DDRE  &= ~(1 << 5);
    63fe:	15 98       	cbi	0x02, 5	; 2
	}
}
    6400:	1f 91       	pop	r17
    6402:	08 95       	ret

00006404 <mda100_LightSensor_GetCounts>:


// This is a ratiometric value, so use Vcc as reference
unsigned int mda100_LightSensor_GetCounts()
{
	CheckIfInitDone();
    6404:	80 91 88 03 	lds	r24, 0x0388
    6408:	88 23       	and	r24, r24
    640a:	11 f4       	brne	.+4      	; 0x6410 <mda100_LightSensor_GetCounts+0xc>
    640c:	0e 94 61 31 	call	0x62c2	; 0x62c2 <mda100_init>
	mda100_LightSensor_Power(POWER_ON);
    6410:	81 e0       	ldi	r24, 0x01	; 1
    6412:	0e 94 ef 31 	call	0x63de	; 0x63de <mda100_LightSensor_Power>
	return adc_GetChannel(1);
    6416:	81 e0       	ldi	r24, 0x01	; 1
    6418:	0e 94 c3 30 	call	0x6186	; 0x6186 <adc_GetChannel>
}
    641c:	08 95       	ret

0000641e <mda100_Powersave>:



void mda100_Powersave()
{
	CheckIfInitDone();
    641e:	80 91 88 03 	lds	r24, 0x0388
    6422:	88 23       	and	r24, r24
    6424:	11 f4       	brne	.+4      	; 0x642a <mda100_Powersave+0xc>
    6426:	0e 94 61 31 	call	0x62c2	; 0x62c2 <mda100_init>
	adc_Powersave();
    642a:	0e 94 c1 30 	call	0x6182	; 0x6182 <adc_Powersave>
}
    642e:	08 95       	ret

00006430 <mts310cb_init>:


// Do not forget to init everything before using it
void mts310cb_init()
{
	adc_init();
    6430:	0e 94 ab 30 	call	0x6156	; 0x6156 <adc_init>
	ad5242_init();
    6434:	0e 94 a8 30 	call	0x6150	; 0x6150 <ad5242_init>
	mts310cb_initDone = 1;
    6438:	81 e0       	ldi	r24, 0x01	; 1
    643a:	80 93 89 03 	sts	0x0389, r24
}
    643e:	08 95       	ret

00006440 <mts310cb_Magnetometer_y_GetCounts>:



unsigned int mts310cb_Magnetometer_y_GetCounts()
{
	CheckIfInitDone();
    6440:	80 91 89 03 	lds	r24, 0x0389
    6444:	88 23       	and	r24, r24
    6446:	11 f4       	brne	.+4      	; 0x644c <mts310cb_Magnetometer_y_GetCounts+0xc>
    6448:	0e 94 18 32 	call	0x6430	; 0x6430 <mts310cb_init>
	return adc_GetChannel(6);
    644c:	86 e0       	ldi	r24, 0x06	; 6
    644e:	0e 94 c3 30 	call	0x6186	; 0x6186 <adc_GetChannel>
}
    6452:	08 95       	ret

00006454 <mts310cb_Magnetometer_x_GetCounts>:



unsigned int mts310cb_Magnetometer_x_GetCounts()
{
	CheckIfInitDone();
    6454:	80 91 89 03 	lds	r24, 0x0389
    6458:	88 23       	and	r24, r24
    645a:	11 f4       	brne	.+4      	; 0x6460 <mts310cb_Magnetometer_x_GetCounts+0xc>
    645c:	0e 94 18 32 	call	0x6430	; 0x6430 <mts310cb_init>
	return adc_GetChannel(5);
    6460:	85 e0       	ldi	r24, 0x05	; 5
    6462:	0e 94 c3 30 	call	0x6186	; 0x6186 <adc_GetChannel>
}
    6466:	08 95       	ret

00006468 <mts310cb_Accelerometer_y_GetCounts>:



unsigned int mts310cb_Accelerometer_y_GetCounts()
{
	CheckIfInitDone();
    6468:	80 91 89 03 	lds	r24, 0x0389
    646c:	88 23       	and	r24, r24
    646e:	11 f4       	brne	.+4      	; 0x6474 <mts310cb_Accelerometer_y_GetCounts+0xc>
    6470:	0e 94 18 32 	call	0x6430	; 0x6430 <mts310cb_init>
	return adc_GetChannel(4);
    6474:	84 e0       	ldi	r24, 0x04	; 4
    6476:	0e 94 c3 30 	call	0x6186	; 0x6186 <adc_GetChannel>
}
    647a:	08 95       	ret

0000647c <mts310cb_Accelerometer_x_GetCounts>:



unsigned int mts310cb_Accelerometer_x_GetCounts()
{
	CheckIfInitDone();
    647c:	80 91 89 03 	lds	r24, 0x0389
    6480:	88 23       	and	r24, r24
    6482:	11 f4       	brne	.+4      	; 0x6488 <mts310cb_Accelerometer_x_GetCounts+0xc>
    6484:	0e 94 18 32 	call	0x6430	; 0x6430 <mts310cb_init>
	return adc_GetChannel(3);
    6488:	83 e0       	ldi	r24, 0x03	; 3
    648a:	0e 94 c3 30 	call	0x6186	; 0x6186 <adc_GetChannel>
}
    648e:	08 95       	ret

00006490 <mts310cb_Microphone_GetCounts>:



unsigned int mts310cb_Microphone_GetCounts()
{
	CheckIfInitDone();
    6490:	80 91 89 03 	lds	r24, 0x0389
    6494:	88 23       	and	r24, r24
    6496:	11 f4       	brne	.+4      	; 0x649c <mts310cb_Microphone_GetCounts+0xc>
    6498:	0e 94 18 32 	call	0x6430	; 0x6430 <mts310cb_init>
	return adc_GetChannel(2);
    649c:	82 e0       	ldi	r24, 0x02	; 2
    649e:	0e 94 c3 30 	call	0x6186	; 0x6186 <adc_GetChannel>
}
    64a2:	08 95       	ret

000064a4 <mts310cb_Microphone_SetMode>:



// This is set with PW6
void mts310cb_Microphone_SetMode(T_MicMode mode)
{
    64a4:	1f 93       	push	r17
    64a6:	18 2f       	mov	r17, r24
	CheckIfInitDone();
    64a8:	80 91 89 03 	lds	r24, 0x0389
    64ac:	88 23       	and	r24, r24
    64ae:	11 f4       	brne	.+4      	; 0x64b4 <mts310cb_Microphone_SetMode+0x10>
    64b0:	0e 94 18 32 	call	0x6430	; 0x6430 <mts310cb_init>
	if (mode == MIC_RAW)                PORTC |=  (1 << 6); // tbd: is this the right logic or is it inverted?
    64b4:	11 23       	and	r17, r17
    64b6:	11 f4       	brne	.+4      	; 0x64bc <mts310cb_Microphone_SetMode+0x18>
    64b8:	ae 9a       	sbi	0x15, 6	; 21
    64ba:	03 c0       	rjmp	.+6      	; 0x64c2 <mts310cb_Microphone_SetMode+0x1e>
	else if (mode == MIC_TONEDETECT)    PORTC &= ~(1 << 6);
    64bc:	11 30       	cpi	r17, 0x01	; 1
    64be:	09 f4       	brne	.+2      	; 0x64c2 <mts310cb_Microphone_SetMode+0x1e>
    64c0:	ae 98       	cbi	0x15, 6	; 21
}
    64c2:	1f 91       	pop	r17
    64c4:	08 95       	ret

000064c6 <mts310cb_Microphone_SetGain>:



// Adjust gain of Mic preamp in 256 steps
void mts310cb_Microphone_SetGain(unsigned char value)
{
    64c6:	1f 93       	push	r17
    64c8:	18 2f       	mov	r17, r24
	CheckIfInitDone();
    64ca:	80 91 89 03 	lds	r24, 0x0389
    64ce:	88 23       	and	r24, r24
    64d0:	11 f4       	brne	.+4      	; 0x64d6 <mts310cb_Microphone_SetGain+0x10>
    64d2:	0e 94 18 32 	call	0x6430	; 0x6430 <mts310cb_init>
	#define ad5242_MicrophoneAddress 1
	ad5242_set(ad5242_MicrophoneAddress, 1, value);		// Channel 1
    64d6:	81 e0       	ldi	r24, 0x01	; 1
    64d8:	61 e0       	ldi	r22, 0x01	; 1
    64da:	41 2f       	mov	r20, r17
    64dc:	0e 94 91 30 	call	0x6122	; 0x6122 <ad5242_set>
}
    64e0:	1f 91       	pop	r17
    64e2:	08 95       	ret

000064e4 <mts310cb_Magnetometer_y_SetOffset>:



// Adjust offset voltage at Opamp U7 in 256 steps
void mts310cb_Magnetometer_y_SetOffset(unsigned char value)
{
    64e4:	1f 93       	push	r17
    64e6:	18 2f       	mov	r17, r24
	CheckIfInitDone();
    64e8:	80 91 89 03 	lds	r24, 0x0389
    64ec:	88 23       	and	r24, r24
    64ee:	11 f4       	brne	.+4      	; 0x64f4 <mts310cb_Magnetometer_y_SetOffset+0x10>
    64f0:	0e 94 18 32 	call	0x6430	; 0x6430 <mts310cb_init>
	ad5242_set(ad5242_MagnetometerAddress, 2, value);	// Channel 2
    64f4:	80 e0       	ldi	r24, 0x00	; 0
    64f6:	62 e0       	ldi	r22, 0x02	; 2
    64f8:	41 2f       	mov	r20, r17
    64fa:	0e 94 91 30 	call	0x6122	; 0x6122 <ad5242_set>
}
    64fe:	1f 91       	pop	r17
    6500:	08 95       	ret

00006502 <mts310cb_Magnetometer_x_SetOffset>:



// Adjust offset voltage at Opamp U6 in 256 steps
void mts310cb_Magnetometer_x_SetOffset(unsigned char value)
{
    6502:	1f 93       	push	r17
    6504:	18 2f       	mov	r17, r24
	CheckIfInitDone();
    6506:	80 91 89 03 	lds	r24, 0x0389
    650a:	88 23       	and	r24, r24
    650c:	11 f4       	brne	.+4      	; 0x6512 <mts310cb_Magnetometer_x_SetOffset+0x10>
    650e:	0e 94 18 32 	call	0x6430	; 0x6430 <mts310cb_init>
	#define ad5242_MagnetometerAddress 0
	ad5242_set(ad5242_MagnetometerAddress, 1, value);	// Channel 1
    6512:	80 e0       	ldi	r24, 0x00	; 0
    6514:	61 e0       	ldi	r22, 0x01	; 1
    6516:	41 2f       	mov	r20, r17
    6518:	0e 94 91 30 	call	0x6122	; 0x6122 <ad5242_set>
}
    651c:	1f 91       	pop	r17
    651e:	08 95       	ret

00006520 <mts310cb_Microphone_Power>:



// Power control line PW3
void mts310cb_Microphone_Power(T_Power powerstatus)
{
    6520:	1f 93       	push	r17
    6522:	18 2f       	mov	r17, r24
	CheckIfInitDone();
    6524:	80 91 89 03 	lds	r24, 0x0389
    6528:	88 23       	and	r24, r24
    652a:	11 f4       	brne	.+4      	; 0x6530 <mts310cb_Microphone_Power+0x10>
    652c:	0e 94 18 32 	call	0x6430	; 0x6430 <mts310cb_init>
	if (powerstatus == POWER_ON)	PORTC |=  (1 << 3);
    6530:	11 30       	cpi	r17, 0x01	; 1
    6532:	11 f4       	brne	.+4      	; 0x6538 <mts310cb_Microphone_Power+0x18>
    6534:	ab 9a       	sbi	0x15, 3	; 21
    6536:	01 c0       	rjmp	.+2      	; 0x653a <mts310cb_Microphone_Power+0x1a>
	else									PORTC &= ~(1 << 3);
    6538:	ab 98       	cbi	0x15, 3	; 21
}
    653a:	1f 91       	pop	r17
    653c:	08 95       	ret

0000653e <mts310cb_Sounder_Power>:



// Power control line PW2
void mts310cb_Sounder_Power(T_Power powerstatus)
{
    653e:	1f 93       	push	r17
    6540:	18 2f       	mov	r17, r24
	CheckIfInitDone();
    6542:	80 91 89 03 	lds	r24, 0x0389
    6546:	88 23       	and	r24, r24
    6548:	11 f4       	brne	.+4      	; 0x654e <mts310cb_Sounder_Power+0x10>
    654a:	0e 94 18 32 	call	0x6430	; 0x6430 <mts310cb_init>
	if (powerstatus == POWER_ON)	PORTC |=  (1 << 2);
    654e:	11 30       	cpi	r17, 0x01	; 1
    6550:	11 f4       	brne	.+4      	; 0x6556 <mts310cb_Sounder_Power+0x18>
    6552:	aa 9a       	sbi	0x15, 2	; 21
    6554:	01 c0       	rjmp	.+2      	; 0x6558 <mts310cb_Sounder_Power+0x1a>
	else									PORTC &= ~(1 << 2);
    6556:	aa 98       	cbi	0x15, 2	; 21
}
    6558:	1f 91       	pop	r17
    655a:	08 95       	ret

0000655c <mts310cb_TemperatureSensor_Power>:


// Power control via PW0
// This must be tristate if not in use, otherwise light sensor will be incorrect
void mts310cb_TemperatureSensor_Power(T_Power powerstatus)
{
    655c:	1f 93       	push	r17
    655e:	18 2f       	mov	r17, r24
	CheckIfInitDone();
    6560:	80 91 89 03 	lds	r24, 0x0389
    6564:	88 23       	and	r24, r24
    6566:	11 f4       	brne	.+4      	; 0x656c <mts310cb_TemperatureSensor_Power+0x10>
    6568:	0e 94 18 32 	call	0x6430	; 0x6430 <mts310cb_init>
	mts310cb_LightSensor_Power(POWER_OFF);				// Only one of these may be active at a time
    656c:	80 e0       	ldi	r24, 0x00	; 0
    656e:	0e 94 c2 32 	call	0x6584	; 0x6584 <mts310cb_LightSensor_Power>
	if (powerstatus == POWER_ON)
    6572:	11 30       	cpi	r17, 0x01	; 1
    6574:	19 f4       	brne	.+6      	; 0x657c <mts310cb_TemperatureSensor_Power+0x20>
	{
		PORTC |= (1 << 0);
    6576:	a8 9a       	sbi	0x15, 0	; 21
		DDRC  |= (1 << 0);
    6578:	a0 9a       	sbi	0x14, 0	; 20
    657a:	02 c0       	rjmp	.+4      	; 0x6580 <mts310cb_TemperatureSensor_Power+0x24>
	}
	else
	{
		PORTC &= ~(1 << 0);
    657c:	a8 98       	cbi	0x15, 0	; 21
		DDRC  &= ~(1 << 0);
    657e:	a0 98       	cbi	0x14, 0	; 20
	}
}
    6580:	1f 91       	pop	r17
    6582:	08 95       	ret

00006584 <mts310cb_LightSensor_Power>:


// Power control via int1 (PE5)
// This must be tristate if not in use, otherwise temperature sensor will be incorrect
void mts310cb_LightSensor_Power(T_Power powerstatus)
{
    6584:	1f 93       	push	r17
    6586:	18 2f       	mov	r17, r24
	CheckIfInitDone();
    6588:	80 91 89 03 	lds	r24, 0x0389
    658c:	88 23       	and	r24, r24
    658e:	11 f4       	brne	.+4      	; 0x6594 <mts310cb_LightSensor_Power+0x10>
    6590:	0e 94 18 32 	call	0x6430	; 0x6430 <mts310cb_init>
	mts310cb_TemperatureSensor_Power(POWER_OFF);		// Only one of these may be active at a time
    6594:	80 e0       	ldi	r24, 0x00	; 0
    6596:	0e 94 ae 32 	call	0x655c	; 0x655c <mts310cb_TemperatureSensor_Power>
	if (powerstatus == POWER_ON)
    659a:	11 30       	cpi	r17, 0x01	; 1
    659c:	19 f4       	brne	.+6      	; 0x65a4 <mts310cb_LightSensor_Power+0x20>
	{
		PORTE |= (1 << 5);
    659e:	1d 9a       	sbi	0x03, 5	; 3
		DDRE  |= (1 << 5);
    65a0:	15 9a       	sbi	0x02, 5	; 2
    65a2:	02 c0       	rjmp	.+4      	; 0x65a8 <mts310cb_LightSensor_Power+0x24>
	}
	else
	{
		PORTE &= ~(1 << 5);
    65a4:	1d 98       	cbi	0x03, 5	; 3
		DDRE  &= ~(1 << 5);
    65a6:	15 98       	cbi	0x02, 5	; 2
	}
}
    65a8:	1f 91       	pop	r17
    65aa:	08 95       	ret

000065ac <mts310cb_LightSensor_GetCounts>:


// This is a ratiometric value, so use Vcc as reference
unsigned int mts310cb_LightSensor_GetCounts()
{
	CheckIfInitDone();
    65ac:	80 91 89 03 	lds	r24, 0x0389
    65b0:	88 23       	and	r24, r24
    65b2:	11 f4       	brne	.+4      	; 0x65b8 <mts310cb_LightSensor_GetCounts+0xc>
    65b4:	0e 94 18 32 	call	0x6430	; 0x6430 <mts310cb_init>
	mts310cb_LightSensor_Power(POWER_ON);
    65b8:	81 e0       	ldi	r24, 0x01	; 1
    65ba:	0e 94 c2 32 	call	0x6584	; 0x6584 <mts310cb_LightSensor_Power>
	return adc_GetChannel(1);
    65be:	81 e0       	ldi	r24, 0x01	; 1
    65c0:	0e 94 c3 30 	call	0x6186	; 0x6186 <adc_GetChannel>
}
    65c4:	08 95       	ret

000065c6 <mts310cb_TemperatureSensor_GetCounts>:


// This is a ratiometric value, so use Vcc as reference
unsigned int mts310cb_TemperatureSensor_GetCounts()
{
	CheckIfInitDone();
    65c6:	80 91 89 03 	lds	r24, 0x0389
    65ca:	88 23       	and	r24, r24
    65cc:	11 f4       	brne	.+4      	; 0x65d2 <mts310cb_TemperatureSensor_GetCounts+0xc>
    65ce:	0e 94 18 32 	call	0x6430	; 0x6430 <mts310cb_init>
	mts310cb_TemperatureSensor_Power(POWER_ON);
    65d2:	81 e0       	ldi	r24, 0x01	; 1
    65d4:	0e 94 ae 32 	call	0x655c	; 0x655c <mts310cb_TemperatureSensor_Power>
	return adc_GetChannel(1);
    65d8:	81 e0       	ldi	r24, 0x01	; 1
    65da:	0e 94 c3 30 	call	0x6186	; 0x6186 <adc_GetChannel>
}
    65de:	08 95       	ret

000065e0 <mts310cb_Magnetometer_Power>:



// Power control line PW5
void mts310cb_Magnetometer_Power(T_Power powerstatus)
{
    65e0:	1f 93       	push	r17
    65e2:	18 2f       	mov	r17, r24
	CheckIfInitDone();
    65e4:	80 91 89 03 	lds	r24, 0x0389
    65e8:	88 23       	and	r24, r24
    65ea:	11 f4       	brne	.+4      	; 0x65f0 <mts310cb_Magnetometer_Power+0x10>
    65ec:	0e 94 18 32 	call	0x6430	; 0x6430 <mts310cb_init>
	if (powerstatus == POWER_ON)	PORTC |=  (1 << 5);
    65f0:	11 30       	cpi	r17, 0x01	; 1
    65f2:	11 f4       	brne	.+4      	; 0x65f8 <mts310cb_Magnetometer_Power+0x18>
    65f4:	ad 9a       	sbi	0x15, 5	; 21
    65f6:	01 c0       	rjmp	.+2      	; 0x65fa <mts310cb_Magnetometer_Power+0x1a>
	else									PORTC &= ~(1 << 5);
    65f8:	ad 98       	cbi	0x15, 5	; 21
}
    65fa:	1f 91       	pop	r17
    65fc:	08 95       	ret

000065fe <mts310cb_Accelerometer_Power>:



// Power control line PW4
void mts310cb_Accelerometer_Power(T_Power powerstatus)
{
    65fe:	1f 93       	push	r17
    6600:	18 2f       	mov	r17, r24
	CheckIfInitDone();
    6602:	80 91 89 03 	lds	r24, 0x0389
    6606:	88 23       	and	r24, r24
    6608:	11 f4       	brne	.+4      	; 0x660e <mts310cb_Accelerometer_Power+0x10>
    660a:	0e 94 18 32 	call	0x6430	; 0x6430 <mts310cb_init>
	if (powerstatus == POWER_ON)	PORTC |=  (1 << 4);
    660e:	11 30       	cpi	r17, 0x01	; 1
    6610:	11 f4       	brne	.+4      	; 0x6616 <mts310cb_Accelerometer_Power+0x18>
    6612:	ac 9a       	sbi	0x15, 4	; 21
    6614:	01 c0       	rjmp	.+2      	; 0x6618 <mts310cb_Accelerometer_Power+0x1a>
	else									PORTC &= ~(1 << 4);
    6616:	ac 98       	cbi	0x15, 4	; 21
}
    6618:	1f 91       	pop	r17
    661a:	08 95       	ret

0000661c <mts310cb_Powersave>:



void mts310cb_Powersave()
{
	CheckIfInitDone();
    661c:	80 91 89 03 	lds	r24, 0x0389
    6620:	88 23       	and	r24, r24
    6622:	11 f4       	brne	.+4      	; 0x6628 <mts310cb_Powersave+0xc>
    6624:	0e 94 18 32 	call	0x6430	; 0x6430 <mts310cb_init>
	adc_Powersave();
    6628:	0e 94 c1 30 	call	0x6182	; 0x6182 <adc_Powersave>
}
    662c:	08 95       	ret

0000662e <Maxim_1Wire_ResetPulse>:
    milliseconds can be achieved.
 */
void
_delay_loop_2(uint16_t __count)
{
	__asm__ volatile (
    662e:	89 e9       	ldi	r24, 0x99	; 153
    6630:	93 e0       	ldi	r25, 0x03	; 3
    6632:	fc 01       	movw	r30, r24
    6634:	31 97       	sbiw	r30, 0x01	; 1
    6636:	f1 f7       	brne	.-4      	; 0x6634 <Maxim_1Wire_ResetPulse+0x6>
// Returns 0 if slave is present, else -1
inline signed char Maxim_1Wire_ResetPulse(void)
{
    unsigned char delaytime = 0;
    _delay_us(500);
    DataPin_DriveLow;
    6638:	dc 98       	cbi	0x1b, 4	; 27
    663a:	d4 9a       	sbi	0x1a, 4	; 26
    663c:	01 97       	sbiw	r24, 0x01	; 1
    663e:	f1 f7       	brne	.-4      	; 0x663c <Maxim_1Wire_ResetPulse+0xe>
    _delay_us(500);   // datasheet value: 480 s
    DataPin_PullUp;
    6640:	d4 98       	cbi	0x1a, 4	; 26
    6642:	dc 9a       	sbi	0x1b, 4	; 27

    // Wait for data line to go high
    while (DataPin_State == 0);
    6644:	cc 9b       	sbis	0x19, 4	; 25
    6646:	fe cf       	rjmp	.-4      	; 0x6644 <Maxim_1Wire_ResetPulse+0x16>
    6648:	90 e0       	ldi	r25, 0x00	; 0
    can be achieved.
*/
void
_delay_loop_1(uint8_t __count)
{
	__asm__ volatile (
    664a:	21 e3       	ldi	r18, 0x31	; 49
    664c:	08 c0       	rjmp	.+16     	; 0x665e <Maxim_1Wire_ResetPulse+0x30>
    664e:	82 2f       	mov	r24, r18
    6650:	8a 95       	dec	r24
    6652:	f1 f7       	brne	.-4      	; 0x6650 <Maxim_1Wire_ResetPulse+0x22>

    // Wait for presence pulse
    while (DataPin_State == 1)
    {
        _delay_us(20);
        delaytime ++;
    6654:	9f 5f       	subi	r25, 0xFF	; 255
        if (delaytime > 30) return -1;  // Timeout 600 s: no presence pulse detected
    6656:	9f 31       	cpi	r25, 0x1F	; 31
    6658:	11 f4       	brne	.+4      	; 0x665e <Maxim_1Wire_ResetPulse+0x30>
    665a:	8f ef       	ldi	r24, 0xFF	; 255
    665c:	08 95       	ret

    // Wait for data line to go high
    while (DataPin_State == 0);

    // Wait for presence pulse
    while (DataPin_State == 1)
    665e:	cc 99       	sbic	0x19, 4	; 25
    6660:	f6 cf       	rjmp	.-20     	; 0x664e <Maxim_1Wire_ResetPulse+0x20>
    milliseconds can be achieved.
 */
void
_delay_loop_2(uint16_t __count)
{
	__asm__ volatile (
    6662:	89 e9       	ldi	r24, 0x99	; 153
    6664:	93 e0       	ldi	r25, 0x03	; 3
    6666:	01 97       	sbiw	r24, 0x01	; 1
    6668:	f1 f7       	brne	.-4      	; 0x6666 <Maxim_1Wire_ResetPulse+0x38>
    666a:	80 e0       	ldi	r24, 0x00	; 0

    // Presence pulse detected, wait until bus is free
    _delay_us(500);   // Datasheet: Trsth

    return 0;
}
    666c:	08 95       	ret

0000666e <Maxim_1Wire_WriteBit>:
// Write will take a 100 s time slot and write one or zero
// Wrtie One will pull low for 10 s
// Write Zero will pull down for 80 s
inline void Maxim_1Wire_WriteBit(unsigned char databit)
{
   if (databit == 0) // Write Zero
    666e:	88 23       	and	r24, r24
    6670:	49 f4       	brne	.+18     	; 0x6684 <Maxim_1Wire_WriteBit+0x16>
   {
      DataPin_DriveLow;
    6672:	dc 98       	cbi	0x1b, 4	; 27
    6674:	d4 9a       	sbi	0x1a, 4	; 26
    can be achieved.
*/
void
_delay_loop_1(uint8_t __count)
{
	__asm__ volatile (
    6676:	84 ec       	ldi	r24, 0xC4	; 196
    6678:	8a 95       	dec	r24
    667a:	f1 f7       	brne	.-4      	; 0x6678 <Maxim_1Wire_WriteBit+0xa>
      _delay_us(80);    //80
      DataPin_PullUp;
    667c:	d4 98       	cbi	0x1a, 4	; 26
    667e:	dc 9a       	sbi	0x1b, 4	; 27
    6680:	81 e3       	ldi	r24, 0x31	; 49
    6682:	08 c0       	rjmp	.+16     	; 0x6694 <Maxim_1Wire_WriteBit+0x26>
      _delay_us(20);    //20
   }
   else              // Write One
   {
      DataPin_DriveLow;
    6684:	dc 98       	cbi	0x1b, 4	; 27
    6686:	d4 9a       	sbi	0x1a, 4	; 26
    6688:	88 e1       	ldi	r24, 0x18	; 24
    668a:	8a 95       	dec	r24
    668c:	f1 f7       	brne	.-4      	; 0x668a <Maxim_1Wire_WriteBit+0x1c>
      _delay_us(10);    //10
      DataPin_PullUp;
    668e:	d4 98       	cbi	0x1a, 4	; 26
    6690:	dc 9a       	sbi	0x1b, 4	; 27
    6692:	8d ed       	ldi	r24, 0xDD	; 221
    6694:	8a 95       	dec	r24
    6696:	f1 f7       	brne	.-4      	; 0x6694 <Maxim_1Wire_WriteBit+0x26>
    6698:	08 95       	ret

0000669a <Maxim_1Wire_ReadBit>:
// Reads a bit
inline unsigned char Maxim_1Wire_ReadBit(void)
{
   unsigned char bit;

   DataPin_DriveLow;
    669a:	dc 98       	cbi	0x1b, 4	; 27
    669c:	d4 9a       	sbi	0x1a, 4	; 26
    669e:	82 e0       	ldi	r24, 0x02	; 2
    66a0:	8a 95       	dec	r24
    66a2:	f1 f7       	brne	.-4      	; 0x66a0 <Maxim_1Wire_ReadBit+0x6>
   _delay_us(1);    //1
   DataPin_PullUp;
    66a4:	d4 98       	cbi	0x1a, 4	; 26
    66a6:	dc 9a       	sbi	0x1b, 4	; 27
    66a8:	86 e1       	ldi	r24, 0x16	; 22
    66aa:	8a 95       	dec	r24
    66ac:	f1 f7       	brne	.-4      	; 0x66aa <Maxim_1Wire_ReadBit+0x10>
   _delay_us(9);   //9
   bit = DataPin_State;
    66ae:	89 b3       	in	r24, 0x19	; 25
    66b0:	94 ec       	ldi	r25, 0xC4	; 196
    66b2:	9a 95       	dec	r25
    66b4:	f1 f7       	brne	.-4      	; 0x66b2 <Maxim_1Wire_ReadBit+0x18>
    66b6:	90 e0       	ldi	r25, 0x00	; 0
    66b8:	80 71       	andi	r24, 0x10	; 16
    66ba:	90 70       	andi	r25, 0x00	; 0
    66bc:	24 e0       	ldi	r18, 0x04	; 4
    66be:	95 95       	asr	r25
    66c0:	87 95       	ror	r24
    66c2:	2a 95       	dec	r18
    66c4:	e1 f7       	brne	.-8      	; 0x66be <Maxim_1Wire_ReadBit+0x24>
   _delay_us(80);   //80

   return bit;
}
    66c6:	08 95       	ret

000066c8 <Maxim_1Wire_WriteByte>:


inline void Maxim_1Wire_WriteByte(unsigned char data)
{
    66c8:	ff 92       	push	r15
    66ca:	0f 93       	push	r16
    66cc:	1f 93       	push	r17
    66ce:	cf 93       	push	r28
    66d0:	df 93       	push	r29
    66d2:	f8 2e       	mov	r15, r24
    66d4:	c0 e0       	ldi	r28, 0x00	; 0
    66d6:	d0 e0       	ldi	r29, 0x00	; 0
   // Data order is lsb first
   unsigned char currentBit;

   for (currentBit = 0; currentBit < 8; currentBit++)
   {
      Maxim_1Wire_WriteBit(data & (1 << currentBit));
    66d8:	01 e0       	ldi	r16, 0x01	; 1
    66da:	10 e0       	ldi	r17, 0x00	; 0
    66dc:	c8 01       	movw	r24, r16
    66de:	0c 2e       	mov	r0, r28
    66e0:	02 c0       	rjmp	.+4      	; 0x66e6 <Maxim_1Wire_WriteByte+0x1e>
    66e2:	88 0f       	add	r24, r24
    66e4:	99 1f       	adc	r25, r25
    66e6:	0a 94       	dec	r0
    66e8:	e2 f7       	brpl	.-8      	; 0x66e2 <Maxim_1Wire_WriteByte+0x1a>
    66ea:	8f 21       	and	r24, r15
    66ec:	0e 94 37 33 	call	0x666e	; 0x666e <Maxim_1Wire_WriteBit>
    66f0:	21 96       	adiw	r28, 0x01	; 1
inline void Maxim_1Wire_WriteByte(unsigned char data)
{
   // Data order is lsb first
   unsigned char currentBit;

   for (currentBit = 0; currentBit < 8; currentBit++)
    66f2:	c8 30       	cpi	r28, 0x08	; 8
    66f4:	d1 05       	cpc	r29, r1
    66f6:	91 f7       	brne	.-28     	; 0x66dc <Maxim_1Wire_WriteByte+0x14>
   {
      Maxim_1Wire_WriteBit(data & (1 << currentBit));
   }
}
    66f8:	df 91       	pop	r29
    66fa:	cf 91       	pop	r28
    66fc:	1f 91       	pop	r17
    66fe:	0f 91       	pop	r16
    6700:	ff 90       	pop	r15
    6702:	08 95       	ret

00006704 <Maxim_1Wire_ReadByte>:


inline unsigned char Maxim_1Wire_ReadByte(void)
{
    6704:	1f 93       	push	r17
    6706:	cf 93       	push	r28
    6708:	df 93       	push	r29
    670a:	10 e0       	ldi	r17, 0x00	; 0
    670c:	c0 e0       	ldi	r28, 0x00	; 0
    670e:	d0 e0       	ldi	r29, 0x00	; 0
   unsigned char data = 0;
   unsigned char currentBit;

   for (currentBit = 0; currentBit < 8; currentBit++)
   {
      data |= (Maxim_1Wire_ReadBit() << currentBit);
    6710:	0e 94 4d 33 	call	0x669a	; 0x669a <Maxim_1Wire_ReadBit>
    6714:	90 e0       	ldi	r25, 0x00	; 0
    6716:	0c 2e       	mov	r0, r28
    6718:	02 c0       	rjmp	.+4      	; 0x671e <Maxim_1Wire_ReadByte+0x1a>
    671a:	88 0f       	add	r24, r24
    671c:	99 1f       	adc	r25, r25
    671e:	0a 94       	dec	r0
    6720:	e2 f7       	brpl	.-8      	; 0x671a <Maxim_1Wire_ReadByte+0x16>
    6722:	18 2b       	or	r17, r24
    6724:	21 96       	adiw	r28, 0x01	; 1
{
   // Data order is lsb first
   unsigned char data = 0;
   unsigned char currentBit;

   for (currentBit = 0; currentBit < 8; currentBit++)
    6726:	c8 30       	cpi	r28, 0x08	; 8
    6728:	d1 05       	cpc	r29, r1
    672a:	91 f7       	brne	.-28     	; 0x6710 <Maxim_1Wire_ReadByte+0xc>
   {
      data |= (Maxim_1Wire_ReadBit() << currentBit);
   }

   return data;
}
    672c:	81 2f       	mov	r24, r17
    672e:	df 91       	pop	r29
    6730:	cf 91       	pop	r28
    6732:	1f 91       	pop	r17
    6734:	08 95       	ret

00006736 <Maxim_1Wire_CommandReadRom>:



inline void Maxim_1Wire_CommandReadRom(void)
{
   Maxim_1Wire_WriteByte(0x0f);
    6736:	8f e0       	ldi	r24, 0x0F	; 15
    6738:	0e 94 64 33 	call	0x66c8	; 0x66c8 <Maxim_1Wire_WriteByte>
}
    673c:	08 95       	ret

0000673e <DS2401_init>:



inline void DS2401_init(void)
{
    SFIOR &= ~(1 << PUD);
    673e:	80 b5       	in	r24, 0x20	; 32
    6740:	8b 7f       	andi	r24, 0xFB	; 251
    6742:	80 bd       	out	0x20, r24	; 32
    DataPin_PullUp;
    6744:	d4 98       	cbi	0x1a, 4	; 26
    6746:	dc 9a       	sbi	0x1b, 4	; 27
    6748:	85 ef       	ldi	r24, 0xF5	; 245
    674a:	8a 95       	dec	r24
    674c:	f1 f7       	brne	.-4      	; 0x674a <DS2401_init+0xc>
    _delay_us(100);   // One time slot for powerup
}
    674e:	08 95       	ret

00006750 <DS2401_getSerialNumber>:


// Reads the 32 bit world wide unique serial number
// valid is set to 0 in case of success, -2 in case of family code mismatch, -1 in case of CRC error (tdb)
inline uint32_t DS2401_getSerialNumber(int8_t *valid) {
    6750:	ef 92       	push	r14
    6752:	ff 92       	push	r15
    6754:	0f 93       	push	r16
    6756:	1f 93       	push	r17
    6758:	df 93       	push	r29
    675a:	cf 93       	push	r28
    675c:	00 d0       	rcall	.+0      	; 0x675e <DS2401_getSerialNumber+0xe>
    675e:	00 d0       	rcall	.+0      	; 0x6760 <DS2401_getSerialNumber+0x10>
    6760:	cd b7       	in	r28, 0x3d	; 61
    6762:	de b7       	in	r29, 0x3e	; 62
    6764:	7c 01       	movw	r14, r24
    uint32_t serialNumber = 0;
    6766:	19 82       	std	Y+1, r1	; 0x01
    6768:	1a 82       	std	Y+2, r1	; 0x02
    676a:	1b 82       	std	Y+3, r1	; 0x03
    676c:	1c 82       	std	Y+4, r1	; 0x04
    uint8_t byte;
    signed char returnVal;
    returnVal = Maxim_1Wire_ResetPulse();
    676e:	0e 94 17 33 	call	0x662e	; 0x662e <Maxim_1Wire_ResetPulse>
    if (returnVal != 0) return returnVal;
    6772:	88 23       	and	r24, r24
    6774:	39 f0       	breq	.+14     	; 0x6784 <DS2401_getSerialNumber+0x34>
    6776:	28 2f       	mov	r18, r24
    6778:	33 27       	eor	r19, r19
    677a:	27 fd       	sbrc	r18, 7
    677c:	30 95       	com	r19
    677e:	43 2f       	mov	r20, r19
    6780:	53 2f       	mov	r21, r19
    6782:	27 c0       	rjmp	.+78     	; 0x67d2 <DS2401_getSerialNumber+0x82>
    Maxim_1Wire_CommandReadRom();
    6784:	0e 94 9b 33 	call	0x6736	; 0x6736 <Maxim_1Wire_CommandReadRom>
    if (Maxim_1Wire_ReadByte() != 0x01) *valid = -2;      //  Read device code
    6788:	0e 94 82 33 	call	0x6704	; 0x6704 <Maxim_1Wire_ReadByte>
    678c:	81 30       	cpi	r24, 0x01	; 1
    678e:	19 f0       	breq	.+6      	; 0x6796 <DS2401_getSerialNumber+0x46>
    6790:	8e ef       	ldi	r24, 0xFE	; 254
    6792:	f7 01       	movw	r30, r14
    6794:	80 83       	st	Z, r24

    *(uint8_t*)&serialNumber = Maxim_1Wire_ReadByte();          //  Read ID Byte 0 - last significant
    6796:	8e 01       	movw	r16, r28
    6798:	0f 5f       	subi	r16, 0xFF	; 255
    679a:	1f 4f       	sbci	r17, 0xFF	; 255
    679c:	0e 94 82 33 	call	0x6704	; 0x6704 <Maxim_1Wire_ReadByte>
    67a0:	89 83       	std	Y+1, r24	; 0x01

    *((uint8_t*)&serialNumber + 1) = Maxim_1Wire_ReadByte();    //  Read ID Byte 1
    67a2:	0e 94 82 33 	call	0x6704	; 0x6704 <Maxim_1Wire_ReadByte>
    67a6:	f8 01       	movw	r30, r16
    67a8:	81 83       	std	Z+1, r24	; 0x01

    *((uint8_t*)&serialNumber + 2) = Maxim_1Wire_ReadByte();    //  Read ID Byte 2
    67aa:	0e 94 82 33 	call	0x6704	; 0x6704 <Maxim_1Wire_ReadByte>
    67ae:	f8 01       	movw	r30, r16
    67b0:	82 83       	std	Z+2, r24	; 0x02

    *((uint8_t*)&serialNumber + 3) = Maxim_1Wire_ReadByte();    //  Read ID Byte 3
    67b2:	0e 94 82 33 	call	0x6704	; 0x6704 <Maxim_1Wire_ReadByte>
    67b6:	f8 01       	movw	r30, r16
    67b8:	83 83       	std	Z+3, r24	; 0x03

    Maxim_1Wire_ReadByte();                                     //  Read ID Byte 4 = 0
    67ba:	0e 94 82 33 	call	0x6704	; 0x6704 <Maxim_1Wire_ReadByte>
    Maxim_1Wire_ReadByte();                                     //  Read ID Byte 5 = 0 - most significant
    67be:	0e 94 82 33 	call	0x6704	; 0x6704 <Maxim_1Wire_ReadByte>
    Maxim_1Wire_ReadByte();                                     //  Read CRC, tbd.
    67c2:	0e 94 82 33 	call	0x6704	; 0x6704 <Maxim_1Wire_ReadByte>
    *valid = 0;
    67c6:	f7 01       	movw	r30, r14
    67c8:	10 82       	st	Z, r1
    return serialNumber;
    67ca:	29 81       	ldd	r18, Y+1	; 0x01
    67cc:	3a 81       	ldd	r19, Y+2	; 0x02
    67ce:	4b 81       	ldd	r20, Y+3	; 0x03
    67d0:	5c 81       	ldd	r21, Y+4	; 0x04
}
    67d2:	b9 01       	movw	r22, r18
    67d4:	ca 01       	movw	r24, r20
    67d6:	0f 90       	pop	r0
    67d8:	0f 90       	pop	r0
    67da:	0f 90       	pop	r0
    67dc:	0f 90       	pop	r0
    67de:	cf 91       	pop	r28
    67e0:	df 91       	pop	r29
    67e2:	1f 91       	pop	r17
    67e4:	0f 91       	pop	r16
    67e6:	ff 90       	pop	r15
    67e8:	ef 90       	pop	r14
    67ea:	08 95       	ret

000067ec <DOGM128_6_usart1_sendByte>:
	garb = UDR1;
	DisCShigh;
*/


	DisCSlow;
    67ec:	aa 98       	cbi	0x15, 2	; 21
	DisSCLlow;
    67ee:	95 98       	cbi	0x12, 5	; 18
	if (ch & 0x80) DisSOhigh; else DisSOlow;
    67f0:	87 ff       	sbrs	r24, 7
    67f2:	02 c0       	rjmp	.+4      	; 0x67f8 <DOGM128_6_usart1_sendByte+0xc>
    67f4:	93 9a       	sbi	0x12, 3	; 18
    67f6:	01 c0       	rjmp	.+2      	; 0x67fa <DOGM128_6_usart1_sendByte+0xe>
    67f8:	93 98       	cbi	0x12, 3	; 18
	DisSCLhigh;
    67fa:	95 9a       	sbi	0x12, 5	; 18
	DisSCLlow;
    67fc:	95 98       	cbi	0x12, 5	; 18
	if (ch & 0x40) DisSOhigh; else DisSOlow;
    67fe:	86 ff       	sbrs	r24, 6
    6800:	02 c0       	rjmp	.+4      	; 0x6806 <DOGM128_6_usart1_sendByte+0x1a>
    6802:	93 9a       	sbi	0x12, 3	; 18
    6804:	01 c0       	rjmp	.+2      	; 0x6808 <DOGM128_6_usart1_sendByte+0x1c>
    6806:	93 98       	cbi	0x12, 3	; 18
	DisSCLhigh;
    6808:	95 9a       	sbi	0x12, 5	; 18
	DisSCLlow;
    680a:	95 98       	cbi	0x12, 5	; 18
	if (ch & 0x20) DisSOhigh; else DisSOlow;
    680c:	85 ff       	sbrs	r24, 5
    680e:	02 c0       	rjmp	.+4      	; 0x6814 <DOGM128_6_usart1_sendByte+0x28>
    6810:	93 9a       	sbi	0x12, 3	; 18
    6812:	01 c0       	rjmp	.+2      	; 0x6816 <DOGM128_6_usart1_sendByte+0x2a>
    6814:	93 98       	cbi	0x12, 3	; 18
	DisSCLhigh;
    6816:	95 9a       	sbi	0x12, 5	; 18
	DisSCLlow;
    6818:	95 98       	cbi	0x12, 5	; 18
	if (ch & 0x10) DisSOhigh; else DisSOlow;
    681a:	84 ff       	sbrs	r24, 4
    681c:	02 c0       	rjmp	.+4      	; 0x6822 <DOGM128_6_usart1_sendByte+0x36>
    681e:	93 9a       	sbi	0x12, 3	; 18
    6820:	01 c0       	rjmp	.+2      	; 0x6824 <DOGM128_6_usart1_sendByte+0x38>
    6822:	93 98       	cbi	0x12, 3	; 18
	DisSCLhigh;
    6824:	95 9a       	sbi	0x12, 5	; 18
	DisSCLlow;
    6826:	95 98       	cbi	0x12, 5	; 18
	if (ch & 0x08) DisSOhigh; else DisSOlow;
    6828:	83 ff       	sbrs	r24, 3
    682a:	02 c0       	rjmp	.+4      	; 0x6830 <DOGM128_6_usart1_sendByte+0x44>
    682c:	93 9a       	sbi	0x12, 3	; 18
    682e:	01 c0       	rjmp	.+2      	; 0x6832 <DOGM128_6_usart1_sendByte+0x46>
    6830:	93 98       	cbi	0x12, 3	; 18
	DisSCLhigh;
    6832:	95 9a       	sbi	0x12, 5	; 18
	DisSCLlow;
    6834:	95 98       	cbi	0x12, 5	; 18
	if (ch & 0x04) DisSOhigh; else DisSOlow;
    6836:	82 ff       	sbrs	r24, 2
    6838:	02 c0       	rjmp	.+4      	; 0x683e <DOGM128_6_usart1_sendByte+0x52>
    683a:	93 9a       	sbi	0x12, 3	; 18
    683c:	01 c0       	rjmp	.+2      	; 0x6840 <DOGM128_6_usart1_sendByte+0x54>
    683e:	93 98       	cbi	0x12, 3	; 18
	DisSCLhigh;
    6840:	95 9a       	sbi	0x12, 5	; 18
	DisSCLlow;
    6842:	95 98       	cbi	0x12, 5	; 18
	if (ch & 0x02) DisSOhigh; else DisSOlow;
    6844:	81 ff       	sbrs	r24, 1
    6846:	02 c0       	rjmp	.+4      	; 0x684c <DOGM128_6_usart1_sendByte+0x60>
    6848:	93 9a       	sbi	0x12, 3	; 18
    684a:	01 c0       	rjmp	.+2      	; 0x684e <DOGM128_6_usart1_sendByte+0x62>
    684c:	93 98       	cbi	0x12, 3	; 18
	DisSCLhigh;
    684e:	95 9a       	sbi	0x12, 5	; 18
	DisSCLlow;
    6850:	95 98       	cbi	0x12, 5	; 18
	if (ch & 0x01) DisSOhigh; else DisSOlow;
    6852:	80 ff       	sbrs	r24, 0
    6854:	02 c0       	rjmp	.+4      	; 0x685a <DOGM128_6_usart1_sendByte+0x6e>
    6856:	93 9a       	sbi	0x12, 3	; 18
    6858:	01 c0       	rjmp	.+2      	; 0x685c <DOGM128_6_usart1_sendByte+0x70>
    685a:	93 98       	cbi	0x12, 3	; 18
	DisSCLhigh;
    685c:	95 9a       	sbi	0x12, 5	; 18
	DisSCLhigh;	//short delay (repeating the last command)
    685e:	95 9a       	sbi	0x12, 5	; 18

	DisCShigh;
    6860:	aa 9a       	sbi	0x15, 2	; 21
}
    6862:	08 95       	ret

00006864 <DOGM128_6_clear_display>:



void DOGM128_6_clear_display(void)
{
    6864:	df 93       	push	r29
    6866:	cf 93       	push	r28
    6868:	00 d0       	rcall	.+0      	; 0x686a <DOGM128_6_clear_display+0x6>
    686a:	0f 92       	push	r0
    686c:	cd b7       	in	r28, 0x3d	; 61
    686e:	de b7       	in	r29, 0x3e	; 62
  volatile int i;
  volatile char j;

  DisA0high;
    6870:	a8 9a       	sbi	0x15, 0	; 21

  for(j=0; j<8; j++)
    6872:	19 82       	std	Y+1, r1	; 0x01
    6874:	1f c0       	rjmp	.+62     	; 0x68b4 <DOGM128_6_clear_display+0x50>
  {
	DisA0low;
    6876:	a8 98       	cbi	0x15, 0	; 21
    DOGM128_6_usart1_sendByte(0xB0 + j);						//Set Page Address
    6878:	89 81       	ldd	r24, Y+1	; 0x01
    687a:	80 55       	subi	r24, 0x50	; 80
    687c:	0e 94 f6 33 	call	0x67ec	; 0x67ec <DOGM128_6_usart1_sendByte>
    DOGM128_6_usart1_sendByte(0x10);							//Set Column Address upper nibble to 0
    6880:	80 e1       	ldi	r24, 0x10	; 16
    6882:	0e 94 f6 33 	call	0x67ec	; 0x67ec <DOGM128_6_usart1_sendByte>
    DOGM128_6_usart1_sendByte(0x00);							//Set Column Address lower nibble to 0
    6886:	80 e0       	ldi	r24, 0x00	; 0
    6888:	0e 94 f6 33 	call	0x67ec	; 0x67ec <DOGM128_6_usart1_sendByte>
    DisA0high;
    688c:	a8 9a       	sbi	0x15, 0	; 21

    for(i=0; i<128; i++)
    688e:	1b 82       	std	Y+3, r1	; 0x03
    6890:	1a 82       	std	Y+2, r1	; 0x02
    6892:	08 c0       	rjmp	.+16     	; 0x68a4 <DOGM128_6_clear_display+0x40>
    {
      DOGM128_6_usart1_sendByte(0x00);							//Write white bytes to the display
    6894:	80 e0       	ldi	r24, 0x00	; 0
    6896:	0e 94 f6 33 	call	0x67ec	; 0x67ec <DOGM128_6_usart1_sendByte>
    DOGM128_6_usart1_sendByte(0xB0 + j);						//Set Page Address
    DOGM128_6_usart1_sendByte(0x10);							//Set Column Address upper nibble to 0
    DOGM128_6_usart1_sendByte(0x00);							//Set Column Address lower nibble to 0
    DisA0high;

    for(i=0; i<128; i++)
    689a:	8a 81       	ldd	r24, Y+2	; 0x02
    689c:	9b 81       	ldd	r25, Y+3	; 0x03
    689e:	01 96       	adiw	r24, 0x01	; 1
    68a0:	9b 83       	std	Y+3, r25	; 0x03
    68a2:	8a 83       	std	Y+2, r24	; 0x02
    68a4:	8a 81       	ldd	r24, Y+2	; 0x02
    68a6:	9b 81       	ldd	r25, Y+3	; 0x03
    68a8:	80 38       	cpi	r24, 0x80	; 128
    68aa:	91 05       	cpc	r25, r1
    68ac:	9c f3       	brlt	.-26     	; 0x6894 <DOGM128_6_clear_display+0x30>
  volatile int i;
  volatile char j;

  DisA0high;

  for(j=0; j<8; j++)
    68ae:	89 81       	ldd	r24, Y+1	; 0x01
    68b0:	8f 5f       	subi	r24, 0xFF	; 255
    68b2:	89 83       	std	Y+1, r24	; 0x01
    68b4:	89 81       	ldd	r24, Y+1	; 0x01
    68b6:	88 30       	cpi	r24, 0x08	; 8
    68b8:	f0 f2       	brcs	.-68     	; 0x6876 <DOGM128_6_clear_display+0x12>
    for(i=0; i<128; i++)
    {
      DOGM128_6_usart1_sendByte(0x00);							//Write white bytes to the display
    }
  }
}
    68ba:	0f 90       	pop	r0
    68bc:	0f 90       	pop	r0
    68be:	0f 90       	pop	r0
    68c0:	cf 91       	pop	r28
    68c2:	df 91       	pop	r29
    68c4:	08 95       	ret

000068c6 <DOGM128_6_display_init>:


void DOGM128_6_display_init(void)
{

  	PORTB &= b11101111;		//LED backlight at Port B4
    68c6:	c4 98       	cbi	0x18, 4	; 24
  	DDRB  |= b00010000;
    68c8:	bc 9a       	sbi	0x17, 4	; 23

  	PORTC |= b00000111;		//A0, Chip select and Reset at Port C0..C2
    68ca:	85 b3       	in	r24, 0x15	; 21
    68cc:	87 60       	ori	r24, 0x07	; 7
    68ce:	85 bb       	out	0x15, r24	; 21
  	DDRC  |= b00000111;
    68d0:	84 b3       	in	r24, 0x14	; 20
    68d2:	87 60       	ori	r24, 0x07	; 7
    68d4:	84 bb       	out	0x14, r24	; 20

  	DDRD  |= b00101000;		//PD5 is XCK output, PD3 is serial data output
    68d6:	81 b3       	in	r24, 0x11	; 17
    68d8:	88 62       	ori	r24, 0x28	; 40
    68da:	81 bb       	out	0x11, r24	; 17
  	PORTD |= b00001000;
    68dc:	93 9a       	sbi	0x12, 3	; 18

	PORTC = b01111000;		//enable pullups for push-buttons
    68de:	88 e7       	ldi	r24, 0x78	; 120
    68e0:	85 bb       	out	0x15, r24	; 21
	DDRC &= b10000111;		//pins to push-buttons are inputs
    68e2:	84 b3       	in	r24, 0x14	; 20
    68e4:	87 78       	andi	r24, 0x87	; 135
    68e6:	84 bb       	out	0x14, r24	; 20

//usart doesn't work, so we use an SPI in software
//	usart1_init();

  	DisA0low;
    68e8:	a8 98       	cbi	0x15, 0	; 21

  	DisRESETlow;
    68ea:	a9 98       	cbi	0x15, 1	; 21
    68ec:	88 ee       	ldi	r24, 0xE8	; 232
    68ee:	93 e0       	ldi	r25, 0x03	; 3
    milliseconds can be achieved.
 */
void
_delay_loop_2(uint16_t __count)
{
	__asm__ volatile (
    68f0:	28 eb       	ldi	r18, 0xB8	; 184
    68f2:	30 e0       	ldi	r19, 0x00	; 0
    68f4:	f9 01       	movw	r30, r18
    68f6:	31 97       	sbiw	r30, 0x01	; 1
    68f8:	f1 f7       	brne	.-4      	; 0x68f6 <DOGM128_6_display_init+0x30>
		__ticks = (uint16_t) (__ms * 10.0);
		while(__ticks)
		{
			// wait 1/10 ms
			_delay_loop_2(((F_CPU) / 4e3) / 10);
			__ticks --;
    68fa:	01 97       	sbiw	r24, 0x01	; 1
		__ticks = 1;
	else if (__tmp > 65535)
	{
		//	__ticks = requested delay in 1/10 ms
		__ticks = (uint16_t) (__ms * 10.0);
		while(__ticks)
    68fc:	d9 f7       	brne	.-10     	; 0x68f4 <DOGM128_6_display_init+0x2e>
  	_delay_ms(100);
  	DisRESEThigh;
    68fe:	a9 9a       	sbi	0x15, 1	; 21
    6900:	88 ee       	ldi	r24, 0xE8	; 232
    6902:	93 e0       	ldi	r25, 0x03	; 3
    6904:	28 eb       	ldi	r18, 0xB8	; 184
    6906:	30 e0       	ldi	r19, 0x00	; 0
    6908:	f9 01       	movw	r30, r18
    690a:	31 97       	sbiw	r30, 0x01	; 1
    690c:	f1 f7       	brne	.-4      	; 0x690a <DOGM128_6_display_init+0x44>
		{
			// wait 1/10 ms
			_delay_loop_2(((F_CPU) / 4e3) / 10);
			__ticks --;
    690e:	01 97       	sbiw	r24, 0x01	; 1
		__ticks = 1;
	else if (__tmp > 65535)
	{
		//	__ticks = requested delay in 1/10 ms
		__ticks = (uint16_t) (__ms * 10.0);
		while(__ticks)
    6910:	d9 f7       	brne	.-10     	; 0x6908 <DOGM128_6_display_init+0x42>
  	_delay_ms(100);

  	DOGM128_6_usart1_sendByte (0x40);
    6912:	80 e4       	ldi	r24, 0x40	; 64
    6914:	0e 94 f6 33 	call	0x67ec	; 0x67ec <DOGM128_6_usart1_sendByte>
  	DOGM128_6_usart1_sendByte (0xA1);
    6918:	81 ea       	ldi	r24, 0xA1	; 161
    691a:	0e 94 f6 33 	call	0x67ec	; 0x67ec <DOGM128_6_usart1_sendByte>
  	DOGM128_6_usart1_sendByte (0xC0);
    691e:	80 ec       	ldi	r24, 0xC0	; 192
    6920:	0e 94 f6 33 	call	0x67ec	; 0x67ec <DOGM128_6_usart1_sendByte>
  	DOGM128_6_usart1_sendByte (0xA6);
    6924:	86 ea       	ldi	r24, 0xA6	; 166
    6926:	0e 94 f6 33 	call	0x67ec	; 0x67ec <DOGM128_6_usart1_sendByte>
  	DOGM128_6_usart1_sendByte (0xA2);
    692a:	82 ea       	ldi	r24, 0xA2	; 162
    692c:	0e 94 f6 33 	call	0x67ec	; 0x67ec <DOGM128_6_usart1_sendByte>
  	DOGM128_6_usart1_sendByte (0x2F);
    6930:	8f e2       	ldi	r24, 0x2F	; 47
    6932:	0e 94 f6 33 	call	0x67ec	; 0x67ec <DOGM128_6_usart1_sendByte>
	DOGM128_6_usart1_sendByte (0xF8);
    6936:	88 ef       	ldi	r24, 0xF8	; 248
    6938:	0e 94 f6 33 	call	0x67ec	; 0x67ec <DOGM128_6_usart1_sendByte>
	DOGM128_6_usart1_sendByte (0x00);
    693c:	80 e0       	ldi	r24, 0x00	; 0
    693e:	0e 94 f6 33 	call	0x67ec	; 0x67ec <DOGM128_6_usart1_sendByte>
	DOGM128_6_usart1_sendByte (0x27);
    6942:	87 e2       	ldi	r24, 0x27	; 39
    6944:	0e 94 f6 33 	call	0x67ec	; 0x67ec <DOGM128_6_usart1_sendByte>
	DOGM128_6_usart1_sendByte (0x81);							//Display contrast
    6948:	81 e8       	ldi	r24, 0x81	; 129
    694a:	0e 94 f6 33 	call	0x67ec	; 0x67ec <DOGM128_6_usart1_sendByte>
	DOGM128_6_usart1_sendByte (0x10);//was 16
    694e:	80 e1       	ldi	r24, 0x10	; 16
    6950:	0e 94 f6 33 	call	0x67ec	; 0x67ec <DOGM128_6_usart1_sendByte>
	DOGM128_6_usart1_sendByte (0xAC);
    6954:	8c ea       	ldi	r24, 0xAC	; 172
    6956:	0e 94 f6 33 	call	0x67ec	; 0x67ec <DOGM128_6_usart1_sendByte>
	DOGM128_6_usart1_sendByte (0x00);
    695a:	80 e0       	ldi	r24, 0x00	; 0
    695c:	0e 94 f6 33 	call	0x67ec	; 0x67ec <DOGM128_6_usart1_sendByte>
	DOGM128_6_usart1_sendByte (0xAF);
    6960:	8f ea       	ldi	r24, 0xAF	; 175
    6962:	0e 94 f6 33 	call	0x67ec	; 0x67ec <DOGM128_6_usart1_sendByte>

	DOGM128_6_clear_display();
    6966:	0e 94 32 34 	call	0x6864	; 0x6864 <DOGM128_6_clear_display>
}
    696a:	08 95       	ret

0000696c <DOGM128_6_display_backlight>:



void DOGM128_6_display_backlight(type_ON_OFF backlight)
{
	if (backlight == ON) DisBLIGHTon;
    696c:	81 30       	cpi	r24, 0x01	; 1
    696e:	11 f4       	brne	.+4      	; 0x6974 <DOGM128_6_display_backlight+0x8>
    6970:	c4 9a       	sbi	0x18, 4	; 24
    6972:	08 95       	ret
	else DisBLIGHToff;
    6974:	c4 98       	cbi	0x18, 4	; 24
    6976:	08 95       	ret

00006978 <DOGM128_6_LCD_print>:
}



void DOGM128_6_LCD_print(char text[], unsigned char x, unsigned char y)
{
    6978:	ff 92       	push	r15
    697a:	0f 93       	push	r16
    697c:	1f 93       	push	r17
    697e:	cf 93       	push	r28
    6980:	df 93       	push	r29
    6982:	08 2f       	mov	r16, r24
    6984:	f9 2e       	mov	r15, r25
    6986:	16 2f       	mov	r17, r22
    6988:	84 2f       	mov	r24, r20
	int charnumber = 0, pixelcolumn;

	DisA0low;
    698a:	a8 98       	cbi	0x15, 0	; 21

	DOGM128_6_usart1_sendByte (0xB0 + y);					//Set Page Address
    698c:	80 55       	subi	r24, 0x50	; 80
    698e:	0e 94 f6 33 	call	0x67ec	; 0x67ec <DOGM128_6_usart1_sendByte>
	DOGM128_6_usart1_sendByte (0x10 | (x >> 4));		//Set Column Address upper nibble to 0
    6992:	81 2f       	mov	r24, r17
    6994:	82 95       	swap	r24
    6996:	8f 70       	andi	r24, 0x0F	; 15
    6998:	80 61       	ori	r24, 0x10	; 16
    699a:	0e 94 f6 33 	call	0x67ec	; 0x67ec <DOGM128_6_usart1_sendByte>
	DOGM128_6_usart1_sendByte (x & 0x0F);					//Set Column Address lower nibble to 0
    699e:	81 2f       	mov	r24, r17
    69a0:	8f 70       	andi	r24, 0x0F	; 15
    69a2:	0e 94 f6 33 	call	0x67ec	; 0x67ec <DOGM128_6_usart1_sendByte>

	DisA0high;
    69a6:	a8 9a       	sbi	0x15, 0	; 21
    69a8:	20 2f       	mov	r18, r16
    69aa:	3f 2d       	mov	r19, r15
    69ac:	c9 01       	movw	r24, r18
    69ae:	ec 01       	movw	r28, r24

  	while (text[charnumber])
  	{
    	for (pixelcolumn = 0; pixelcolumn < 5 ; pixelcolumn++)
	  	{
      		DOGM128_6_usart1_sendByte ( pgm_read_byte(&(font5x7 [(unsigned char)text[charnumber]] [pixelcolumn] )) );	//Write to the display
    69b0:	85 e0       	ldi	r24, 0x05	; 5
    69b2:	f8 2e       	mov	r15, r24
    69b4:	17 c0       	rjmp	.+46     	; 0x69e4 <DOGM128_6_LCD_print+0x6c>
	DOGM128_6_usart1_sendByte (0x10 | (x >> 4));		//Set Column Address upper nibble to 0
	DOGM128_6_usart1_sendByte (x & 0x0F);					//Set Column Address lower nibble to 0

	DisA0high;

  	while (text[charnumber])
    69b6:	00 e0       	ldi	r16, 0x00	; 0
    69b8:	10 e0       	ldi	r17, 0x00	; 0
  	{
    	for (pixelcolumn = 0; pixelcolumn < 5 ; pixelcolumn++)
	  	{
      		DOGM128_6_usart1_sendByte ( pgm_read_byte(&(font5x7 [(unsigned char)text[charnumber]] [pixelcolumn] )) );	//Write to the display
    69ba:	e8 81       	ld	r30, Y
    69bc:	ef 9d       	mul	r30, r15
    69be:	f0 01       	movw	r30, r0
    69c0:	11 24       	eor	r1, r1
    69c2:	e0 0f       	add	r30, r16
    69c4:	f1 1f       	adc	r31, r17
    69c6:	e3 59       	subi	r30, 0x93	; 147
    69c8:	fb 4f       	sbci	r31, 0xFB	; 251
    69ca:	e4 91       	lpm	r30, Z+
    69cc:	8e 2f       	mov	r24, r30
    69ce:	0e 94 f6 33 	call	0x67ec	; 0x67ec <DOGM128_6_usart1_sendByte>

	DisA0high;

  	while (text[charnumber])
  	{
    	for (pixelcolumn = 0; pixelcolumn < 5 ; pixelcolumn++)
    69d2:	0f 5f       	subi	r16, 0xFF	; 255
    69d4:	1f 4f       	sbci	r17, 0xFF	; 255
    69d6:	05 30       	cpi	r16, 0x05	; 5
    69d8:	11 05       	cpc	r17, r1
    69da:	79 f7       	brne	.-34     	; 0x69ba <DOGM128_6_LCD_print+0x42>
	  	{
      		DOGM128_6_usart1_sendByte ( pgm_read_byte(&(font5x7 [(unsigned char)text[charnumber]] [pixelcolumn] )) );	//Write to the display
	  	}
    	DOGM128_6_usart1_sendByte (0x00);														//Write white space pixels between chars to the display
    69dc:	80 e0       	ldi	r24, 0x00	; 0
    69de:	0e 94 f6 33 	call	0x67ec	; 0x67ec <DOGM128_6_usart1_sendByte>
    69e2:	21 96       	adiw	r28, 0x01	; 1
	DOGM128_6_usart1_sendByte (0x10 | (x >> 4));		//Set Column Address upper nibble to 0
	DOGM128_6_usart1_sendByte (x & 0x0F);					//Set Column Address lower nibble to 0

	DisA0high;

  	while (text[charnumber])
    69e4:	88 81       	ld	r24, Y
    69e6:	88 23       	and	r24, r24
    69e8:	31 f7       	brne	.-52     	; 0x69b6 <DOGM128_6_LCD_print+0x3e>
      		DOGM128_6_usart1_sendByte ( pgm_read_byte(&(font5x7 [(unsigned char)text[charnumber]] [pixelcolumn] )) );	//Write to the display
	  	}
    	DOGM128_6_usart1_sendByte (0x00);														//Write white space pixels between chars to the display
		charnumber++;
  	}
}
    69ea:	df 91       	pop	r29
    69ec:	cf 91       	pop	r28
    69ee:	1f 91       	pop	r17
    69f0:	0f 91       	pop	r16
    69f2:	ff 90       	pop	r15
    69f4:	08 95       	ret

000069f6 <USART0_getchar>:



signed int USART0_getchar()
{
	if (nrk_uart_data_ready(NRK_DEFAULT_UART)!=0)
    69f6:	80 e0       	ldi	r24, 0x00	; 0
    69f8:	0e 94 2b 11 	call	0x2256	; 0x2256 <nrk_uart_data_ready>
    69fc:	88 23       	and	r24, r24
    69fe:	19 f4       	brne	.+6      	; 0x6a06 <USART0_getchar+0x10>
    6a00:	2f ef       	ldi	r18, 0xFF	; 255
    6a02:	3f ef       	ldi	r19, 0xFF	; 255
    6a04:	08 c0       	rjmp	.+16     	; 0x6a16 <USART0_getchar+0x20>
		return (signed int)(unsigned char)getchar();
    6a06:	80 91 a5 08 	lds	r24, 0x08A5
    6a0a:	90 91 a6 08 	lds	r25, 0x08A6
    6a0e:	0e 94 55 4c 	call	0x98aa	; 0x98aa <fgetc>
    6a12:	28 2f       	mov	r18, r24
    6a14:	30 e0       	ldi	r19, 0x00	; 0
	else return -1;
}
    6a16:	c9 01       	movw	r24, r18
    6a18:	08 95       	ret

00006a1a <USART0_putchar>:
#include <hal.h>

// Interface functions
void USART0_putchar(char data)
{
	putchar(data);
    6a1a:	60 91 a7 08 	lds	r22, 0x08A7
    6a1e:	70 91 a8 08 	lds	r23, 0x08A8
    6a22:	90 e0       	ldi	r25, 0x00	; 0
    6a24:	0e 94 97 4c 	call	0x992e	; 0x992e <fputc>
}
    6a28:	08 95       	ret

00006a2a <eDIP240_7_Display_deselect>:
// Adressierung nur bei RS232/RS485 Betrieb
// Display_deselect will deselect the display with the provided address.
// A deselected display will not listen to data sent over the serial line and will not transmit to the line.
// Return value: 0 -> ok;  -1 -> error
signed char eDIP240_7_Display_deselect(unsigned char address)
{
    6a2a:	1f 93       	push	r17
    6a2c:	df 93       	push	r29
    6a2e:	cf 93       	push	r28
    6a30:	00 d0       	rcall	.+0      	; 0x6a32 <eDIP240_7_Display_deselect+0x8>
    6a32:	00 d0       	rcall	.+0      	; 0x6a34 <eDIP240_7_Display_deselect+0xa>
    6a34:	cd b7       	in	r28, 0x3d	; 61
    6a36:	de b7       	in	r29, 0x3e	; 62
    6a38:	18 2f       	mov	r17, r24
 unsigned char ack=0;
 volatile unsigned long ack_timeout=1000000;
    6a3a:	80 e4       	ldi	r24, 0x40	; 64
    6a3c:	92 e4       	ldi	r25, 0x42	; 66
    6a3e:	af e0       	ldi	r26, 0x0F	; 15
    6a40:	b0 e0       	ldi	r27, 0x00	; 0
    6a42:	89 83       	std	Y+1, r24	; 0x01
    6a44:	9a 83       	std	Y+2, r25	; 0x02
    6a46:	ab 83       	std	Y+3, r26	; 0x03
    6a48:	bc 83       	std	Y+4, r27	; 0x04
#include <hal.h>

// Interface functions
void USART0_putchar(char data)
{
	putchar(data);
    6a4a:	60 91 a7 08 	lds	r22, 0x08A7
    6a4e:	70 91 a8 08 	lds	r23, 0x08A8
    6a52:	82 e1       	ldi	r24, 0x12	; 18
    6a54:	90 e0       	ldi	r25, 0x00	; 0
    6a56:	0e 94 97 4c 	call	0x992e	; 0x992e <fputc>
 USART0_putchar('D');
 USART0_putchar(address);
 USART0_putchar( (unsigned char) (0x12 + 3 + 'A' + 'D' + address) );                     // Checksum
 do                                    // Wait for receiving ack from the display
 {
	ack = USART0_getchar();
    6a5a:	60 91 a7 08 	lds	r22, 0x08A7
    6a5e:	70 91 a8 08 	lds	r23, 0x08A8
    6a62:	83 e0       	ldi	r24, 0x03	; 3
    6a64:	90 e0       	ldi	r25, 0x00	; 0
    6a66:	0e 94 97 4c 	call	0x992e	; 0x992e <fputc>
    6a6a:	60 91 a7 08 	lds	r22, 0x08A7
    6a6e:	70 91 a8 08 	lds	r23, 0x08A8
    6a72:	81 e4       	ldi	r24, 0x41	; 65
    6a74:	90 e0       	ldi	r25, 0x00	; 0
    6a76:	0e 94 97 4c 	call	0x992e	; 0x992e <fputc>
    6a7a:	60 91 a7 08 	lds	r22, 0x08A7
    6a7e:	70 91 a8 08 	lds	r23, 0x08A8
    6a82:	84 e4       	ldi	r24, 0x44	; 68
    6a84:	90 e0       	ldi	r25, 0x00	; 0
    6a86:	0e 94 97 4c 	call	0x992e	; 0x992e <fputc>
    6a8a:	60 91 a7 08 	lds	r22, 0x08A7
    6a8e:	70 91 a8 08 	lds	r23, 0x08A8
    6a92:	81 2f       	mov	r24, r17
    6a94:	90 e0       	ldi	r25, 0x00	; 0
    6a96:	0e 94 97 4c 	call	0x992e	; 0x992e <fputc>
    6a9a:	60 91 a7 08 	lds	r22, 0x08A7
    6a9e:	70 91 a8 08 	lds	r23, 0x08A8
    6aa2:	81 2f       	mov	r24, r17
    6aa4:	86 56       	subi	r24, 0x66	; 102
    6aa6:	90 e0       	ldi	r25, 0x00	; 0
    6aa8:	0e 94 97 4c 	call	0x992e	; 0x992e <fputc>
    6aac:	0e 94 fb 34 	call	0x69f6	; 0x69f6 <USART0_getchar>
	ack_timeout--;
    6ab0:	29 81       	ldd	r18, Y+1	; 0x01
    6ab2:	3a 81       	ldd	r19, Y+2	; 0x02
    6ab4:	4b 81       	ldd	r20, Y+3	; 0x03
    6ab6:	5c 81       	ldd	r21, Y+4	; 0x04
    6ab8:	21 50       	subi	r18, 0x01	; 1
    6aba:	30 40       	sbci	r19, 0x00	; 0
    6abc:	40 40       	sbci	r20, 0x00	; 0
    6abe:	50 40       	sbci	r21, 0x00	; 0
    6ac0:	29 83       	std	Y+1, r18	; 0x01
    6ac2:	3a 83       	std	Y+2, r19	; 0x02
    6ac4:	4b 83       	std	Y+3, r20	; 0x03
    6ac6:	5c 83       	std	Y+4, r21	; 0x04
 }while((ack != 0x06) && (ack_timeout > 0));
    6ac8:	86 30       	cpi	r24, 0x06	; 6
    6aca:	51 f0       	breq	.+20     	; 0x6ae0 <eDIP240_7_Display_deselect+0xb6>
    6acc:	89 81       	ldd	r24, Y+1	; 0x01
    6ace:	9a 81       	ldd	r25, Y+2	; 0x02
    6ad0:	ab 81       	ldd	r26, Y+3	; 0x03
    6ad2:	bc 81       	ldd	r27, Y+4	; 0x04
    6ad4:	00 97       	sbiw	r24, 0x00	; 0
    6ad6:	a1 05       	cpc	r26, r1
    6ad8:	b1 05       	cpc	r27, r1
    6ada:	41 f7       	brne	.-48     	; 0x6aac <eDIP240_7_Display_deselect+0x82>
 if (ack != 0x06) return (-1);
    6adc:	8f ef       	ldi	r24, 0xFF	; 255
    6ade:	01 c0       	rjmp	.+2      	; 0x6ae2 <eDIP240_7_Display_deselect+0xb8>
    6ae0:	80 e0       	ldi	r24, 0x00	; 0
 return 0;
}
    6ae2:	0f 90       	pop	r0
    6ae4:	0f 90       	pop	r0
    6ae6:	0f 90       	pop	r0
    6ae8:	0f 90       	pop	r0
    6aea:	cf 91       	pop	r28
    6aec:	df 91       	pop	r29
    6aee:	1f 91       	pop	r17
    6af0:	08 95       	ret

00006af2 <eDIP240_7_Display_select>:

// Adressierung nur bei RS232/RS485 Betrieb
// Display_select will select the display with the provided address as bus receiver.
// Return value: 0 -> ok;  -1 -> error
signed char eDIP240_7_Display_select(unsigned char address)
{
    6af2:	1f 93       	push	r17
    6af4:	df 93       	push	r29
    6af6:	cf 93       	push	r28
    6af8:	00 d0       	rcall	.+0      	; 0x6afa <eDIP240_7_Display_select+0x8>
    6afa:	00 d0       	rcall	.+0      	; 0x6afc <eDIP240_7_Display_select+0xa>
    6afc:	cd b7       	in	r28, 0x3d	; 61
    6afe:	de b7       	in	r29, 0x3e	; 62
    6b00:	18 2f       	mov	r17, r24
 unsigned char ack=0;
 volatile unsigned long ack_timeout=1000000;
    6b02:	80 e4       	ldi	r24, 0x40	; 64
    6b04:	92 e4       	ldi	r25, 0x42	; 66
    6b06:	af e0       	ldi	r26, 0x0F	; 15
    6b08:	b0 e0       	ldi	r27, 0x00	; 0
    6b0a:	89 83       	std	Y+1, r24	; 0x01
    6b0c:	9a 83       	std	Y+2, r25	; 0x02
    6b0e:	ab 83       	std	Y+3, r26	; 0x03
    6b10:	bc 83       	std	Y+4, r27	; 0x04
#include <hal.h>

// Interface functions
void USART0_putchar(char data)
{
	putchar(data);
    6b12:	60 91 a7 08 	lds	r22, 0x08A7
    6b16:	70 91 a8 08 	lds	r23, 0x08A8
    6b1a:	82 e1       	ldi	r24, 0x12	; 18
    6b1c:	90 e0       	ldi	r25, 0x00	; 0
    6b1e:	0e 94 97 4c 	call	0x992e	; 0x992e <fputc>
 USART0_putchar('S');
 USART0_putchar(address);
 USART0_putchar( (unsigned char) (0x12 + 3 + 'A' + 'S' + address) );                     // Checksum
 do                                    // Wait for receiving ack from the display
 {
	ack = USART0_getchar();
    6b22:	60 91 a7 08 	lds	r22, 0x08A7
    6b26:	70 91 a8 08 	lds	r23, 0x08A8
    6b2a:	83 e0       	ldi	r24, 0x03	; 3
    6b2c:	90 e0       	ldi	r25, 0x00	; 0
    6b2e:	0e 94 97 4c 	call	0x992e	; 0x992e <fputc>
    6b32:	60 91 a7 08 	lds	r22, 0x08A7
    6b36:	70 91 a8 08 	lds	r23, 0x08A8
    6b3a:	81 e4       	ldi	r24, 0x41	; 65
    6b3c:	90 e0       	ldi	r25, 0x00	; 0
    6b3e:	0e 94 97 4c 	call	0x992e	; 0x992e <fputc>
    6b42:	60 91 a7 08 	lds	r22, 0x08A7
    6b46:	70 91 a8 08 	lds	r23, 0x08A8
    6b4a:	83 e5       	ldi	r24, 0x53	; 83
    6b4c:	90 e0       	ldi	r25, 0x00	; 0
    6b4e:	0e 94 97 4c 	call	0x992e	; 0x992e <fputc>
    6b52:	60 91 a7 08 	lds	r22, 0x08A7
    6b56:	70 91 a8 08 	lds	r23, 0x08A8
    6b5a:	81 2f       	mov	r24, r17
    6b5c:	90 e0       	ldi	r25, 0x00	; 0
    6b5e:	0e 94 97 4c 	call	0x992e	; 0x992e <fputc>
    6b62:	60 91 a7 08 	lds	r22, 0x08A7
    6b66:	70 91 a8 08 	lds	r23, 0x08A8
    6b6a:	81 2f       	mov	r24, r17
    6b6c:	87 55       	subi	r24, 0x57	; 87
    6b6e:	90 e0       	ldi	r25, 0x00	; 0
    6b70:	0e 94 97 4c 	call	0x992e	; 0x992e <fputc>
    6b74:	0e 94 fb 34 	call	0x69f6	; 0x69f6 <USART0_getchar>
	ack_timeout--;
    6b78:	29 81       	ldd	r18, Y+1	; 0x01
    6b7a:	3a 81       	ldd	r19, Y+2	; 0x02
    6b7c:	4b 81       	ldd	r20, Y+3	; 0x03
    6b7e:	5c 81       	ldd	r21, Y+4	; 0x04
    6b80:	21 50       	subi	r18, 0x01	; 1
    6b82:	30 40       	sbci	r19, 0x00	; 0
    6b84:	40 40       	sbci	r20, 0x00	; 0
    6b86:	50 40       	sbci	r21, 0x00	; 0
    6b88:	29 83       	std	Y+1, r18	; 0x01
    6b8a:	3a 83       	std	Y+2, r19	; 0x02
    6b8c:	4b 83       	std	Y+3, r20	; 0x03
    6b8e:	5c 83       	std	Y+4, r21	; 0x04
 }while((ack != 0x06) && (ack_timeout > 0));
    6b90:	86 30       	cpi	r24, 0x06	; 6
    6b92:	51 f0       	breq	.+20     	; 0x6ba8 <eDIP240_7_Display_select+0xb6>
    6b94:	89 81       	ldd	r24, Y+1	; 0x01
    6b96:	9a 81       	ldd	r25, Y+2	; 0x02
    6b98:	ab 81       	ldd	r26, Y+3	; 0x03
    6b9a:	bc 81       	ldd	r27, Y+4	; 0x04
    6b9c:	00 97       	sbiw	r24, 0x00	; 0
    6b9e:	a1 05       	cpc	r26, r1
    6ba0:	b1 05       	cpc	r27, r1
    6ba2:	41 f7       	brne	.-48     	; 0x6b74 <eDIP240_7_Display_select+0x82>
 if (ack != 0x06) return (-1);
    6ba4:	8f ef       	ldi	r24, 0xFF	; 255
    6ba6:	01 c0       	rjmp	.+2      	; 0x6baa <eDIP240_7_Display_select+0xb8>
    6ba8:	80 e0       	ldi	r24, 0x00	; 0
 return 0;
}
    6baa:	0f 90       	pop	r0
    6bac:	0f 90       	pop	r0
    6bae:	0f 90       	pop	r0
    6bb0:	0f 90       	pop	r0
    6bb2:	cf 91       	pop	r28
    6bb4:	df 91       	pop	r29
    6bb6:	1f 91       	pop	r17
    6bb8:	08 95       	ret

00006bba <eDIP240_7_Display_repeat_last_packet>:
// Letztes Datenpaket wiederholen
// Display_repeat_last_packet will cause the display to repeat the last packet.
// The user has to provide a block of memory (data) where the received packet payload will be stored.
// Return value: 0 -> ok;  -1 -> error
signed char eDIP240_7_Display_repeat_last_packet(unsigned char * data)
{
    6bba:	ef 92       	push	r14
    6bbc:	ff 92       	push	r15
    6bbe:	0f 93       	push	r16
    6bc0:	1f 93       	push	r17
    6bc2:	df 93       	push	r29
    6bc4:	cf 93       	push	r28
    6bc6:	00 d0       	rcall	.+0      	; 0x6bc8 <eDIP240_7_Display_repeat_last_packet+0xe>
    6bc8:	00 d0       	rcall	.+0      	; 0x6bca <eDIP240_7_Display_repeat_last_packet+0x10>
    6bca:	cd b7       	in	r28, 0x3d	; 61
    6bcc:	de b7       	in	r29, 0x3e	; 62
    6bce:	18 2f       	mov	r17, r24
    6bd0:	f9 2e       	mov	r15, r25
 unsigned char i=0, checksum=0, ack=0, error=0, length;
 signed int ch;
 volatile unsigned long ack_timeout=1000000;
    6bd2:	80 e4       	ldi	r24, 0x40	; 64
    6bd4:	92 e4       	ldi	r25, 0x42	; 66
    6bd6:	af e0       	ldi	r26, 0x0F	; 15
    6bd8:	b0 e0       	ldi	r27, 0x00	; 0
    6bda:	89 83       	std	Y+1, r24	; 0x01
    6bdc:	9a 83       	std	Y+2, r25	; 0x02
    6bde:	ab 83       	std	Y+3, r26	; 0x03
    6be0:	bc 83       	std	Y+4, r27	; 0x04
#include <hal.h>

// Interface functions
void USART0_putchar(char data)
{
	putchar(data);
    6be2:	60 91 a7 08 	lds	r22, 0x08A7
    6be6:	70 91 a8 08 	lds	r23, 0x08A8
    6bea:	82 e1       	ldi	r24, 0x12	; 18
    6bec:	90 e0       	ldi	r25, 0x00	; 0
    6bee:	0e 94 97 4c 	call	0x992e	; 0x992e <fputc>
 USART0_putchar(1);
 USART0_putchar('R');
 USART0_putchar( (unsigned char) (0x12 + 1 + 'R') );                     // Checksum
 do                                    // Wait for receiving ack from the display
 {
	ack = USART0_getchar();
    6bf2:	60 91 a7 08 	lds	r22, 0x08A7
    6bf6:	70 91 a8 08 	lds	r23, 0x08A8
    6bfa:	81 e0       	ldi	r24, 0x01	; 1
    6bfc:	90 e0       	ldi	r25, 0x00	; 0
    6bfe:	0e 94 97 4c 	call	0x992e	; 0x992e <fputc>
    6c02:	60 91 a7 08 	lds	r22, 0x08A7
    6c06:	70 91 a8 08 	lds	r23, 0x08A8
    6c0a:	82 e5       	ldi	r24, 0x52	; 82
    6c0c:	90 e0       	ldi	r25, 0x00	; 0
    6c0e:	0e 94 97 4c 	call	0x992e	; 0x992e <fputc>
    6c12:	60 91 a7 08 	lds	r22, 0x08A7
    6c16:	70 91 a8 08 	lds	r23, 0x08A8
    6c1a:	85 e6       	ldi	r24, 0x65	; 101
    6c1c:	90 e0       	ldi	r25, 0x00	; 0
    6c1e:	0e 94 97 4c 	call	0x992e	; 0x992e <fputc>
    6c22:	0e 94 fb 34 	call	0x69f6	; 0x69f6 <USART0_getchar>
	ack_timeout--;
    6c26:	29 81       	ldd	r18, Y+1	; 0x01
    6c28:	3a 81       	ldd	r19, Y+2	; 0x02
    6c2a:	4b 81       	ldd	r20, Y+3	; 0x03
    6c2c:	5c 81       	ldd	r21, Y+4	; 0x04
    6c2e:	21 50       	subi	r18, 0x01	; 1
    6c30:	30 40       	sbci	r19, 0x00	; 0
    6c32:	40 40       	sbci	r20, 0x00	; 0
    6c34:	50 40       	sbci	r21, 0x00	; 0
    6c36:	29 83       	std	Y+1, r18	; 0x01
    6c38:	3a 83       	std	Y+2, r19	; 0x02
    6c3a:	4b 83       	std	Y+3, r20	; 0x03
    6c3c:	5c 83       	std	Y+4, r21	; 0x04
 }while((ack != 0x06) && (ack_timeout > 0));
    6c3e:	86 30       	cpi	r24, 0x06	; 6
    6c40:	51 f0       	breq	.+20     	; 0x6c56 <eDIP240_7_Display_repeat_last_packet+0x9c>
    6c42:	89 81       	ldd	r24, Y+1	; 0x01
    6c44:	9a 81       	ldd	r25, Y+2	; 0x02
    6c46:	ab 81       	ldd	r26, Y+3	; 0x03
    6c48:	bc 81       	ldd	r27, Y+4	; 0x04
    6c4a:	00 97       	sbiw	r24, 0x00	; 0
    6c4c:	a1 05       	cpc	r26, r1
    6c4e:	b1 05       	cpc	r27, r1
    6c50:	41 f7       	brne	.-48     	; 0x6c22 <eDIP240_7_Display_repeat_last_packet+0x68>
 if (ack != 0x06) return (-1);
    6c52:	8f ef       	ldi	r24, 0xFF	; 255
    6c54:	27 c0       	rjmp	.+78     	; 0x6ca4 <eDIP240_7_Display_repeat_last_packet+0xea>

 // Now we have to receive and parse the answer from the display
 do{ ch = USART0_getchar(); }while (ch == -1);       // Get the command byte
    6c56:	0e 94 fb 34 	call	0x69f6	; 0x69f6 <USART0_getchar>
    6c5a:	2f ef       	ldi	r18, 0xFF	; 255
    6c5c:	8f 3f       	cpi	r24, 0xFF	; 255
    6c5e:	92 07       	cpc	r25, r18
    6c60:	d1 f3       	breq	.-12     	; 0x6c56 <eDIP240_7_Display_repeat_last_packet+0x9c>
 if (ch == 0x11)                                     // Abort if command byte is incorrect
    6c62:	41 97       	sbiw	r24, 0x11	; 17
    6c64:	f1 f4       	brne	.+60     	; 0x6ca2 <eDIP240_7_Display_repeat_last_packet+0xe8>
 {
	do{ ch = USART0_getchar(); }while (ch == -1);     // Get payload length
    6c66:	0e 94 fb 34 	call	0x69f6	; 0x69f6 <USART0_getchar>
    6c6a:	ef ef       	ldi	r30, 0xFF	; 255
    6c6c:	8f 3f       	cpi	r24, 0xFF	; 255
    6c6e:	9e 07       	cpc	r25, r30
    6c70:	d1 f3       	breq	.-12     	; 0x6c66 <eDIP240_7_Display_repeat_last_packet+0xac>
	length = ch;
    6c72:	08 2f       	mov	r16, r24
    6c74:	81 2f       	mov	r24, r17
    6c76:	9f 2d       	mov	r25, r15
    6c78:	9c 01       	movw	r18, r24
    6c7a:	79 01       	movw	r14, r18
    6c7c:	10 e0       	ldi	r17, 0x00	; 0
    6c7e:	0a c0       	rjmp	.+20     	; 0x6c94 <eDIP240_7_Display_repeat_last_packet+0xda>
	checksum = 0x11 + length;                         // Start checksum calculation
	while (i < length)
	{
	  do{ ch = USART0_getchar(); }while (ch == -1);   // Get payload data
    6c80:	0e 94 fb 34 	call	0x69f6	; 0x69f6 <USART0_getchar>
    6c84:	ff ef       	ldi	r31, 0xFF	; 255
    6c86:	8f 3f       	cpi	r24, 0xFF	; 255
    6c88:	9f 07       	cpc	r25, r31
    6c8a:	d1 f3       	breq	.-12     	; 0x6c80 <eDIP240_7_Display_repeat_last_packet+0xc6>
	  data[i] = ch;
    6c8c:	f7 01       	movw	r30, r14
    6c8e:	81 93       	st	Z+, r24
    6c90:	7f 01       	movw	r14, r30
	  checksum += ch;                                 // Calculate checksum
	  i++;
    6c92:	1f 5f       	subi	r17, 0xFF	; 255
 if (ch == 0x11)                                     // Abort if command byte is incorrect
 {
	do{ ch = USART0_getchar(); }while (ch == -1);     // Get payload length
	length = ch;
	checksum = 0x11 + length;                         // Start checksum calculation
	while (i < length)
    6c94:	10 17       	cp	r17, r16
    6c96:	a0 f3       	brcs	.-24     	; 0x6c80 <eDIP240_7_Display_repeat_last_packet+0xc6>
	  data[i] = ch;
	  checksum += ch;                                 // Calculate checksum
	  i++;
	}
	// Now we have received all the payload bytes.
	do{ ch = USART0_getchar(); }while (ch == -1);   // Get checksum
    6c98:	0e 94 fb 34 	call	0x69f6	; 0x69f6 <USART0_getchar>
    6c9c:	8f 5f       	subi	r24, 0xFF	; 255
    6c9e:	9f 4f       	sbci	r25, 0xFF	; 255
    6ca0:	d9 f3       	breq	.-10     	; 0x6c98 <eDIP240_7_Display_repeat_last_packet+0xde>
    6ca2:	80 e0       	ldi	r24, 0x00	; 0
 }
 else error = 1;

 if (ack == 0x06) return 0;  // Success!
 else return -1;             // No success! User has to repeat the packet
}
    6ca4:	0f 90       	pop	r0
    6ca6:	0f 90       	pop	r0
    6ca8:	0f 90       	pop	r0
    6caa:	0f 90       	pop	r0
    6cac:	cf 91       	pop	r28
    6cae:	df 91       	pop	r29
    6cb0:	1f 91       	pop	r17
    6cb2:	0f 91       	pop	r16
    6cb4:	ff 90       	pop	r15
    6cb6:	ef 90       	pop	r14
    6cb8:	08 95       	ret

00006cba <eDIP240_7_Display_get_protocoll_info>:
// Display_get_protocoll_info requests the current sendbuffer_size and timeout settings and the sendbuffer_level.
// sendbuffer_size: current setting of the maimum number of bytes that can be stored in the display-sendbuffer.
// sendbuffer_level: current number of bytes that are stored in the display-sendbuffer.
// Return value: 0 -> ok;  -1 -> error
signed char eDIP240_7_Display_get_protocoll_info(unsigned char * sendbuffer_size, unsigned char * sendbuffer_level, unsigned char * timeout)
{
    6cba:	af 92       	push	r10
    6cbc:	bf 92       	push	r11
    6cbe:	cf 92       	push	r12
    6cc0:	df 92       	push	r13
    6cc2:	ef 92       	push	r14
    6cc4:	ff 92       	push	r15
    6cc6:	0f 93       	push	r16
    6cc8:	1f 93       	push	r17
    6cca:	df 93       	push	r29
    6ccc:	cf 93       	push	r28
    6cce:	00 d0       	rcall	.+0      	; 0x6cd0 <eDIP240_7_Display_get_protocoll_info+0x16>
    6cd0:	00 d0       	rcall	.+0      	; 0x6cd2 <eDIP240_7_Display_get_protocoll_info+0x18>
    6cd2:	cd b7       	in	r28, 0x3d	; 61
    6cd4:	de b7       	in	r29, 0x3e	; 62
    6cd6:	7c 01       	movw	r14, r24
    6cd8:	6b 01       	movw	r12, r22
    6cda:	5a 01       	movw	r10, r20
 unsigned char checksum=0, ack=0, error=0, length;
 signed int ch;
 volatile unsigned long ack_timeout=1000000;
    6cdc:	80 e4       	ldi	r24, 0x40	; 64
    6cde:	92 e4       	ldi	r25, 0x42	; 66
    6ce0:	af e0       	ldi	r26, 0x0F	; 15
    6ce2:	b0 e0       	ldi	r27, 0x00	; 0
    6ce4:	89 83       	std	Y+1, r24	; 0x01
    6ce6:	9a 83       	std	Y+2, r25	; 0x02
    6ce8:	ab 83       	std	Y+3, r26	; 0x03
    6cea:	bc 83       	std	Y+4, r27	; 0x04
#include <hal.h>

// Interface functions
void USART0_putchar(char data)
{
	putchar(data);
    6cec:	60 91 a7 08 	lds	r22, 0x08A7
    6cf0:	70 91 a8 08 	lds	r23, 0x08A8
    6cf4:	82 e1       	ldi	r24, 0x12	; 18
    6cf6:	90 e0       	ldi	r25, 0x00	; 0
    6cf8:	0e 94 97 4c 	call	0x992e	; 0x992e <fputc>
 USART0_putchar(1);
 USART0_putchar('P');
 USART0_putchar( (unsigned char) (0x12 + 1 + 'P') );
 do                                    // Wait for receiving ack from the display
 {
	ack = USART0_getchar();
    6cfc:	60 91 a7 08 	lds	r22, 0x08A7
    6d00:	70 91 a8 08 	lds	r23, 0x08A8
    6d04:	81 e0       	ldi	r24, 0x01	; 1
    6d06:	90 e0       	ldi	r25, 0x00	; 0
    6d08:	0e 94 97 4c 	call	0x992e	; 0x992e <fputc>
    6d0c:	60 91 a7 08 	lds	r22, 0x08A7
    6d10:	70 91 a8 08 	lds	r23, 0x08A8
    6d14:	80 e5       	ldi	r24, 0x50	; 80
    6d16:	90 e0       	ldi	r25, 0x00	; 0
    6d18:	0e 94 97 4c 	call	0x992e	; 0x992e <fputc>
    6d1c:	60 91 a7 08 	lds	r22, 0x08A7
    6d20:	70 91 a8 08 	lds	r23, 0x08A8
    6d24:	83 e6       	ldi	r24, 0x63	; 99
    6d26:	90 e0       	ldi	r25, 0x00	; 0
    6d28:	0e 94 97 4c 	call	0x992e	; 0x992e <fputc>
    6d2c:	0e 94 fb 34 	call	0x69f6	; 0x69f6 <USART0_getchar>
	ack_timeout--;
    6d30:	29 81       	ldd	r18, Y+1	; 0x01
    6d32:	3a 81       	ldd	r19, Y+2	; 0x02
    6d34:	4b 81       	ldd	r20, Y+3	; 0x03
    6d36:	5c 81       	ldd	r21, Y+4	; 0x04
    6d38:	21 50       	subi	r18, 0x01	; 1
    6d3a:	30 40       	sbci	r19, 0x00	; 0
    6d3c:	40 40       	sbci	r20, 0x00	; 0
    6d3e:	50 40       	sbci	r21, 0x00	; 0
    6d40:	29 83       	std	Y+1, r18	; 0x01
    6d42:	3a 83       	std	Y+2, r19	; 0x02
    6d44:	4b 83       	std	Y+3, r20	; 0x03
    6d46:	5c 83       	std	Y+4, r21	; 0x04
 }while((ack != 0x06) && (ack_timeout > 0));
    6d48:	86 30       	cpi	r24, 0x06	; 6
    6d4a:	49 f0       	breq	.+18     	; 0x6d5e <eDIP240_7_Display_get_protocoll_info+0xa4>
    6d4c:	89 81       	ldd	r24, Y+1	; 0x01
    6d4e:	9a 81       	ldd	r25, Y+2	; 0x02
    6d50:	ab 81       	ldd	r26, Y+3	; 0x03
    6d52:	bc 81       	ldd	r27, Y+4	; 0x04
    6d54:	00 97       	sbiw	r24, 0x00	; 0
    6d56:	a1 05       	cpc	r26, r1
    6d58:	b1 05       	cpc	r27, r1
    6d5a:	41 f7       	brne	.-48     	; 0x6d2c <eDIP240_7_Display_get_protocoll_info+0x72>
    6d5c:	3c c0       	rjmp	.+120    	; 0x6dd6 <eDIP240_7_Display_get_protocoll_info+0x11c>
 if (ack != 0x06) return (-1);

 // Now we have to receive and parse the answer from the display
 do{ ch = USART0_getchar(); }while (ch == -1);       // Get the command byte
    6d5e:	0e 94 fb 34 	call	0x69f6	; 0x69f6 <USART0_getchar>
    6d62:	2f ef       	ldi	r18, 0xFF	; 255
    6d64:	8f 3f       	cpi	r24, 0xFF	; 255
    6d66:	92 07       	cpc	r25, r18
    6d68:	d1 f3       	breq	.-12     	; 0x6d5e <eDIP240_7_Display_get_protocoll_info+0xa4>
 if (ch == 0x12)                                     // Abort if command byte is incorrect
    6d6a:	42 97       	sbiw	r24, 0x12	; 18
    6d6c:	a1 f5       	brne	.+104    	; 0x6dd6 <eDIP240_7_Display_get_protocoll_info+0x11c>
 {
	do{ ch = USART0_getchar(); }while (ch == -1);     // Get payload length
    6d6e:	0e 94 fb 34 	call	0x69f6	; 0x69f6 <USART0_getchar>
    6d72:	ef ef       	ldi	r30, 0xFF	; 255
    6d74:	8f 3f       	cpi	r24, 0xFF	; 255
    6d76:	9e 07       	cpc	r25, r30
    6d78:	d1 f3       	breq	.-12     	; 0x6d6e <eDIP240_7_Display_get_protocoll_info+0xb4>
	length = ch;
	if (length == 3)                                  // Abort if length is incorrect
    6d7a:	83 30       	cpi	r24, 0x03	; 3
    6d7c:	61 f5       	brne	.+88     	; 0x6dd6 <eDIP240_7_Display_get_protocoll_info+0x11c>
	{
	  checksum = 0x12 + length;                         // Start checksum calculation

	  do{ ch = USART0_getchar(); }while (ch == -1);   // Get payload data
    6d7e:	0e 94 fb 34 	call	0x69f6	; 0x69f6 <USART0_getchar>
    6d82:	ff ef       	ldi	r31, 0xFF	; 255
    6d84:	8f 3f       	cpi	r24, 0xFF	; 255
    6d86:	9f 07       	cpc	r25, r31
    6d88:	d1 f3       	breq	.-12     	; 0x6d7e <eDIP240_7_Display_get_protocoll_info+0xc4>
	  checksum += ch;                                 // Calculate checksum
    6d8a:	18 2f       	mov	r17, r24
	  *sendbuffer_size = ch;
    6d8c:	f7 01       	movw	r30, r14
    6d8e:	80 83       	st	Z, r24

	  do{ ch = USART0_getchar(); }while (ch == -1);   // Get payload data
    6d90:	0e 94 fb 34 	call	0x69f6	; 0x69f6 <USART0_getchar>
    6d94:	ff ef       	ldi	r31, 0xFF	; 255
    6d96:	8f 3f       	cpi	r24, 0xFF	; 255
    6d98:	9f 07       	cpc	r25, r31
    6d9a:	d1 f3       	breq	.-12     	; 0x6d90 <eDIP240_7_Display_get_protocoll_info+0xd6>
	  checksum += ch;                                 // Calculate checksum
    6d9c:	f8 2e       	mov	r15, r24
	  *sendbuffer_level = ch;
    6d9e:	f6 01       	movw	r30, r12
    6da0:	80 83       	st	Z, r24

	  do{ ch = USART0_getchar(); }while (ch == -1);   // Get payload data
    6da2:	0e 94 fb 34 	call	0x69f6	; 0x69f6 <USART0_getchar>
    6da6:	ff ef       	ldi	r31, 0xFF	; 255
    6da8:	8f 3f       	cpi	r24, 0xFF	; 255
    6daa:	9f 07       	cpc	r25, r31
    6dac:	d1 f3       	breq	.-12     	; 0x6da2 <eDIP240_7_Display_get_protocoll_info+0xe8>
	  checksum += ch;                                 // Calculate checksum
    6dae:	08 2f       	mov	r16, r24
	  *timeout = ch;
    6db0:	f5 01       	movw	r30, r10
    6db2:	80 83       	st	Z, r24

	  // Now we have received all the payload bytes.
	  do{ ch = USART0_getchar(); }while (ch == -1);   // Get checksum
    6db4:	0e 94 fb 34 	call	0x69f6	; 0x69f6 <USART0_getchar>
    6db8:	9c 01       	movw	r18, r24
    6dba:	ff ef       	ldi	r31, 0xFF	; 255
    6dbc:	8f 3f       	cpi	r24, 0xFF	; 255
    6dbe:	9f 07       	cpc	r25, r31
    6dc0:	c9 f3       	breq	.-14     	; 0x6db4 <eDIP240_7_Display_get_protocoll_info+0xfa>
	if (length == 3)                                  // Abort if length is incorrect
	{
	  checksum = 0x12 + length;                         // Start checksum calculation

	  do{ ch = USART0_getchar(); }while (ch == -1);   // Get payload data
	  checksum += ch;                                 // Calculate checksum
    6dc2:	1b 5e       	subi	r17, 0xEB	; 235
	  *sendbuffer_size = ch;

	  do{ ch = USART0_getchar(); }while (ch == -1);   // Get payload data
	  checksum += ch;                                 // Calculate checksum
    6dc4:	1f 0d       	add	r17, r15
	  *timeout = ch;

	  // Now we have received all the payload bytes.
	  do{ ch = USART0_getchar(); }while (ch == -1);   // Get checksum
	  // If received checksum and calculated checksum do not match, we have an error!
	  if (ch != checksum) error = 1;
    6dc6:	10 0f       	add	r17, r16
    6dc8:	81 2f       	mov	r24, r17
    6dca:	90 e0       	ldi	r25, 0x00	; 0
    6dcc:	28 17       	cp	r18, r24
    6dce:	39 07       	cpc	r19, r25
    6dd0:	11 f4       	brne	.+4      	; 0x6dd6 <eDIP240_7_Display_get_protocoll_info+0x11c>
    6dd2:	80 e0       	ldi	r24, 0x00	; 0
    6dd4:	01 c0       	rjmp	.+2      	; 0x6dd8 <eDIP240_7_Display_get_protocoll_info+0x11e>
    6dd6:	8f ef       	ldi	r24, 0xFF	; 255
 if (error == 0) return 0;  // Success!
 else return -1;             // No success! User has to repeat the packet

 return 0;

}
    6dd8:	0f 90       	pop	r0
    6dda:	0f 90       	pop	r0
    6ddc:	0f 90       	pop	r0
    6dde:	0f 90       	pop	r0
    6de0:	cf 91       	pop	r28
    6de2:	df 91       	pop	r29
    6de4:	1f 91       	pop	r17
    6de6:	0f 91       	pop	r16
    6de8:	ff 90       	pop	r15
    6dea:	ef 90       	pop	r14
    6dec:	df 90       	pop	r13
    6dee:	cf 90       	pop	r12
    6df0:	bf 90       	pop	r11
    6df2:	af 90       	pop	r10
    6df4:	08 95       	ret

00006df6 <eDIP240_7_Display_set_protocol>:
// Display_set_protocol can set the maximum transmission block size and the serial interface data block timeout.
// sendbuffer_size is set in bytes (1 .. 64)
// timeout is set in 1/100 seconds (0 .. 255)
// Return value: 0 -> ok;  -1 -> error
signed char eDIP240_7_Display_set_protocol(unsigned char sendbuffer_size, unsigned char timeout)
{
    6df6:	0f 93       	push	r16
    6df8:	1f 93       	push	r17
    6dfa:	df 93       	push	r29
    6dfc:	cf 93       	push	r28
    6dfe:	00 d0       	rcall	.+0      	; 0x6e00 <eDIP240_7_Display_set_protocol+0xa>
    6e00:	00 d0       	rcall	.+0      	; 0x6e02 <eDIP240_7_Display_set_protocol+0xc>
    6e02:	cd b7       	in	r28, 0x3d	; 61
    6e04:	de b7       	in	r29, 0x3e	; 62
    6e06:	18 2f       	mov	r17, r24
    6e08:	06 2f       	mov	r16, r22
 unsigned char ack=0;
 volatile unsigned long ack_timeout=1000000;
    6e0a:	80 e4       	ldi	r24, 0x40	; 64
    6e0c:	92 e4       	ldi	r25, 0x42	; 66
    6e0e:	af e0       	ldi	r26, 0x0F	; 15
    6e10:	b0 e0       	ldi	r27, 0x00	; 0
    6e12:	89 83       	std	Y+1, r24	; 0x01
    6e14:	9a 83       	std	Y+2, r25	; 0x02
    6e16:	ab 83       	std	Y+3, r26	; 0x03
    6e18:	bc 83       	std	Y+4, r27	; 0x04
#include <hal.h>

// Interface functions
void USART0_putchar(char data)
{
	putchar(data);
    6e1a:	60 91 a7 08 	lds	r22, 0x08A7
    6e1e:	70 91 a8 08 	lds	r23, 0x08A8
    6e22:	82 e1       	ldi	r24, 0x12	; 18
    6e24:	90 e0       	ldi	r25, 0x00	; 0
    6e26:	0e 94 97 4c 	call	0x992e	; 0x992e <fputc>
 USART0_putchar(sendbuffer_size);
 USART0_putchar(timeout);
 USART0_putchar( (unsigned char) (0x12 + 3 + 'D' + sendbuffer_size + timeout) );                     // Checksum
 do                                    // Wait for receiving ack from the display
 {
	ack = USART0_getchar();
    6e2a:	60 91 a7 08 	lds	r22, 0x08A7
    6e2e:	70 91 a8 08 	lds	r23, 0x08A8
    6e32:	83 e0       	ldi	r24, 0x03	; 3
    6e34:	90 e0       	ldi	r25, 0x00	; 0
    6e36:	0e 94 97 4c 	call	0x992e	; 0x992e <fputc>
    6e3a:	60 91 a7 08 	lds	r22, 0x08A7
    6e3e:	70 91 a8 08 	lds	r23, 0x08A8
    6e42:	84 e4       	ldi	r24, 0x44	; 68
    6e44:	90 e0       	ldi	r25, 0x00	; 0
    6e46:	0e 94 97 4c 	call	0x992e	; 0x992e <fputc>
    6e4a:	60 91 a7 08 	lds	r22, 0x08A7
    6e4e:	70 91 a8 08 	lds	r23, 0x08A8
    6e52:	81 2f       	mov	r24, r17
    6e54:	90 e0       	ldi	r25, 0x00	; 0
    6e56:	0e 94 97 4c 	call	0x992e	; 0x992e <fputc>
    6e5a:	60 91 a7 08 	lds	r22, 0x08A7
    6e5e:	70 91 a8 08 	lds	r23, 0x08A8
    6e62:	80 2f       	mov	r24, r16
    6e64:	90 e0       	ldi	r25, 0x00	; 0
    6e66:	0e 94 97 4c 	call	0x992e	; 0x992e <fputc>
    6e6a:	17 5a       	subi	r17, 0xA7	; 167
    6e6c:	60 91 a7 08 	lds	r22, 0x08A7
    6e70:	70 91 a8 08 	lds	r23, 0x08A8
    6e74:	81 2f       	mov	r24, r17
    6e76:	80 0f       	add	r24, r16
    6e78:	90 e0       	ldi	r25, 0x00	; 0
    6e7a:	0e 94 97 4c 	call	0x992e	; 0x992e <fputc>
    6e7e:	0e 94 fb 34 	call	0x69f6	; 0x69f6 <USART0_getchar>
	ack_timeout--;
    6e82:	29 81       	ldd	r18, Y+1	; 0x01
    6e84:	3a 81       	ldd	r19, Y+2	; 0x02
    6e86:	4b 81       	ldd	r20, Y+3	; 0x03
    6e88:	5c 81       	ldd	r21, Y+4	; 0x04
    6e8a:	21 50       	subi	r18, 0x01	; 1
    6e8c:	30 40       	sbci	r19, 0x00	; 0
    6e8e:	40 40       	sbci	r20, 0x00	; 0
    6e90:	50 40       	sbci	r21, 0x00	; 0
    6e92:	29 83       	std	Y+1, r18	; 0x01
    6e94:	3a 83       	std	Y+2, r19	; 0x02
    6e96:	4b 83       	std	Y+3, r20	; 0x03
    6e98:	5c 83       	std	Y+4, r21	; 0x04
 }while((ack != 0x06) && (ack_timeout > 0));
    6e9a:	86 30       	cpi	r24, 0x06	; 6
    6e9c:	51 f0       	breq	.+20     	; 0x6eb2 <eDIP240_7_Display_set_protocol+0xbc>
    6e9e:	89 81       	ldd	r24, Y+1	; 0x01
    6ea0:	9a 81       	ldd	r25, Y+2	; 0x02
    6ea2:	ab 81       	ldd	r26, Y+3	; 0x03
    6ea4:	bc 81       	ldd	r27, Y+4	; 0x04
    6ea6:	00 97       	sbiw	r24, 0x00	; 0
    6ea8:	a1 05       	cpc	r26, r1
    6eaa:	b1 05       	cpc	r27, r1
    6eac:	41 f7       	brne	.-48     	; 0x6e7e <eDIP240_7_Display_set_protocol+0x88>
 if (ack != 0x06) return (-1);
    6eae:	8f ef       	ldi	r24, 0xFF	; 255
    6eb0:	01 c0       	rjmp	.+2      	; 0x6eb4 <eDIP240_7_Display_set_protocol+0xbe>
    6eb2:	80 e0       	ldi	r24, 0x00	; 0
 return 0;
}
    6eb4:	0f 90       	pop	r0
    6eb6:	0f 90       	pop	r0
    6eb8:	0f 90       	pop	r0
    6eba:	0f 90       	pop	r0
    6ebc:	cf 91       	pop	r28
    6ebe:	df 91       	pop	r29
    6ec0:	1f 91       	pop	r17
    6ec2:	0f 91       	pop	r16
    6ec4:	08 95       	ret

00006ec6 <eDIP240_7_Display_request_buffer_info>:
// Pufferinformationen anfordern
// Display_request_buffer_info checks if there is any payload stored in the display that can be transmitted.
// The data is provided by a call by reference method.
// Return value: 0 -> ok;  -1 -> error
signed char eDIP240_7_Display_request_buffer_info(char * bytes_ready, char * bytes_free)   //TBD
{
    6ec6:	af 92       	push	r10
    6ec8:	bf 92       	push	r11
    6eca:	cf 92       	push	r12
    6ecc:	df 92       	push	r13
    6ece:	ff 92       	push	r15
    6ed0:	0f 93       	push	r16
    6ed2:	1f 93       	push	r17
    6ed4:	df 93       	push	r29
    6ed6:	cf 93       	push	r28
    6ed8:	00 d0       	rcall	.+0      	; 0x6eda <eDIP240_7_Display_request_buffer_info+0x14>
    6eda:	00 d0       	rcall	.+0      	; 0x6edc <eDIP240_7_Display_request_buffer_info+0x16>
    6edc:	cd b7       	in	r28, 0x3d	; 61
    6ede:	de b7       	in	r29, 0x3e	; 62
    6ee0:	6c 01       	movw	r12, r24
    6ee2:	5b 01       	movw	r10, r22
 unsigned char checksum=0, ack=0, error=0, length;
 signed int ch;
 volatile unsigned long ack_timeout=1000000;
    6ee4:	80 e4       	ldi	r24, 0x40	; 64
    6ee6:	92 e4       	ldi	r25, 0x42	; 66
    6ee8:	af e0       	ldi	r26, 0x0F	; 15
    6eea:	b0 e0       	ldi	r27, 0x00	; 0
    6eec:	89 83       	std	Y+1, r24	; 0x01
    6eee:	9a 83       	std	Y+2, r25	; 0x02
    6ef0:	ab 83       	std	Y+3, r26	; 0x03
    6ef2:	bc 83       	std	Y+4, r27	; 0x04
#include <hal.h>

// Interface functions
void USART0_putchar(char data)
{
	putchar(data);
    6ef4:	60 91 a7 08 	lds	r22, 0x08A7
    6ef8:	70 91 a8 08 	lds	r23, 0x08A8
    6efc:	82 e1       	ldi	r24, 0x12	; 18
    6efe:	90 e0       	ldi	r25, 0x00	; 0
    6f00:	0e 94 97 4c 	call	0x992e	; 0x992e <fputc>
 USART0_putchar(0x01);                 // Send payload size to the display
 USART0_putchar(0x49);                 // Payload
 USART0_putchar(0x12 + 0x01 + 0x49);   // Send checksum to the display
 do                                    // Wait for receiving ack from the display
 {
	ack = USART0_getchar();
    6f04:	60 91 a7 08 	lds	r22, 0x08A7
    6f08:	70 91 a8 08 	lds	r23, 0x08A8
    6f0c:	81 e0       	ldi	r24, 0x01	; 1
    6f0e:	90 e0       	ldi	r25, 0x00	; 0
    6f10:	0e 94 97 4c 	call	0x992e	; 0x992e <fputc>
    6f14:	60 91 a7 08 	lds	r22, 0x08A7
    6f18:	70 91 a8 08 	lds	r23, 0x08A8
    6f1c:	89 e4       	ldi	r24, 0x49	; 73
    6f1e:	90 e0       	ldi	r25, 0x00	; 0
    6f20:	0e 94 97 4c 	call	0x992e	; 0x992e <fputc>
    6f24:	60 91 a7 08 	lds	r22, 0x08A7
    6f28:	70 91 a8 08 	lds	r23, 0x08A8
    6f2c:	8c e5       	ldi	r24, 0x5C	; 92
    6f2e:	90 e0       	ldi	r25, 0x00	; 0
    6f30:	0e 94 97 4c 	call	0x992e	; 0x992e <fputc>
    6f34:	0e 94 fb 34 	call	0x69f6	; 0x69f6 <USART0_getchar>
	ack_timeout--;
    6f38:	29 81       	ldd	r18, Y+1	; 0x01
    6f3a:	3a 81       	ldd	r19, Y+2	; 0x02
    6f3c:	4b 81       	ldd	r20, Y+3	; 0x03
    6f3e:	5c 81       	ldd	r21, Y+4	; 0x04
    6f40:	21 50       	subi	r18, 0x01	; 1
    6f42:	30 40       	sbci	r19, 0x00	; 0
    6f44:	40 40       	sbci	r20, 0x00	; 0
    6f46:	50 40       	sbci	r21, 0x00	; 0
    6f48:	29 83       	std	Y+1, r18	; 0x01
    6f4a:	3a 83       	std	Y+2, r19	; 0x02
    6f4c:	4b 83       	std	Y+3, r20	; 0x03
    6f4e:	5c 83       	std	Y+4, r21	; 0x04
 }while((ack != 0x06) && (ack_timeout > 0));
    6f50:	86 30       	cpi	r24, 0x06	; 6
    6f52:	11 f4       	brne	.+4      	; 0x6f58 <eDIP240_7_Display_request_buffer_info+0x92>
    6f54:	ff 24       	eor	r15, r15
    6f56:	0a c0       	rjmp	.+20     	; 0x6f6c <eDIP240_7_Display_request_buffer_info+0xa6>
    6f58:	89 81       	ldd	r24, Y+1	; 0x01
    6f5a:	9a 81       	ldd	r25, Y+2	; 0x02
    6f5c:	ab 81       	ldd	r26, Y+3	; 0x03
    6f5e:	bc 81       	ldd	r27, Y+4	; 0x04
    6f60:	00 97       	sbiw	r24, 0x00	; 0
    6f62:	a1 05       	cpc	r26, r1
    6f64:	b1 05       	cpc	r27, r1
    6f66:	31 f7       	brne	.-52     	; 0x6f34 <eDIP240_7_Display_request_buffer_info+0x6e>
    6f68:	ff 24       	eor	r15, r15
    6f6a:	f3 94       	inc	r15
 if (ack != 0x06) error = 1;

 // Now we have to receive and parse the answer from the display
 do{ ch = USART0_getchar(); }while (ch == -1);       // Get the command byte
    6f6c:	0e 94 fb 34 	call	0x69f6	; 0x69f6 <USART0_getchar>
    6f70:	2f ef       	ldi	r18, 0xFF	; 255
    6f72:	8f 3f       	cpi	r24, 0xFF	; 255
    6f74:	92 07       	cpc	r25, r18
    6f76:	d1 f3       	breq	.-12     	; 0x6f6c <eDIP240_7_Display_request_buffer_info+0xa6>
 if (ch == 0x12)                                     // Abort if command byte is incorrect
    6f78:	42 97       	sbiw	r24, 0x12	; 18
    6f7a:	61 f5       	brne	.+88     	; 0x6fd4 <eDIP240_7_Display_request_buffer_info+0x10e>
 {
	do{ ch = USART0_getchar(); }while (ch == -1);     // Get payload length
    6f7c:	0e 94 fb 34 	call	0x69f6	; 0x69f6 <USART0_getchar>
    6f80:	ef ef       	ldi	r30, 0xFF	; 255
    6f82:	8f 3f       	cpi	r24, 0xFF	; 255
    6f84:	9e 07       	cpc	r25, r30
    6f86:	d1 f3       	breq	.-12     	; 0x6f7c <eDIP240_7_Display_request_buffer_info+0xb6>
	length = ch;
	if (length == 2)                                  // Abort if length is incorrect
    6f88:	82 30       	cpi	r24, 0x02	; 2
    6f8a:	21 f5       	brne	.+72     	; 0x6fd4 <eDIP240_7_Display_request_buffer_info+0x10e>
	{
	  checksum = 0x12 + length;                         // Start checksum calculation

	  do{ ch = USART0_getchar(); }while (ch == -1);   // Get payload data
    6f8c:	0e 94 fb 34 	call	0x69f6	; 0x69f6 <USART0_getchar>
    6f90:	ff ef       	ldi	r31, 0xFF	; 255
    6f92:	8f 3f       	cpi	r24, 0xFF	; 255
    6f94:	9f 07       	cpc	r25, r31
    6f96:	d1 f3       	breq	.-12     	; 0x6f8c <eDIP240_7_Display_request_buffer_info+0xc6>
	  checksum += ch;                                 // Calculate checksum
    6f98:	18 2f       	mov	r17, r24
	  *bytes_ready = ch;
    6f9a:	f6 01       	movw	r30, r12
    6f9c:	80 83       	st	Z, r24

	  do{ ch = USART0_getchar(); }while (ch == -1);   // Get payload data
    6f9e:	0e 94 fb 34 	call	0x69f6	; 0x69f6 <USART0_getchar>
    6fa2:	ff ef       	ldi	r31, 0xFF	; 255
    6fa4:	8f 3f       	cpi	r24, 0xFF	; 255
    6fa6:	9f 07       	cpc	r25, r31
    6fa8:	d1 f3       	breq	.-12     	; 0x6f9e <eDIP240_7_Display_request_buffer_info+0xd8>
	  checksum += ch;                                 // Calculate checksum
    6faa:	08 2f       	mov	r16, r24
	  *bytes_free = ch;
    6fac:	f5 01       	movw	r30, r10
    6fae:	80 83       	st	Z, r24

	  // Now we have received all the payload bytes.
	  do{ ch = USART0_getchar(); }while (ch == -1);   // Get checksum
    6fb0:	0e 94 fb 34 	call	0x69f6	; 0x69f6 <USART0_getchar>
    6fb4:	9c 01       	movw	r18, r24
    6fb6:	ff ef       	ldi	r31, 0xFF	; 255
    6fb8:	8f 3f       	cpi	r24, 0xFF	; 255
    6fba:	9f 07       	cpc	r25, r31
    6fbc:	c9 f3       	breq	.-14     	; 0x6fb0 <eDIP240_7_Display_request_buffer_info+0xea>
	if (length == 2)                                  // Abort if length is incorrect
	{
	  checksum = 0x12 + length;                         // Start checksum calculation

	  do{ ch = USART0_getchar(); }while (ch == -1);   // Get payload data
	  checksum += ch;                                 // Calculate checksum
    6fbe:	1c 5e       	subi	r17, 0xEC	; 236
	  *bytes_free = ch;

	  // Now we have received all the payload bytes.
	  do{ ch = USART0_getchar(); }while (ch == -1);   // Get checksum
	  // If received checksum and calculated checksum do not match, we have an error!
	  if (ch != checksum) error = 1;
    6fc0:	10 0f       	add	r17, r16
    6fc2:	81 2f       	mov	r24, r17
    6fc4:	90 e0       	ldi	r25, 0x00	; 0
    6fc6:	28 17       	cp	r18, r24
    6fc8:	39 07       	cpc	r19, r25
    6fca:	21 f4       	brne	.+8      	; 0x6fd4 <eDIP240_7_Display_request_buffer_info+0x10e>
	}
	else error = 1;
 }
 else error = 1;

 if (error == 0) return 0;  // Success!
    6fcc:	ff 20       	and	r15, r15
    6fce:	11 f4       	brne	.+4      	; 0x6fd4 <eDIP240_7_Display_request_buffer_info+0x10e>
    6fd0:	80 e0       	ldi	r24, 0x00	; 0
    6fd2:	01 c0       	rjmp	.+2      	; 0x6fd6 <eDIP240_7_Display_request_buffer_info+0x110>
    6fd4:	8f ef       	ldi	r24, 0xFF	; 255
 else return -1;             // No success! User has to repeat the packet
}
    6fd6:	0f 90       	pop	r0
    6fd8:	0f 90       	pop	r0
    6fda:	0f 90       	pop	r0
    6fdc:	0f 90       	pop	r0
    6fde:	cf 91       	pop	r28
    6fe0:	df 91       	pop	r29
    6fe2:	1f 91       	pop	r17
    6fe4:	0f 91       	pop	r16
    6fe6:	ff 90       	pop	r15
    6fe8:	df 90       	pop	r13
    6fea:	cf 90       	pop	r12
    6fec:	bf 90       	pop	r11
    6fee:	af 90       	pop	r10
    6ff0:	08 95       	ret

00006ff2 <eDIP240_7_Display_get_buffer>:

// Inhalt des Sendepuffers anfordern
// Display_get_buffer reads a payload packet from the display to a memory block provided by the user
// In case of success the length of data is returned, in case of an error -1 is returned
signed char eDIP240_7_Display_get_buffer(unsigned char * data)
{
    6ff2:	cf 92       	push	r12
    6ff4:	df 92       	push	r13
    6ff6:	ef 92       	push	r14
    6ff8:	ff 92       	push	r15
    6ffa:	0f 93       	push	r16
    6ffc:	1f 93       	push	r17
    6ffe:	df 93       	push	r29
    7000:	cf 93       	push	r28
    7002:	00 d0       	rcall	.+0      	; 0x7004 <eDIP240_7_Display_get_buffer+0x12>
    7004:	00 d0       	rcall	.+0      	; 0x7006 <eDIP240_7_Display_get_buffer+0x14>
    7006:	cd b7       	in	r28, 0x3d	; 61
    7008:	de b7       	in	r29, 0x3e	; 62
    700a:	18 2f       	mov	r17, r24
    700c:	f9 2e       	mov	r15, r25
 unsigned char i=0, checksum=0, ack=0, error=0, length = 0;
 signed int ch;
 volatile unsigned long ack_timeout=100000;
    700e:	80 ea       	ldi	r24, 0xA0	; 160
    7010:	96 e8       	ldi	r25, 0x86	; 134
    7012:	a1 e0       	ldi	r26, 0x01	; 1
    7014:	b0 e0       	ldi	r27, 0x00	; 0
    7016:	89 83       	std	Y+1, r24	; 0x01
    7018:	9a 83       	std	Y+2, r25	; 0x02
    701a:	ab 83       	std	Y+3, r26	; 0x03
    701c:	bc 83       	std	Y+4, r27	; 0x04
#include <hal.h>

// Interface functions
void USART0_putchar(char data)
{
	putchar(data);
    701e:	60 91 a7 08 	lds	r22, 0x08A7
    7022:	70 91 a8 08 	lds	r23, 0x08A8
    7026:	82 e1       	ldi	r24, 0x12	; 18
    7028:	90 e0       	ldi	r25, 0x00	; 0
    702a:	0e 94 97 4c 	call	0x992e	; 0x992e <fputc>
 USART0_putchar(0x53);                 // Payload
 USART0_putchar(0x12 + 0x01 + 0x53);   // Send checksum to the display
// while (Tx0Empty == 0) {}              // Wait for complete transmission of the packet
 do                                    // Wait for receiving ack from the display
 {
	ack = USART0_getchar();
    702e:	60 91 a7 08 	lds	r22, 0x08A7
    7032:	70 91 a8 08 	lds	r23, 0x08A8
    7036:	81 e0       	ldi	r24, 0x01	; 1
    7038:	90 e0       	ldi	r25, 0x00	; 0
    703a:	0e 94 97 4c 	call	0x992e	; 0x992e <fputc>
    703e:	60 91 a7 08 	lds	r22, 0x08A7
    7042:	70 91 a8 08 	lds	r23, 0x08A8
    7046:	83 e5       	ldi	r24, 0x53	; 83
    7048:	90 e0       	ldi	r25, 0x00	; 0
    704a:	0e 94 97 4c 	call	0x992e	; 0x992e <fputc>
    704e:	60 91 a7 08 	lds	r22, 0x08A7
    7052:	70 91 a8 08 	lds	r23, 0x08A8
    7056:	86 e6       	ldi	r24, 0x66	; 102
    7058:	90 e0       	ldi	r25, 0x00	; 0
    705a:	0e 94 97 4c 	call	0x992e	; 0x992e <fputc>
    705e:	0e 94 fb 34 	call	0x69f6	; 0x69f6 <USART0_getchar>
	ack_timeout--;
    7062:	29 81       	ldd	r18, Y+1	; 0x01
    7064:	3a 81       	ldd	r19, Y+2	; 0x02
    7066:	4b 81       	ldd	r20, Y+3	; 0x03
    7068:	5c 81       	ldd	r21, Y+4	; 0x04
    706a:	21 50       	subi	r18, 0x01	; 1
    706c:	30 40       	sbci	r19, 0x00	; 0
    706e:	40 40       	sbci	r20, 0x00	; 0
    7070:	50 40       	sbci	r21, 0x00	; 0
    7072:	29 83       	std	Y+1, r18	; 0x01
    7074:	3a 83       	std	Y+2, r19	; 0x02
    7076:	4b 83       	std	Y+3, r20	; 0x03
    7078:	5c 83       	std	Y+4, r21	; 0x04
 }while((ack != 0x06) && (ack_timeout > 0));
    707a:	86 30       	cpi	r24, 0x06	; 6
    707c:	11 f4       	brne	.+4      	; 0x7082 <eDIP240_7_Display_get_buffer+0x90>
    707e:	cc 24       	eor	r12, r12
    7080:	0a c0       	rjmp	.+20     	; 0x7096 <eDIP240_7_Display_get_buffer+0xa4>
    7082:	89 81       	ldd	r24, Y+1	; 0x01
    7084:	9a 81       	ldd	r25, Y+2	; 0x02
    7086:	ab 81       	ldd	r26, Y+3	; 0x03
    7088:	bc 81       	ldd	r27, Y+4	; 0x04
    708a:	00 97       	sbiw	r24, 0x00	; 0
    708c:	a1 05       	cpc	r26, r1
    708e:	b1 05       	cpc	r27, r1
    7090:	31 f7       	brne	.-52     	; 0x705e <eDIP240_7_Display_get_buffer+0x6c>
    7092:	cc 24       	eor	r12, r12
    7094:	c3 94       	inc	r12
 if (ack != 0x06) error = 1;

 // Now we have to receive and parse the answer from the display
 do{ ch = USART0_getchar(); }while (ch == -1);       // Get the command byte
    7096:	0e 94 fb 34 	call	0x69f6	; 0x69f6 <USART0_getchar>
    709a:	2f ef       	ldi	r18, 0xFF	; 255
    709c:	8f 3f       	cpi	r24, 0xFF	; 255
    709e:	92 07       	cpc	r25, r18
    70a0:	d1 f3       	breq	.-12     	; 0x7096 <eDIP240_7_Display_get_buffer+0xa4>
 if (ch == 0x11)                                     // Abort if command byte is incorrect
    70a2:	41 97       	sbiw	r24, 0x11	; 17
    70a4:	61 f5       	brne	.+88     	; 0x70fe <eDIP240_7_Display_get_buffer+0x10c>
 {
	do{ ch = USART0_getchar(); }while (ch == -1);     // Get payload length
    70a6:	0e 94 fb 34 	call	0x69f6	; 0x69f6 <USART0_getchar>
    70aa:	ef ef       	ldi	r30, 0xFF	; 255
    70ac:	8f 3f       	cpi	r24, 0xFF	; 255
    70ae:	9e 07       	cpc	r25, r30
    70b0:	d1 f3       	breq	.-12     	; 0x70a6 <eDIP240_7_Display_get_buffer+0xb4>
	length = ch;
    70b2:	d8 2e       	mov	r13, r24
	checksum = 0x11 + length;                         // Start checksum calculation
    70b4:	08 2f       	mov	r16, r24
    70b6:	0f 5e       	subi	r16, 0xEF	; 239
    70b8:	81 2f       	mov	r24, r17
    70ba:	9f 2d       	mov	r25, r15
    70bc:	9c 01       	movw	r18, r24
    70be:	79 01       	movw	r14, r18
    70c0:	10 e0       	ldi	r17, 0x00	; 0
    70c2:	0b c0       	rjmp	.+22     	; 0x70da <eDIP240_7_Display_get_buffer+0xe8>
	while (i < length)
	{
	  do{ ch = USART0_getchar(); }while (ch == -1);   // Get payload data
    70c4:	0e 94 fb 34 	call	0x69f6	; 0x69f6 <USART0_getchar>
    70c8:	ff ef       	ldi	r31, 0xFF	; 255
    70ca:	8f 3f       	cpi	r24, 0xFF	; 255
    70cc:	9f 07       	cpc	r25, r31
    70ce:	d1 f3       	breq	.-12     	; 0x70c4 <eDIP240_7_Display_get_buffer+0xd2>
	  data[i] = ch;
    70d0:	f7 01       	movw	r30, r14
    70d2:	81 93       	st	Z+, r24
    70d4:	7f 01       	movw	r14, r30
	  checksum += ch;                                 // Calculate checksum
    70d6:	08 0f       	add	r16, r24
	  i++;
    70d8:	1f 5f       	subi	r17, 0xFF	; 255
 if (ch == 0x11)                                     // Abort if command byte is incorrect
 {
	do{ ch = USART0_getchar(); }while (ch == -1);     // Get payload length
	length = ch;
	checksum = 0x11 + length;                         // Start checksum calculation
	while (i < length)
    70da:	1d 15       	cp	r17, r13
    70dc:	98 f3       	brcs	.-26     	; 0x70c4 <eDIP240_7_Display_get_buffer+0xd2>
	  data[i] = ch;
	  checksum += ch;                                 // Calculate checksum
	  i++;
	}
	// Now we have received all the payload bytes.
	do{ ch = USART0_getchar(); }while (ch == -1);   // Get checksum
    70de:	0e 94 fb 34 	call	0x69f6	; 0x69f6 <USART0_getchar>
    70e2:	9c 01       	movw	r18, r24
    70e4:	ff ef       	ldi	r31, 0xFF	; 255
    70e6:	8f 3f       	cpi	r24, 0xFF	; 255
    70e8:	9f 07       	cpc	r25, r31
    70ea:	c9 f3       	breq	.-14     	; 0x70de <eDIP240_7_Display_get_buffer+0xec>
	// If received checksum and calculated checksum do not match, we have an error!
	if (ch != checksum) error = 1;
    70ec:	80 2f       	mov	r24, r16
    70ee:	90 e0       	ldi	r25, 0x00	; 0
    70f0:	28 17       	cp	r18, r24
    70f2:	39 07       	cpc	r19, r25
    70f4:	21 f4       	brne	.+8      	; 0x70fe <eDIP240_7_Display_get_buffer+0x10c>
 }
 else error = 1;

 if (error == 0) return length;   // Success!
    70f6:	cc 20       	and	r12, r12
    70f8:	11 f4       	brne	.+4      	; 0x70fe <eDIP240_7_Display_get_buffer+0x10c>
    70fa:	8d 2d       	mov	r24, r13
    70fc:	01 c0       	rjmp	.+2      	; 0x7100 <eDIP240_7_Display_get_buffer+0x10e>
    70fe:	8f ef       	ldi	r24, 0xFF	; 255
 else return -1;                   // No success! User has to repeat the packet
}
    7100:	0f 90       	pop	r0
    7102:	0f 90       	pop	r0
    7104:	0f 90       	pop	r0
    7106:	0f 90       	pop	r0
    7108:	cf 91       	pop	r28
    710a:	df 91       	pop	r29
    710c:	1f 91       	pop	r17
    710e:	0f 91       	pop	r16
    7110:	ff 90       	pop	r15
    7112:	ef 90       	pop	r14
    7114:	df 90       	pop	r13
    7116:	cf 90       	pop	r12
    7118:	08 95       	ret

0000711a <eDIP240_7_Display_send_packet>:
// Befehle/Daten zum Display senden
// Display_send_packet sends a packet to the display.
// The user has to provide a block of memory with the payload and the length of the payload
// In case of success 0 is returned, in case of an error -1 is returned
signed char eDIP240_7_Display_send_packet(char * data, unsigned char length)
{
    711a:	df 92       	push	r13
    711c:	ef 92       	push	r14
    711e:	ff 92       	push	r15
    7120:	0f 93       	push	r16
    7122:	1f 93       	push	r17
    7124:	df 93       	push	r29
    7126:	cf 93       	push	r28
    7128:	00 d0       	rcall	.+0      	; 0x712a <eDIP240_7_Display_send_packet+0x10>
    712a:	00 d0       	rcall	.+0      	; 0x712c <eDIP240_7_Display_send_packet+0x12>
    712c:	cd b7       	in	r28, 0x3d	; 61
    712e:	de b7       	in	r29, 0x3e	; 62
    7130:	18 2f       	mov	r17, r24
    7132:	09 2f       	mov	r16, r25
    7134:	d6 2e       	mov	r13, r22
 unsigned char i=0, checksum=0, ack=0;
 volatile unsigned long ack_timeout=100000;
    7136:	80 ea       	ldi	r24, 0xA0	; 160
    7138:	96 e8       	ldi	r25, 0x86	; 134
    713a:	a1 e0       	ldi	r26, 0x01	; 1
    713c:	b0 e0       	ldi	r27, 0x00	; 0
    713e:	89 83       	std	Y+1, r24	; 0x01
    7140:	9a 83       	std	Y+2, r25	; 0x02
    7142:	ab 83       	std	Y+3, r26	; 0x03
    7144:	bc 83       	std	Y+4, r27	; 0x04
#include <hal.h>

// Interface functions
void USART0_putchar(char data)
{
	putchar(data);
    7146:	60 91 a7 08 	lds	r22, 0x08A7
    714a:	70 91 a8 08 	lds	r23, 0x08A8
    714e:	81 e1       	ldi	r24, 0x11	; 17
    7150:	90 e0       	ldi	r25, 0x00	; 0
    7152:	0e 94 97 4c 	call	0x992e	; 0x992e <fputc>
 unsigned char i=0, checksum=0, ack=0;
 volatile unsigned long ack_timeout=100000;

 USART0_putchar(0x11);       // Send command (sending packet) to the display
 USART0_putchar(length);     // Send payload size to the display
 checksum = 0x11 + length;
    7156:	60 91 a7 08 	lds	r22, 0x08A7
    715a:	70 91 a8 08 	lds	r23, 0x08A8
    715e:	8d 2d       	mov	r24, r13
    7160:	90 e0       	ldi	r25, 0x00	; 0
    7162:	0e 94 97 4c 	call	0x992e	; 0x992e <fputc>
    7166:	81 e1       	ldi	r24, 0x11	; 17
    7168:	e8 2e       	mov	r14, r24
    716a:	ed 0c       	add	r14, r13
    716c:	21 2f       	mov	r18, r17
    716e:	30 2f       	mov	r19, r16
    7170:	c9 01       	movw	r24, r18
    7172:	8c 01       	movw	r16, r24
    7174:	ff 24       	eor	r15, r15
    7176:	0e c0       	rjmp	.+28     	; 0x7194 <eDIP240_7_Display_send_packet+0x7a>
#include <hal.h>

// Interface functions
void USART0_putchar(char data)
{
	putchar(data);
    7178:	60 91 a7 08 	lds	r22, 0x08A7
    717c:	70 91 a8 08 	lds	r23, 0x08A8
    7180:	f8 01       	movw	r30, r16
    7182:	80 81       	ld	r24, Z
    7184:	90 e0       	ldi	r25, 0x00	; 0
    7186:	0e 94 97 4c 	call	0x992e	; 0x992e <fputc>
 USART0_putchar(length);     // Send payload size to the display
 checksum = 0x11 + length;
 while(i < length)
 {
	USART0_putchar(data[i]);  // Send payload to the display
	checksum += data[i];
    718a:	f8 01       	movw	r30, r16
    718c:	81 91       	ld	r24, Z+
    718e:	8f 01       	movw	r16, r30
    7190:	e8 0e       	add	r14, r24
	i++;
    7192:	f3 94       	inc	r15
 volatile unsigned long ack_timeout=100000;

 USART0_putchar(0x11);       // Send command (sending packet) to the display
 USART0_putchar(length);     // Send payload size to the display
 checksum = 0x11 + length;
 while(i < length)
    7194:	fd 14       	cp	r15, r13
    7196:	80 f3       	brcs	.-32     	; 0x7178 <eDIP240_7_Display_send_packet+0x5e>
#include <hal.h>

// Interface functions
void USART0_putchar(char data)
{
	putchar(data);
    7198:	60 91 a7 08 	lds	r22, 0x08A7
    719c:	70 91 a8 08 	lds	r23, 0x08A8
    71a0:	8e 2d       	mov	r24, r14
    71a2:	90 e0       	ldi	r25, 0x00	; 0
    71a4:	0e 94 97 4c 	call	0x992e	; 0x992e <fputc>
 }
 USART0_putchar(checksum);   // Send checksum to the display
// while (Tx0Empty == 0) {}    // Wait for complete transmission of the packet
 do                          // Wait for receiving ack from the display
 {
	ack = USART0_getchar();
    71a8:	0e 94 fb 34 	call	0x69f6	; 0x69f6 <USART0_getchar>
	ack_timeout--;
    71ac:	29 81       	ldd	r18, Y+1	; 0x01
    71ae:	3a 81       	ldd	r19, Y+2	; 0x02
    71b0:	4b 81       	ldd	r20, Y+3	; 0x03
    71b2:	5c 81       	ldd	r21, Y+4	; 0x04
    71b4:	21 50       	subi	r18, 0x01	; 1
    71b6:	30 40       	sbci	r19, 0x00	; 0
    71b8:	40 40       	sbci	r20, 0x00	; 0
    71ba:	50 40       	sbci	r21, 0x00	; 0
    71bc:	29 83       	std	Y+1, r18	; 0x01
    71be:	3a 83       	std	Y+2, r19	; 0x02
    71c0:	4b 83       	std	Y+3, r20	; 0x03
    71c2:	5c 83       	std	Y+4, r21	; 0x04
 }while((ack != 0x06) && (ack_timeout > 0));
    71c4:	86 30       	cpi	r24, 0x06	; 6
    71c6:	51 f0       	breq	.+20     	; 0x71dc <eDIP240_7_Display_send_packet+0xc2>
    71c8:	89 81       	ldd	r24, Y+1	; 0x01
    71ca:	9a 81       	ldd	r25, Y+2	; 0x02
    71cc:	ab 81       	ldd	r26, Y+3	; 0x03
    71ce:	bc 81       	ldd	r27, Y+4	; 0x04
    71d0:	00 97       	sbiw	r24, 0x00	; 0
    71d2:	a1 05       	cpc	r26, r1
    71d4:	b1 05       	cpc	r27, r1
    71d6:	41 f7       	brne	.-48     	; 0x71a8 <eDIP240_7_Display_send_packet+0x8e>

 if (ack == 0x06) return 0;  // Success!
    71d8:	8f ef       	ldi	r24, 0xFF	; 255
    71da:	01 c0       	rjmp	.+2      	; 0x71de <eDIP240_7_Display_send_packet+0xc4>
    71dc:	80 e0       	ldi	r24, 0x00	; 0
 else return -1;             // No success! User has to repeat the packet
}
    71de:	0f 90       	pop	r0
    71e0:	0f 90       	pop	r0
    71e2:	0f 90       	pop	r0
    71e4:	0f 90       	pop	r0
    71e6:	cf 91       	pop	r28
    71e8:	df 91       	pop	r29
    71ea:	1f 91       	pop	r17
    71ec:	0f 91       	pop	r16
    71ee:	ff 90       	pop	r15
    71f0:	ef 90       	pop	r14
    71f2:	df 90       	pop	r13
    71f4:	08 95       	ret

000071f6 <eDIP240_7_Display_send_string_with_NULL>:



void eDIP240_7_Display_send_string_with_NULL(char * str)
{
 eDIP240_7_Display_send_packet(str, strlen(str) + 1);
    71f6:	dc 01       	movw	r26, r24
    71f8:	0d 90       	ld	r0, X+
    71fa:	00 20       	and	r0, r0
    71fc:	e9 f7       	brne	.-6      	; 0x71f8 <eDIP240_7_Display_send_string_with_NULL+0x2>
    71fe:	a8 1b       	sub	r26, r24
    7200:	6a 2f       	mov	r22, r26
    7202:	0e 94 8d 38 	call	0x711a	; 0x711a <eDIP240_7_Display_send_packet>
}
    7206:	08 95       	ret

00007208 <eDIP240_7_Display_send_string>:


// Use this for sending ascii commands to the Display
void eDIP240_7_Display_send_string(char * str)
{
 eDIP240_7_Display_send_packet(str, strlen(str));
    7208:	dc 01       	movw	r26, r24
    720a:	0d 90       	ld	r0, X+
    720c:	00 20       	and	r0, r0
    720e:	e9 f7       	brne	.-6      	; 0x720a <eDIP240_7_Display_send_string+0x2>
    7210:	11 97       	sbiw	r26, 0x01	; 1
    7212:	a8 1b       	sub	r26, r24
    7214:	b9 0b       	sbc	r27, r25
    7216:	6a 2f       	mov	r22, r26
    7218:	0e 94 8d 38 	call	0x711a	; 0x711a <eDIP240_7_Display_send_packet>
}
    721c:	08 95       	ret

0000721e <setLedMode>:



void setLedMode( uint8_t led, uint8_t mode )
{
	led = (led & 0x03) << 1;						// every LED has two bits and there are 4 LEDs
    721e:	83 70       	andi	r24, 0x03	; 3
	m_ledstate &= ~(0x03 << led);					// reset affected bits
    7220:	88 0f       	add	r24, r24
    7222:	23 e0       	ldi	r18, 0x03	; 3
    7224:	30 e0       	ldi	r19, 0x00	; 0
    7226:	08 2e       	mov	r0, r24
    7228:	01 c0       	rjmp	.+2      	; 0x722c <setLedMode+0xe>
    722a:	22 0f       	add	r18, r18
    722c:	0a 94       	dec	r0
    722e:	ea f7       	brpl	.-6      	; 0x722a <setLedMode+0xc>
	m_ledstate |= (mode << led) & (0x03 << led);		// and write the new value
    7230:	92 2f       	mov	r25, r18
    7232:	90 95       	com	r25
    7234:	40 91 94 03 	lds	r20, 0x0394
    7238:	94 23       	and	r25, r20
    723a:	01 c0       	rjmp	.+2      	; 0x723e <setLedMode+0x20>
    723c:	66 0f       	add	r22, r22
    723e:	8a 95       	dec	r24
    7240:	ea f7       	brpl	.-6      	; 0x723c <setLedMode+0x1e>
    7242:	26 23       	and	r18, r22
    7244:	92 2b       	or	r25, r18
    7246:	90 93 94 03 	sts	0x0394, r25
}
    724a:	08 95       	ret

0000724c <getLedMode>:



uint8_t getLedMode( uint8_t led )
{
	led = (led & 0x03) << 1;						// ...
    724c:	83 70       	andi	r24, 0x03	; 3
	return( (m_ledstate & (0x03 << led)) >> led );	// return the bits corresponding to the LED
    724e:	88 0f       	add	r24, r24
    7250:	23 e0       	ldi	r18, 0x03	; 3
    7252:	30 e0       	ldi	r19, 0x00	; 0
    7254:	08 2e       	mov	r0, r24
    7256:	02 c0       	rjmp	.+4      	; 0x725c <getLedMode+0x10>
    7258:	22 0f       	add	r18, r18
    725a:	33 1f       	adc	r19, r19
    725c:	0a 94       	dec	r0
    725e:	e2 f7       	brpl	.-8      	; 0x7258 <getLedMode+0xc>
    7260:	40 91 94 03 	lds	r20, 0x0394
    7264:	50 e0       	ldi	r21, 0x00	; 0
    7266:	24 23       	and	r18, r20
    7268:	35 23       	and	r19, r21
    726a:	02 c0       	rjmp	.+4      	; 0x7270 <getLedMode+0x24>
    726c:	35 95       	asr	r19
    726e:	27 95       	ror	r18
    7270:	8a 95       	dec	r24
    7272:	e2 f7       	brpl	.-8      	; 0x726c <getLedMode+0x20>
}
    7274:	82 2f       	mov	r24, r18
    7276:	08 95       	ret

00007278 <S2V>:


// Conversion functions

double S2V( uint8_t s ) { return (m_vbatt * ((double)s)) / 256.; }
    7278:	90 e0       	ldi	r25, 0x00	; 0
    727a:	a0 e0       	ldi	r26, 0x00	; 0
    727c:	b0 e0       	ldi	r27, 0x00	; 0
    727e:	bc 01       	movw	r22, r24
    7280:	cd 01       	movw	r24, r26
    7282:	0e 94 11 48 	call	0x9022	; 0x9022 <__floatunsisf>
    7286:	20 91 7a 02 	lds	r18, 0x027A
    728a:	30 91 7b 02 	lds	r19, 0x027B
    728e:	40 91 7c 02 	lds	r20, 0x027C
    7292:	50 91 7d 02 	lds	r21, 0x027D
    7296:	0e 94 e8 48 	call	0x91d0	; 0x91d0 <__mulsf3>
    729a:	20 e0       	ldi	r18, 0x00	; 0
    729c:	30 e0       	ldi	r19, 0x00	; 0
    729e:	40 e8       	ldi	r20, 0x80	; 128
    72a0:	5b e3       	ldi	r21, 0x3B	; 59
    72a2:	0e 94 e8 48 	call	0x91d0	; 0x91d0 <__mulsf3>
    72a6:	08 95       	ret

000072a8 <V2S>:
uint8_t V2S( double v ) { return (uint8_t) ( (v * 256.) / m_vbatt ); }
    72a8:	20 e0       	ldi	r18, 0x00	; 0
    72aa:	30 e0       	ldi	r19, 0x00	; 0
    72ac:	40 e8       	ldi	r20, 0x80	; 128
    72ae:	53 e4       	ldi	r21, 0x43	; 67
    72b0:	0e 94 e8 48 	call	0x91d0	; 0x91d0 <__mulsf3>
    72b4:	20 91 7a 02 	lds	r18, 0x027A
    72b8:	30 91 7b 02 	lds	r19, 0x027B
    72bc:	40 91 7c 02 	lds	r20, 0x027C
    72c0:	50 91 7d 02 	lds	r21, 0x027D
    72c4:	0e 94 7d 47 	call	0x8efa	; 0x8efa <__divsf3>
    72c8:	0e 94 e5 47 	call	0x8fca	; 0x8fca <__fixunssfsi>
    72cc:	dc 01       	movw	r26, r24
    72ce:	cb 01       	movw	r24, r22
    72d0:	08 95       	ret

000072d2 <setBits>:

uint8_t setBits( uint8_t data, uint8_t mask, uint8_t bits ) { return( ( data & mask ) | bits ); }
    72d2:	68 23       	and	r22, r24
    72d4:	84 2f       	mov	r24, r20
    72d6:	86 2b       	or	r24, r22
    72d8:	08 95       	ret

000072da <prescalerSec2Hex>:



// For a given time period (s), compute the value for the prescaler register
uint8_t prescalerSec2Hex(double t)
{
    72da:	ef 92       	push	r14
    72dc:	ff 92       	push	r15
    72de:	0f 93       	push	r16
    72e0:	1f 93       	push	r17
    72e2:	7b 01       	movw	r14, r22
    72e4:	8c 01       	movw	r16, r24
	if (t > 255.0 * 152.0)   // 38760 sec = 10h46'00''
    72e6:	20 e0       	ldi	r18, 0x00	; 0
    72e8:	38 e6       	ldi	r19, 0x68	; 104
    72ea:	47 e1       	ldi	r20, 0x17	; 23
    72ec:	57 e4       	ldi	r21, 0x47	; 71
    72ee:	0e 94 9f 48 	call	0x913e	; 0x913e <__gesf2>
    72f2:	18 16       	cp	r1, r24
    72f4:	14 f4       	brge	.+4      	; 0x72fa <prescalerSec2Hex+0x20>
    72f6:	8f ef       	ldi	r24, 0xFF	; 255
    72f8:	1d c0       	rjmp	.+58     	; 0x7334 <prescalerSec2Hex+0x5a>
		return( 0xFF );
	else if (t >= 1./152.0)
    72fa:	c8 01       	movw	r24, r16
    72fc:	b7 01       	movw	r22, r14
    72fe:	26 e3       	ldi	r18, 0x36	; 54
    7300:	34 e9       	ldi	r19, 0x94	; 148
    7302:	47 ed       	ldi	r20, 0xD7	; 215
    7304:	5b e3       	ldi	r21, 0x3B	; 59
    7306:	0e 94 9f 48 	call	0x913e	; 0x913e <__gesf2>
    730a:	87 ff       	sbrs	r24, 7
    730c:	02 c0       	rjmp	.+4      	; 0x7312 <prescalerSec2Hex+0x38>
    730e:	80 e0       	ldi	r24, 0x00	; 0
    7310:	11 c0       	rjmp	.+34     	; 0x7334 <prescalerSec2Hex+0x5a>
		return( (uint8_t) (t * 152 - 1) );
    7312:	c8 01       	movw	r24, r16
    7314:	b7 01       	movw	r22, r14
    7316:	20 e0       	ldi	r18, 0x00	; 0
    7318:	30 e0       	ldi	r19, 0x00	; 0
    731a:	48 e1       	ldi	r20, 0x18	; 24
    731c:	53 e4       	ldi	r21, 0x43	; 67
    731e:	0e 94 e8 48 	call	0x91d0	; 0x91d0 <__mulsf3>
    7322:	20 e0       	ldi	r18, 0x00	; 0
    7324:	30 e0       	ldi	r19, 0x00	; 0
    7326:	40 e8       	ldi	r20, 0x80	; 128
    7328:	5f e3       	ldi	r21, 0x3F	; 63
    732a:	0e 94 18 47 	call	0x8e30	; 0x8e30 <__subsf3>
    732e:	0e 94 e5 47 	call	0x8fca	; 0x8fca <__fixunssfsi>
    7332:	86 2f       	mov	r24, r22
	else
		return( 0x00 );
}
    7334:	1f 91       	pop	r17
    7336:	0f 91       	pop	r16
    7338:	ff 90       	pop	r15
    733a:	ef 90       	pop	r14
    733c:	08 95       	ret

0000733e <pwmFrac2Hex>:



// For a given fraction ([0; 1]), compute the value for the PWM register
uint8_t pwmFrac2Hex(double fraction)
{
    733e:	ef 92       	push	r14
    7340:	ff 92       	push	r15
    7342:	0f 93       	push	r16
    7344:	1f 93       	push	r17
    7346:	7b 01       	movw	r14, r22
    7348:	8c 01       	movw	r16, r24
	if (fraction >= 1.0)
    734a:	20 e0       	ldi	r18, 0x00	; 0
    734c:	30 e0       	ldi	r19, 0x00	; 0
    734e:	40 e8       	ldi	r20, 0x80	; 128
    7350:	5f e3       	ldi	r21, 0x3F	; 63
    7352:	0e 94 9f 48 	call	0x913e	; 0x913e <__gesf2>
    7356:	88 23       	and	r24, r24
    7358:	14 f0       	brlt	.+4      	; 0x735e <pwmFrac2Hex+0x20>
    735a:	8f ef       	ldi	r24, 0xFF	; 255
    735c:	17 c0       	rjmp	.+46     	; 0x738c <pwmFrac2Hex+0x4e>
		return( 0xFF );
	else if (fraction >= 1.0/256.0)
    735e:	c8 01       	movw	r24, r16
    7360:	b7 01       	movw	r22, r14
    7362:	20 e0       	ldi	r18, 0x00	; 0
    7364:	30 e0       	ldi	r19, 0x00	; 0
    7366:	40 e8       	ldi	r20, 0x80	; 128
    7368:	5b e3       	ldi	r21, 0x3B	; 59
    736a:	0e 94 9f 48 	call	0x913e	; 0x913e <__gesf2>
    736e:	87 ff       	sbrs	r24, 7
    7370:	02 c0       	rjmp	.+4      	; 0x7376 <pwmFrac2Hex+0x38>
    7372:	80 e0       	ldi	r24, 0x00	; 0
    7374:	0b c0       	rjmp	.+22     	; 0x738c <pwmFrac2Hex+0x4e>
		return( (uint8_t) (fraction * 256) );
    7376:	c8 01       	movw	r24, r16
    7378:	b7 01       	movw	r22, r14
    737a:	20 e0       	ldi	r18, 0x00	; 0
    737c:	30 e0       	ldi	r19, 0x00	; 0
    737e:	40 e8       	ldi	r20, 0x80	; 128
    7380:	53 e4       	ldi	r21, 0x43	; 67
    7382:	0e 94 e8 48 	call	0x91d0	; 0x91d0 <__mulsf3>
    7386:	0e 94 e5 47 	call	0x8fca	; 0x8fca <__fixunssfsi>
    738a:	86 2f       	mov	r24, r22
	else
		return( 0x00 );
}
    738c:	1f 91       	pop	r17
    738e:	0f 91       	pop	r16
    7390:	ff 90       	pop	r15
    7392:	ef 90       	pop	r14
    7394:	08 95       	ret

00007396 <TUM_LKN_Sensorboard_getCurrentStep>:
	m_currentstep = (m_currentstep + 7) & 0x07;
}



unsigned char TUM_LKN_Sensorboard_getCurrentStep() { return m_currentstep; }
    7396:	80 91 8a 03 	lds	r24, 0x038A
    739a:	08 95       	ret

0000739c <TUM_LKN_Sensorboard_setControl0>:


// We can define two pairs of prescaler/PWM.
// blinkPeriod is in seconds, dutyCycle is in [0; 1]
void TUM_LKN_Sensorboard_setControl0( double blinkPeriod, double dutyCycle )
{
    739c:	ef 92       	push	r14
    739e:	ff 92       	push	r15
    73a0:	0f 93       	push	r16
    73a2:	1f 93       	push	r17
    73a4:	79 01       	movw	r14, r18
    73a6:	8a 01       	movw	r16, r20
	m_prescaler[ 0 ] = prescalerSec2Hex( blinkPeriod );
    73a8:	0e 94 6d 39 	call	0x72da	; 0x72da <prescalerSec2Hex>
    73ac:	80 93 95 03 	sts	0x0395, r24


// For a given fraction ([0; 1]), compute the value for the PWM register
uint8_t pwmFrac2Hex(double fraction)
{
	if (fraction >= 1.0)
    73b0:	c8 01       	movw	r24, r16
    73b2:	b7 01       	movw	r22, r14
    73b4:	20 e0       	ldi	r18, 0x00	; 0
    73b6:	30 e0       	ldi	r19, 0x00	; 0
    73b8:	40 e8       	ldi	r20, 0x80	; 128
    73ba:	5f e3       	ldi	r21, 0x3F	; 63
    73bc:	0e 94 9f 48 	call	0x913e	; 0x913e <__gesf2>
    73c0:	88 23       	and	r24, r24
    73c2:	14 f0       	brlt	.+4      	; 0x73c8 <TUM_LKN_Sensorboard_setControl0+0x2c>
    73c4:	6f ef       	ldi	r22, 0xFF	; 255
    73c6:	16 c0       	rjmp	.+44     	; 0x73f4 <TUM_LKN_Sensorboard_setControl0+0x58>
		return( 0xFF );
	else if (fraction >= 1.0/256.0)
    73c8:	c8 01       	movw	r24, r16
    73ca:	b7 01       	movw	r22, r14
    73cc:	20 e0       	ldi	r18, 0x00	; 0
    73ce:	30 e0       	ldi	r19, 0x00	; 0
    73d0:	40 e8       	ldi	r20, 0x80	; 128
    73d2:	5b e3       	ldi	r21, 0x3B	; 59
    73d4:	0e 94 9f 48 	call	0x913e	; 0x913e <__gesf2>
    73d8:	87 ff       	sbrs	r24, 7
    73da:	02 c0       	rjmp	.+4      	; 0x73e0 <TUM_LKN_Sensorboard_setControl0+0x44>
    73dc:	60 e0       	ldi	r22, 0x00	; 0
    73de:	0a c0       	rjmp	.+20     	; 0x73f4 <TUM_LKN_Sensorboard_setControl0+0x58>
		return( (uint8_t) (fraction * 256) );
    73e0:	c8 01       	movw	r24, r16
    73e2:	b7 01       	movw	r22, r14
    73e4:	20 e0       	ldi	r18, 0x00	; 0
    73e6:	30 e0       	ldi	r19, 0x00	; 0
    73e8:	40 e8       	ldi	r20, 0x80	; 128
    73ea:	53 e4       	ldi	r21, 0x43	; 67
    73ec:	0e 94 e8 48 	call	0x91d0	; 0x91d0 <__mulsf3>
    73f0:	0e 94 e5 47 	call	0x8fca	; 0x8fca <__fixunssfsi>
// We can define two pairs of prescaler/PWM.
// blinkPeriod is in seconds, dutyCycle is in [0; 1]
void TUM_LKN_Sensorboard_setControl0( double blinkPeriod, double dutyCycle )
{
	m_prescaler[ 0 ] = prescalerSec2Hex( blinkPeriod );
	m_pwm[ 0 ] = pwmFrac2Hex( dutyCycle );
    73f4:	60 93 7e 02 	sts	0x027E, r22
}
    73f8:	1f 91       	pop	r17
    73fa:	0f 91       	pop	r16
    73fc:	ff 90       	pop	r15
    73fe:	ef 90       	pop	r14
    7400:	08 95       	ret

00007402 <TUM_LKN_Sensorboard_setControl1>:



void TUM_LKN_Sensorboard_setControl1( double blinkPeriod, double dutyCycle )
{
    7402:	ef 92       	push	r14
    7404:	ff 92       	push	r15
    7406:	0f 93       	push	r16
    7408:	1f 93       	push	r17
    740a:	79 01       	movw	r14, r18
    740c:	8a 01       	movw	r16, r20
	m_prescaler[ 1 ] = prescalerSec2Hex( blinkPeriod );
    740e:	0e 94 6d 39 	call	0x72da	; 0x72da <prescalerSec2Hex>
    7412:	80 93 96 03 	sts	0x0396, r24


// For a given fraction ([0; 1]), compute the value for the PWM register
uint8_t pwmFrac2Hex(double fraction)
{
	if (fraction >= 1.0)
    7416:	c8 01       	movw	r24, r16
    7418:	b7 01       	movw	r22, r14
    741a:	20 e0       	ldi	r18, 0x00	; 0
    741c:	30 e0       	ldi	r19, 0x00	; 0
    741e:	40 e8       	ldi	r20, 0x80	; 128
    7420:	5f e3       	ldi	r21, 0x3F	; 63
    7422:	0e 94 9f 48 	call	0x913e	; 0x913e <__gesf2>
    7426:	88 23       	and	r24, r24
    7428:	14 f0       	brlt	.+4      	; 0x742e <TUM_LKN_Sensorboard_setControl1+0x2c>
    742a:	6f ef       	ldi	r22, 0xFF	; 255
    742c:	16 c0       	rjmp	.+44     	; 0x745a <TUM_LKN_Sensorboard_setControl1+0x58>
		return( 0xFF );
	else if (fraction >= 1.0/256.0)
    742e:	c8 01       	movw	r24, r16
    7430:	b7 01       	movw	r22, r14
    7432:	20 e0       	ldi	r18, 0x00	; 0
    7434:	30 e0       	ldi	r19, 0x00	; 0
    7436:	40 e8       	ldi	r20, 0x80	; 128
    7438:	5b e3       	ldi	r21, 0x3B	; 59
    743a:	0e 94 9f 48 	call	0x913e	; 0x913e <__gesf2>
    743e:	87 ff       	sbrs	r24, 7
    7440:	02 c0       	rjmp	.+4      	; 0x7446 <TUM_LKN_Sensorboard_setControl1+0x44>
    7442:	60 e0       	ldi	r22, 0x00	; 0
    7444:	0a c0       	rjmp	.+20     	; 0x745a <TUM_LKN_Sensorboard_setControl1+0x58>
		return( (uint8_t) (fraction * 256) );
    7446:	c8 01       	movw	r24, r16
    7448:	b7 01       	movw	r22, r14
    744a:	20 e0       	ldi	r18, 0x00	; 0
    744c:	30 e0       	ldi	r19, 0x00	; 0
    744e:	40 e8       	ldi	r20, 0x80	; 128
    7450:	53 e4       	ldi	r21, 0x43	; 67
    7452:	0e 94 e8 48 	call	0x91d0	; 0x91d0 <__mulsf3>
    7456:	0e 94 e5 47 	call	0x8fca	; 0x8fca <__fixunssfsi>


void TUM_LKN_Sensorboard_setControl1( double blinkPeriod, double dutyCycle )
{
	m_prescaler[ 1 ] = prescalerSec2Hex( blinkPeriod );
	m_pwm[ 1 ] = pwmFrac2Hex( dutyCycle );
    745a:	60 93 7f 02 	sts	0x027F, r22
}
    745e:	1f 91       	pop	r17
    7460:	0f 91       	pop	r16
    7462:	ff 90       	pop	r15
    7464:	ef 90       	pop	r14
    7466:	08 95       	ret

00007468 <TUM_LKN_Sensorboard_setBrightness0>:



void TUM_LKN_Sensorboard_setBrightness0( double dutyCycle )
{
    7468:	ef 92       	push	r14
    746a:	ff 92       	push	r15
    746c:	0f 93       	push	r16
    746e:	1f 93       	push	r17
    7470:	7b 01       	movw	r14, r22
    7472:	8c 01       	movw	r16, r24
	m_prescaler[ 0 ] = 0x00;   // Highest frequency possible
    7474:	10 92 95 03 	sts	0x0395, r1


// For a given fraction ([0; 1]), compute the value for the PWM register
uint8_t pwmFrac2Hex(double fraction)
{
	if (fraction >= 1.0)
    7478:	20 e0       	ldi	r18, 0x00	; 0
    747a:	30 e0       	ldi	r19, 0x00	; 0
    747c:	40 e8       	ldi	r20, 0x80	; 128
    747e:	5f e3       	ldi	r21, 0x3F	; 63
    7480:	0e 94 9f 48 	call	0x913e	; 0x913e <__gesf2>
    7484:	88 23       	and	r24, r24
    7486:	14 f0       	brlt	.+4      	; 0x748c <TUM_LKN_Sensorboard_setBrightness0+0x24>
    7488:	6f ef       	ldi	r22, 0xFF	; 255
    748a:	16 c0       	rjmp	.+44     	; 0x74b8 <TUM_LKN_Sensorboard_setBrightness0+0x50>
		return( 0xFF );
	else if (fraction >= 1.0/256.0)
    748c:	c8 01       	movw	r24, r16
    748e:	b7 01       	movw	r22, r14
    7490:	20 e0       	ldi	r18, 0x00	; 0
    7492:	30 e0       	ldi	r19, 0x00	; 0
    7494:	40 e8       	ldi	r20, 0x80	; 128
    7496:	5b e3       	ldi	r21, 0x3B	; 59
    7498:	0e 94 9f 48 	call	0x913e	; 0x913e <__gesf2>
    749c:	87 ff       	sbrs	r24, 7
    749e:	02 c0       	rjmp	.+4      	; 0x74a4 <TUM_LKN_Sensorboard_setBrightness0+0x3c>
    74a0:	60 e0       	ldi	r22, 0x00	; 0
    74a2:	0a c0       	rjmp	.+20     	; 0x74b8 <TUM_LKN_Sensorboard_setBrightness0+0x50>
		return( (uint8_t) (fraction * 256) );
    74a4:	c8 01       	movw	r24, r16
    74a6:	b7 01       	movw	r22, r14
    74a8:	20 e0       	ldi	r18, 0x00	; 0
    74aa:	30 e0       	ldi	r19, 0x00	; 0
    74ac:	40 e8       	ldi	r20, 0x80	; 128
    74ae:	53 e4       	ldi	r21, 0x43	; 67
    74b0:	0e 94 e8 48 	call	0x91d0	; 0x91d0 <__mulsf3>
    74b4:	0e 94 e5 47 	call	0x8fca	; 0x8fca <__fixunssfsi>


void TUM_LKN_Sensorboard_setBrightness0( double dutyCycle )
{
	m_prescaler[ 0 ] = 0x00;   // Highest frequency possible
	m_pwm[ 0 ] = pwmFrac2Hex( dutyCycle );
    74b8:	60 93 7e 02 	sts	0x027E, r22
}
    74bc:	1f 91       	pop	r17
    74be:	0f 91       	pop	r16
    74c0:	ff 90       	pop	r15
    74c2:	ef 90       	pop	r14
    74c4:	08 95       	ret

000074c6 <TUM_LKN_Sensorboard_setBrightness1>:



void TUM_LKN_Sensorboard_setBrightness1( double dutyCycle )
{
    74c6:	ef 92       	push	r14
    74c8:	ff 92       	push	r15
    74ca:	0f 93       	push	r16
    74cc:	1f 93       	push	r17
    74ce:	7b 01       	movw	r14, r22
    74d0:	8c 01       	movw	r16, r24
	m_prescaler[ 1 ] = 0x00;   // Highest frequency possible
    74d2:	10 92 96 03 	sts	0x0396, r1


// For a given fraction ([0; 1]), compute the value for the PWM register
uint8_t pwmFrac2Hex(double fraction)
{
	if (fraction >= 1.0)
    74d6:	20 e0       	ldi	r18, 0x00	; 0
    74d8:	30 e0       	ldi	r19, 0x00	; 0
    74da:	40 e8       	ldi	r20, 0x80	; 128
    74dc:	5f e3       	ldi	r21, 0x3F	; 63
    74de:	0e 94 9f 48 	call	0x913e	; 0x913e <__gesf2>
    74e2:	88 23       	and	r24, r24
    74e4:	14 f0       	brlt	.+4      	; 0x74ea <TUM_LKN_Sensorboard_setBrightness1+0x24>
    74e6:	6f ef       	ldi	r22, 0xFF	; 255
    74e8:	16 c0       	rjmp	.+44     	; 0x7516 <TUM_LKN_Sensorboard_setBrightness1+0x50>
		return( 0xFF );
	else if (fraction >= 1.0/256.0)
    74ea:	c8 01       	movw	r24, r16
    74ec:	b7 01       	movw	r22, r14
    74ee:	20 e0       	ldi	r18, 0x00	; 0
    74f0:	30 e0       	ldi	r19, 0x00	; 0
    74f2:	40 e8       	ldi	r20, 0x80	; 128
    74f4:	5b e3       	ldi	r21, 0x3B	; 59
    74f6:	0e 94 9f 48 	call	0x913e	; 0x913e <__gesf2>
    74fa:	87 ff       	sbrs	r24, 7
    74fc:	02 c0       	rjmp	.+4      	; 0x7502 <TUM_LKN_Sensorboard_setBrightness1+0x3c>
    74fe:	60 e0       	ldi	r22, 0x00	; 0
    7500:	0a c0       	rjmp	.+20     	; 0x7516 <TUM_LKN_Sensorboard_setBrightness1+0x50>
		return( (uint8_t) (fraction * 256) );
    7502:	c8 01       	movw	r24, r16
    7504:	b7 01       	movw	r22, r14
    7506:	20 e0       	ldi	r18, 0x00	; 0
    7508:	30 e0       	ldi	r19, 0x00	; 0
    750a:	40 e8       	ldi	r20, 0x80	; 128
    750c:	53 e4       	ldi	r21, 0x43	; 67
    750e:	0e 94 e8 48 	call	0x91d0	; 0x91d0 <__mulsf3>
    7512:	0e 94 e5 47 	call	0x8fca	; 0x8fca <__fixunssfsi>


void TUM_LKN_Sensorboard_setBrightness1( double dutyCycle )
{
	m_prescaler[ 1 ] = 0x00;   // Highest frequency possible
	m_pwm[ 1 ] = pwmFrac2Hex( dutyCycle );
    7516:	60 93 7f 02 	sts	0x027F, r22
}
    751a:	1f 91       	pop	r17
    751c:	0f 91       	pop	r16
    751e:	ff 90       	pop	r15
    7520:	ef 90       	pop	r14
    7522:	08 95       	ret

00007524 <TWI_write>:
void TUM_LKN_Sensorboard_greenBlink( uint8_t ctl ) 	{ setLedMode( 2, 0x02 | (ctl & 0x01) ); setLeds(); }



void TWI_write(unsigned char address, unsigned char length, unsigned char* payload)
{
    7524:	98 2f       	mov	r25, r24
	unsigned char datapointer;

	PORTD |= 0x03;		//enable Portpin pullups
    7526:	82 b3       	in	r24, 0x12	; 18
    7528:	83 60       	ori	r24, 0x03	; 3
    752a:	82 bb       	out	0x12, r24	; 18

	TWSR = 0;                             // set prescaler == 0
    752c:	10 92 71 00 	sts	0x0071, r1
	//TWBR = (F_CPU / 50000UL - 16) / 2;   // set I2C baud rate
	TWBR = 62;
    7530:	8e e3       	ldi	r24, 0x3E	; 62
    7532:	80 93 70 00 	sts	0x0070, r24
	TWAR = 0;
    7536:	10 92 72 00 	sts	0x0072, r1
	TWCR = 0;
    753a:	10 92 74 00 	sts	0x0074, r1

	TWCR = (1<<TWINT)|(1<<TWSTA)|(1<<TWEN);
    753e:	84 ea       	ldi	r24, 0xA4	; 164
    7540:	80 93 74 00 	sts	0x0074, r24
	while (!(TWCR & (1<<TWINT)));
    7544:	80 91 74 00 	lds	r24, 0x0074
    7548:	87 ff       	sbrs	r24, 7
    754a:	fc cf       	rjmp	.-8      	; 0x7544 <TWI_write+0x20>
//		if ((TWSR & 0xF8) != START) {} //ERROR
	TWDR = address;
    754c:	90 93 73 00 	sts	0x0073, r25
	TWCR = (1<<TWINT) | (1<<TWEN);								//clear TWINT to start transmission of address
    7550:	84 e8       	ldi	r24, 0x84	; 132
    7552:	80 93 74 00 	sts	0x0074, r24
	while (!(TWCR & (1<<TWINT)));									//wait until transmission is complete
    7556:	80 91 74 00 	lds	r24, 0x0074
    755a:	87 ff       	sbrs	r24, 7
    755c:	fc cf       	rjmp	.-8      	; 0x7556 <TWI_write+0x32>
    755e:	fa 01       	movw	r30, r20
    7560:	90 e0       	ldi	r25, 0x00	; 0
//	  if ((TWSR & 0xF8) != MT_SLA_ACK) {}  //ERROR
	for(datapointer = 0; datapointer < length; datapointer++)
	{
		TWDR = payload[datapointer];
		TWCR = (1<<TWINT) | (1<<TWEN);							//clear TWINT to start transmission of data
    7562:	24 e8       	ldi	r18, 0x84	; 132
    7564:	0b c0       	rjmp	.+22     	; 0x757c <TWI_write+0x58>
	TWCR = (1<<TWINT) | (1<<TWEN);								//clear TWINT to start transmission of address
	while (!(TWCR & (1<<TWINT)));									//wait until transmission is complete
//	  if ((TWSR & 0xF8) != MT_SLA_ACK) {}  //ERROR
	for(datapointer = 0; datapointer < length; datapointer++)
	{
		TWDR = payload[datapointer];
    7566:	80 81       	ld	r24, Z
    7568:	80 93 73 00 	sts	0x0073, r24
		TWCR = (1<<TWINT) | (1<<TWEN);							//clear TWINT to start transmission of data
    756c:	20 93 74 00 	sts	0x0074, r18
		while (!(TWCR & (1<<TWINT)));								//wait until transmission is complete
    7570:	80 91 74 00 	lds	r24, 0x0074
    7574:	87 ff       	sbrs	r24, 7
    7576:	fc cf       	rjmp	.-8      	; 0x7570 <TWI_write+0x4c>
//		if ((TWSR & 0xF8) != START) {} //ERROR
	TWDR = address;
	TWCR = (1<<TWINT) | (1<<TWEN);								//clear TWINT to start transmission of address
	while (!(TWCR & (1<<TWINT)));									//wait until transmission is complete
//	  if ((TWSR & 0xF8) != MT_SLA_ACK) {}  //ERROR
	for(datapointer = 0; datapointer < length; datapointer++)
    7578:	9f 5f       	subi	r25, 0xFF	; 255
    757a:	31 96       	adiw	r30, 0x01	; 1
    757c:	96 17       	cp	r25, r22
    757e:	98 f3       	brcs	.-26     	; 0x7566 <TWI_write+0x42>
		TWDR = payload[datapointer];
		TWCR = (1<<TWINT) | (1<<TWEN);							//clear TWINT to start transmission of data
		while (!(TWCR & (1<<TWINT)));								//wait until transmission is complete
//	  if ((TWSR & 0xF8) != MT_DATA_ACK) {} //ERROR
	}
	TWCR = (1<<TWINT)|(1<<TWEN)|(1<<TWSTO);				//Stop condition
    7580:	84 e9       	ldi	r24, 0x94	; 148
    7582:	80 93 74 00 	sts	0x0074, r24
}
    7586:	08 95       	ret

00007588 <TWI_read>:



void TWI_read(unsigned char address, unsigned char length, unsigned char* payload)
{
    7588:	98 2f       	mov	r25, r24
	unsigned char datapointer;

	address |= 0x01;	//Set read mode on i2c

	PORTD |= 0x03;		//enable Portpin pullups
    758a:	82 b3       	in	r24, 0x12	; 18
    758c:	83 60       	ori	r24, 0x03	; 3
    758e:	82 bb       	out	0x12, r24	; 18

	TWSR = 0;                             				// set prescaler == 0
    7590:	10 92 71 00 	sts	0x0071, r1
	//TWBR = (F_CPU / 50000UL - 16) / 2;   				// set I2C baud rate
	TWBR = 62;
    7594:	8e e3       	ldi	r24, 0x3E	; 62
    7596:	80 93 70 00 	sts	0x0070, r24
	TWAR = 0;
    759a:	10 92 72 00 	sts	0x0072, r1
	TWCR = 0;
    759e:	10 92 74 00 	sts	0x0074, r1

	TWCR = (1<<TWINT)|(1<<TWSTA)|(1<<TWEN);
    75a2:	84 ea       	ldi	r24, 0xA4	; 164
    75a4:	80 93 74 00 	sts	0x0074, r24
	while (!(TWCR & (1<<TWINT)));
    75a8:	80 91 74 00 	lds	r24, 0x0074
    75ac:	87 ff       	sbrs	r24, 7
    75ae:	fc cf       	rjmp	.-8      	; 0x75a8 <TWI_read+0x20>

void TWI_read(unsigned char address, unsigned char length, unsigned char* payload)
{
	unsigned char datapointer;

	address |= 0x01;	//Set read mode on i2c
    75b0:	91 60       	ori	r25, 0x01	; 1
	TWCR = 0;

	TWCR = (1<<TWINT)|(1<<TWSTA)|(1<<TWEN);
	while (!(TWCR & (1<<TWINT)));
//		if ((TWSR & 0xF8) != START) {} //ERROR
	TWDR = address;
    75b2:	90 93 73 00 	sts	0x0073, r25
	TWCR = (1<<TWINT) | (1<<TWEN);								//clear TWINT to start transmission of address
    75b6:	84 e8       	ldi	r24, 0x84	; 132
    75b8:	80 93 74 00 	sts	0x0074, r24
	while (!(TWCR & (1<<TWINT)));									//wait until transmission is complete
    75bc:	80 91 74 00 	lds	r24, 0x0074
    75c0:	87 ff       	sbrs	r24, 7
    75c2:	fc cf       	rjmp	.-8      	; 0x75bc <TWI_read+0x34>
    75c4:	fa 01       	movw	r30, r20
    75c6:	40 e0       	ldi	r20, 0x00	; 0
//	  if ((TWSR & 0xF8) != MT_SLA_ACK) {}  //ERROR
	for(datapointer = 0; datapointer < length; datapointer++)
	{
		//is this the correct place for reading???
		if (datapointer < (length - 1))	TWCR = (1<<TWINT)|(1<<TWEN)|(1<<TWEA);			//clear TWINT to start transmission of data, send acknowledge
    75c8:	26 2f       	mov	r18, r22
    75ca:	30 e0       	ldi	r19, 0x00	; 0
    75cc:	21 50       	subi	r18, 0x01	; 1
    75ce:	30 40       	sbci	r19, 0x00	; 0
		else 														TWCR = (1<<TWINT)|(1<<TWEN);								//clear TWINT to start transmission of data, send not acknowledge (last byte)
    75d0:	74 e8       	ldi	r23, 0x84	; 132
	while (!(TWCR & (1<<TWINT)));									//wait until transmission is complete
//	  if ((TWSR & 0xF8) != MT_SLA_ACK) {}  //ERROR
	for(datapointer = 0; datapointer < length; datapointer++)
	{
		//is this the correct place for reading???
		if (datapointer < (length - 1))	TWCR = (1<<TWINT)|(1<<TWEN)|(1<<TWEA);			//clear TWINT to start transmission of data, send acknowledge
    75d2:	54 ec       	ldi	r21, 0xC4	; 196
    75d4:	12 c0       	rjmp	.+36     	; 0x75fa <TWI_read+0x72>
    75d6:	84 2f       	mov	r24, r20
    75d8:	90 e0       	ldi	r25, 0x00	; 0
    75da:	82 17       	cp	r24, r18
    75dc:	93 07       	cpc	r25, r19
    75de:	1c f4       	brge	.+6      	; 0x75e6 <TWI_read+0x5e>
    75e0:	50 93 74 00 	sts	0x0074, r21
    75e4:	02 c0       	rjmp	.+4      	; 0x75ea <TWI_read+0x62>
		else 														TWCR = (1<<TWINT)|(1<<TWEN);								//clear TWINT to start transmission of data, send not acknowledge (last byte)
    75e6:	70 93 74 00 	sts	0x0074, r23
		while (!(TWCR & (1<<TWINT)));								//wait until transmission is complete
    75ea:	80 91 74 00 	lds	r24, 0x0074
    75ee:	87 ff       	sbrs	r24, 7
    75f0:	fc cf       	rjmp	.-8      	; 0x75ea <TWI_read+0x62>
		payload[datapointer] = TWDR;
    75f2:	80 91 73 00 	lds	r24, 0x0073
    75f6:	81 93       	st	Z+, r24
//		if ((TWSR & 0xF8) != START) {} //ERROR
	TWDR = address;
	TWCR = (1<<TWINT) | (1<<TWEN);								//clear TWINT to start transmission of address
	while (!(TWCR & (1<<TWINT)));									//wait until transmission is complete
//	  if ((TWSR & 0xF8) != MT_SLA_ACK) {}  //ERROR
	for(datapointer = 0; datapointer < length; datapointer++)
    75f8:	4f 5f       	subi	r20, 0xFF	; 255
    75fa:	46 17       	cp	r20, r22
    75fc:	60 f3       	brcs	.-40     	; 0x75d6 <TWI_read+0x4e>
		else 														TWCR = (1<<TWINT)|(1<<TWEN);								//clear TWINT to start transmission of data, send not acknowledge (last byte)
		while (!(TWCR & (1<<TWINT)));								//wait until transmission is complete
		payload[datapointer] = TWDR;
		//or should be read here???
	}
	TWCR = (1<<TWINT)|(1<<TWEN)|(1<<TWSTO);				//Stop condition
    75fe:	84 e9       	ldi	r24, 0x94	; 148
    7600:	80 93 74 00 	sts	0x0074, r24
}
    7604:	08 95       	ret

00007606 <i2cAction>:



void i2cAction()
{
	if( i2cDataDirection == i2cWrite )
    7606:	80 91 a1 08 	lds	r24, 0x08A1
    760a:	88 23       	and	r24, r24
    760c:	49 f4       	brne	.+18     	; 0x7620 <i2cAction+0x1a>
	{
		TWI_write(i2cDestination, i2cDataLen, i2cData);
    760e:	80 91 a3 08 	lds	r24, 0x08A3
    7612:	60 91 a0 08 	lds	r22, 0x08A0
    7616:	4b e8       	ldi	r20, 0x8B	; 139
    7618:	53 e0       	ldi	r21, 0x03	; 3
    761a:	0e 94 92 3a 	call	0x7524	; 0x7524 <TWI_write>
    761e:	08 95       	ret
	}
	else
	{
		TWI_read(i2cDestination, i2cDataLen, i2cData);
    7620:	80 91 a3 08 	lds	r24, 0x08A3
    7624:	60 91 a0 08 	lds	r22, 0x08A0
    7628:	4b e8       	ldi	r20, 0x8B	; 139
    762a:	53 e0       	ldi	r21, 0x03	; 3
    762c:	0e 94 c4 3a 	call	0x7588	; 0x7588 <TWI_read>
    7630:	08 95       	ret

00007632 <setLeds>:

// Apply current values of m_led0... m_led3
void setLeds()
{
	// This is setting both prescalers and both PWMs
	i2cDataLen = 6;
    7632:	86 e0       	ldi	r24, 0x06	; 6
    7634:	80 93 a0 08 	sts	0x08A0, r24
	i2cData[0] = REG_LED_PSC0 | REG_LED_AUTOINCREMENT;
    7638:	81 e1       	ldi	r24, 0x11	; 17
    763a:	80 93 8b 03 	sts	0x038B, r24
	i2cData[1] = m_prescaler[ 0 ];
    763e:	80 91 95 03 	lds	r24, 0x0395
    7642:	80 93 8c 03 	sts	0x038C, r24
	i2cData[2] = m_pwm[ 0 ];
    7646:	80 91 7e 02 	lds	r24, 0x027E
    764a:	80 93 8d 03 	sts	0x038D, r24
	i2cData[3] = m_prescaler[ 1 ];
    764e:	80 91 96 03 	lds	r24, 0x0396
    7652:	80 93 8e 03 	sts	0x038E, r24
	i2cData[4] = m_pwm[ 1 ];
    7656:	80 91 7f 02 	lds	r24, 0x027F
    765a:	80 93 8f 03 	sts	0x038F, r24
	i2cData[5] = m_ledstate;
    765e:	80 91 94 03 	lds	r24, 0x0394
    7662:	80 93 90 03 	sts	0x0390, r24
	i2cDataDirection = i2cWrite;
    7666:	10 92 a1 08 	sts	0x08A1, r1
	i2cDestination = PCA9533;
    766a:	86 ec       	ldi	r24, 0xC6	; 198
    766c:	90 e0       	ldi	r25, 0x00	; 0
    766e:	90 93 a4 08 	sts	0x08A4, r25
    7672:	80 93 a3 08 	sts	0x08A3, r24

	i2cAction();
    7676:	0e 94 03 3b 	call	0x7606	; 0x7606 <i2cAction>
}
    767a:	08 95       	ret

0000767c <TUM_LKN_Sensorboard_greenBlink>:
void TUM_LKN_Sensorboard_yellowBlink( uint8_t ctl )	{ setLedMode( 1, 0x02 | (ctl & 0x01) ); setLeds(); }

void TUM_LKN_Sensorboard_greenOn() 							{ setLedMode( 2, REG_LED_ON ); setLeds(); }
void TUM_LKN_Sensorboard_greenOff() 						{ setLedMode( 2, REG_LED_OFF ); setLeds(); }
void TUM_LKN_Sensorboard_greenToggle() 					{ setLedMode( 2, getLedMode( 2 ) ^ 0x01 ); setLeds(); }
void TUM_LKN_Sensorboard_greenBlink( uint8_t ctl ) 	{ setLedMode( 2, 0x02 | (ctl & 0x01) ); setLeds(); }
    767c:	68 2f       	mov	r22, r24
    767e:	61 70       	andi	r22, 0x01	; 1
    7680:	62 60       	ori	r22, 0x02	; 2
    7682:	82 e0       	ldi	r24, 0x02	; 2
    7684:	0e 94 0f 39 	call	0x721e	; 0x721e <setLedMode>
    7688:	0e 94 19 3b 	call	0x7632	; 0x7632 <setLeds>
    768c:	08 95       	ret

0000768e <TUM_LKN_Sensorboard_greenToggle>:
void TUM_LKN_Sensorboard_yellowToggle() 					{ setLedMode( 1, getLedMode( 1 ) ^ 0x01 ); setLeds(); }
void TUM_LKN_Sensorboard_yellowBlink( uint8_t ctl )	{ setLedMode( 1, 0x02 | (ctl & 0x01) ); setLeds(); }

void TUM_LKN_Sensorboard_greenOn() 							{ setLedMode( 2, REG_LED_ON ); setLeds(); }
void TUM_LKN_Sensorboard_greenOff() 						{ setLedMode( 2, REG_LED_OFF ); setLeds(); }
void TUM_LKN_Sensorboard_greenToggle() 					{ setLedMode( 2, getLedMode( 2 ) ^ 0x01 ); setLeds(); }
    768e:	80 91 94 03 	lds	r24, 0x0394
    7692:	90 e0       	ldi	r25, 0x00	; 0
    7694:	80 73       	andi	r24, 0x30	; 48
    7696:	90 70       	andi	r25, 0x00	; 0
    7698:	24 e0       	ldi	r18, 0x04	; 4
    769a:	95 95       	asr	r25
    769c:	87 95       	ror	r24
    769e:	2a 95       	dec	r18
    76a0:	e1 f7       	brne	.-8      	; 0x769a <TUM_LKN_Sensorboard_greenToggle+0xc>
    76a2:	61 e0       	ldi	r22, 0x01	; 1
    76a4:	68 27       	eor	r22, r24
    76a6:	82 e0       	ldi	r24, 0x02	; 2
    76a8:	0e 94 0f 39 	call	0x721e	; 0x721e <setLedMode>
    76ac:	0e 94 19 3b 	call	0x7632	; 0x7632 <setLeds>
    76b0:	08 95       	ret

000076b2 <TUM_LKN_Sensorboard_greenOff>:
void TUM_LKN_Sensorboard_yellowOff() 						{ setLedMode( 1, REG_LED_OFF ); setLeds(); }
void TUM_LKN_Sensorboard_yellowToggle() 					{ setLedMode( 1, getLedMode( 1 ) ^ 0x01 ); setLeds(); }
void TUM_LKN_Sensorboard_yellowBlink( uint8_t ctl )	{ setLedMode( 1, 0x02 | (ctl & 0x01) ); setLeds(); }

void TUM_LKN_Sensorboard_greenOn() 							{ setLedMode( 2, REG_LED_ON ); setLeds(); }
void TUM_LKN_Sensorboard_greenOff() 						{ setLedMode( 2, REG_LED_OFF ); setLeds(); }
    76b2:	82 e0       	ldi	r24, 0x02	; 2
    76b4:	60 e0       	ldi	r22, 0x00	; 0
    76b6:	0e 94 0f 39 	call	0x721e	; 0x721e <setLedMode>
    76ba:	0e 94 19 3b 	call	0x7632	; 0x7632 <setLeds>
    76be:	08 95       	ret

000076c0 <TUM_LKN_Sensorboard_greenOn>:
void TUM_LKN_Sensorboard_yellowOn() 						{ setLedMode( 1, REG_LED_ON ); setLeds(); }
void TUM_LKN_Sensorboard_yellowOff() 						{ setLedMode( 1, REG_LED_OFF ); setLeds(); }
void TUM_LKN_Sensorboard_yellowToggle() 					{ setLedMode( 1, getLedMode( 1 ) ^ 0x01 ); setLeds(); }
void TUM_LKN_Sensorboard_yellowBlink( uint8_t ctl )	{ setLedMode( 1, 0x02 | (ctl & 0x01) ); setLeds(); }

void TUM_LKN_Sensorboard_greenOn() 							{ setLedMode( 2, REG_LED_ON ); setLeds(); }
    76c0:	82 e0       	ldi	r24, 0x02	; 2
    76c2:	61 e0       	ldi	r22, 0x01	; 1
    76c4:	0e 94 0f 39 	call	0x721e	; 0x721e <setLedMode>
    76c8:	0e 94 19 3b 	call	0x7632	; 0x7632 <setLeds>
    76cc:	08 95       	ret

000076ce <TUM_LKN_Sensorboard_yellowBlink>:
void TUM_LKN_Sensorboard_redBlink( uint8_t ctl ) 		{ setLedMode( 0, 0x02 | (ctl & 0x01) ); setLeds(); }

void TUM_LKN_Sensorboard_yellowOn() 						{ setLedMode( 1, REG_LED_ON ); setLeds(); }
void TUM_LKN_Sensorboard_yellowOff() 						{ setLedMode( 1, REG_LED_OFF ); setLeds(); }
void TUM_LKN_Sensorboard_yellowToggle() 					{ setLedMode( 1, getLedMode( 1 ) ^ 0x01 ); setLeds(); }
void TUM_LKN_Sensorboard_yellowBlink( uint8_t ctl )	{ setLedMode( 1, 0x02 | (ctl & 0x01) ); setLeds(); }
    76ce:	68 2f       	mov	r22, r24
    76d0:	61 70       	andi	r22, 0x01	; 1
    76d2:	62 60       	ori	r22, 0x02	; 2
    76d4:	81 e0       	ldi	r24, 0x01	; 1
    76d6:	0e 94 0f 39 	call	0x721e	; 0x721e <setLedMode>
    76da:	0e 94 19 3b 	call	0x7632	; 0x7632 <setLeds>
    76de:	08 95       	ret

000076e0 <TUM_LKN_Sensorboard_yellowToggle>:
void TUM_LKN_Sensorboard_redToggle() 						{ setLedMode( 0, getLedMode( 0 ) ^ 0x01 ); setLeds(); }
void TUM_LKN_Sensorboard_redBlink( uint8_t ctl ) 		{ setLedMode( 0, 0x02 | (ctl & 0x01) ); setLeds(); }

void TUM_LKN_Sensorboard_yellowOn() 						{ setLedMode( 1, REG_LED_ON ); setLeds(); }
void TUM_LKN_Sensorboard_yellowOff() 						{ setLedMode( 1, REG_LED_OFF ); setLeds(); }
void TUM_LKN_Sensorboard_yellowToggle() 					{ setLedMode( 1, getLedMode( 1 ) ^ 0x01 ); setLeds(); }
    76e0:	80 91 94 03 	lds	r24, 0x0394
    76e4:	90 e0       	ldi	r25, 0x00	; 0
    76e6:	8c 70       	andi	r24, 0x0C	; 12
    76e8:	90 70       	andi	r25, 0x00	; 0
    76ea:	95 95       	asr	r25
    76ec:	87 95       	ror	r24
    76ee:	95 95       	asr	r25
    76f0:	87 95       	ror	r24
    76f2:	61 e0       	ldi	r22, 0x01	; 1
    76f4:	68 27       	eor	r22, r24
    76f6:	81 e0       	ldi	r24, 0x01	; 1
    76f8:	0e 94 0f 39 	call	0x721e	; 0x721e <setLedMode>
    76fc:	0e 94 19 3b 	call	0x7632	; 0x7632 <setLeds>
    7700:	08 95       	ret

00007702 <TUM_LKN_Sensorboard_yellowOff>:
void TUM_LKN_Sensorboard_redOff() 							{ setLedMode( 0, REG_LED_OFF ); setLeds(); }
void TUM_LKN_Sensorboard_redToggle() 						{ setLedMode( 0, getLedMode( 0 ) ^ 0x01 ); setLeds(); }
void TUM_LKN_Sensorboard_redBlink( uint8_t ctl ) 		{ setLedMode( 0, 0x02 | (ctl & 0x01) ); setLeds(); }

void TUM_LKN_Sensorboard_yellowOn() 						{ setLedMode( 1, REG_LED_ON ); setLeds(); }
void TUM_LKN_Sensorboard_yellowOff() 						{ setLedMode( 1, REG_LED_OFF ); setLeds(); }
    7702:	81 e0       	ldi	r24, 0x01	; 1
    7704:	60 e0       	ldi	r22, 0x00	; 0
    7706:	0e 94 0f 39 	call	0x721e	; 0x721e <setLedMode>
    770a:	0e 94 19 3b 	call	0x7632	; 0x7632 <setLeds>
    770e:	08 95       	ret

00007710 <TUM_LKN_Sensorboard_yellowOn>:
void TUM_LKN_Sensorboard_redOn() 							{ setLedMode( 0, REG_LED_ON ); setLeds(); }
void TUM_LKN_Sensorboard_redOff() 							{ setLedMode( 0, REG_LED_OFF ); setLeds(); }
void TUM_LKN_Sensorboard_redToggle() 						{ setLedMode( 0, getLedMode( 0 ) ^ 0x01 ); setLeds(); }
void TUM_LKN_Sensorboard_redBlink( uint8_t ctl ) 		{ setLedMode( 0, 0x02 | (ctl & 0x01) ); setLeds(); }

void TUM_LKN_Sensorboard_yellowOn() 						{ setLedMode( 1, REG_LED_ON ); setLeds(); }
    7710:	81 e0       	ldi	r24, 0x01	; 1
    7712:	61 e0       	ldi	r22, 0x01	; 1
    7714:	0e 94 0f 39 	call	0x721e	; 0x721e <setLedMode>
    7718:	0e 94 19 3b 	call	0x7632	; 0x7632 <setLeds>
    771c:	08 95       	ret

0000771e <TUM_LKN_Sensorboard_redBlink>:
void TUM_LKN_Sensorboard_laserBlink( uint8_t ctl ) 	{ setLedMode( 3, 0x02 | (ctl & 0x01) ); setLeds(); }

void TUM_LKN_Sensorboard_redOn() 							{ setLedMode( 0, REG_LED_ON ); setLeds(); }
void TUM_LKN_Sensorboard_redOff() 							{ setLedMode( 0, REG_LED_OFF ); setLeds(); }
void TUM_LKN_Sensorboard_redToggle() 						{ setLedMode( 0, getLedMode( 0 ) ^ 0x01 ); setLeds(); }
void TUM_LKN_Sensorboard_redBlink( uint8_t ctl ) 		{ setLedMode( 0, 0x02 | (ctl & 0x01) ); setLeds(); }
    771e:	68 2f       	mov	r22, r24
    7720:	61 70       	andi	r22, 0x01	; 1
    7722:	62 60       	ori	r22, 0x02	; 2
    7724:	80 e0       	ldi	r24, 0x00	; 0
    7726:	0e 94 0f 39 	call	0x721e	; 0x721e <setLedMode>
    772a:	0e 94 19 3b 	call	0x7632	; 0x7632 <setLeds>
    772e:	08 95       	ret

00007730 <TUM_LKN_Sensorboard_redToggle>:
void TUM_LKN_Sensorboard_laserToggle() 					{ setLedMode( 3, getLedMode( 3 ) ^ 0x01 ); setLeds(); }
void TUM_LKN_Sensorboard_laserBlink( uint8_t ctl ) 	{ setLedMode( 3, 0x02 | (ctl & 0x01) ); setLeds(); }

void TUM_LKN_Sensorboard_redOn() 							{ setLedMode( 0, REG_LED_ON ); setLeds(); }
void TUM_LKN_Sensorboard_redOff() 							{ setLedMode( 0, REG_LED_OFF ); setLeds(); }
void TUM_LKN_Sensorboard_redToggle() 						{ setLedMode( 0, getLedMode( 0 ) ^ 0x01 ); setLeds(); }
    7730:	60 91 94 03 	lds	r22, 0x0394
    7734:	63 70       	andi	r22, 0x03	; 3
    7736:	81 e0       	ldi	r24, 0x01	; 1
    7738:	68 27       	eor	r22, r24
    773a:	80 e0       	ldi	r24, 0x00	; 0
    773c:	0e 94 0f 39 	call	0x721e	; 0x721e <setLedMode>
    7740:	0e 94 19 3b 	call	0x7632	; 0x7632 <setLeds>
    7744:	08 95       	ret

00007746 <TUM_LKN_Sensorboard_redOff>:
void TUM_LKN_Sensorboard_laserOff() 						{ setLedMode( 3, REG_LED_OFF ); setLeds(); }
void TUM_LKN_Sensorboard_laserToggle() 					{ setLedMode( 3, getLedMode( 3 ) ^ 0x01 ); setLeds(); }
void TUM_LKN_Sensorboard_laserBlink( uint8_t ctl ) 	{ setLedMode( 3, 0x02 | (ctl & 0x01) ); setLeds(); }

void TUM_LKN_Sensorboard_redOn() 							{ setLedMode( 0, REG_LED_ON ); setLeds(); }
void TUM_LKN_Sensorboard_redOff() 							{ setLedMode( 0, REG_LED_OFF ); setLeds(); }
    7746:	80 e0       	ldi	r24, 0x00	; 0
    7748:	60 e0       	ldi	r22, 0x00	; 0
    774a:	0e 94 0f 39 	call	0x721e	; 0x721e <setLedMode>
    774e:	0e 94 19 3b 	call	0x7632	; 0x7632 <setLeds>
    7752:	08 95       	ret

00007754 <TUM_LKN_Sensorboard_redOn>:
void TUM_LKN_Sensorboard_laserOn() 							{ setLedMode( 3, REG_LED_ON ); setLeds(); }
void TUM_LKN_Sensorboard_laserOff() 						{ setLedMode( 3, REG_LED_OFF ); setLeds(); }
void TUM_LKN_Sensorboard_laserToggle() 					{ setLedMode( 3, getLedMode( 3 ) ^ 0x01 ); setLeds(); }
void TUM_LKN_Sensorboard_laserBlink( uint8_t ctl ) 	{ setLedMode( 3, 0x02 | (ctl & 0x01) ); setLeds(); }

void TUM_LKN_Sensorboard_redOn() 							{ setLedMode( 0, REG_LED_ON ); setLeds(); }
    7754:	80 e0       	ldi	r24, 0x00	; 0
    7756:	61 e0       	ldi	r22, 0x01	; 1
    7758:	0e 94 0f 39 	call	0x721e	; 0x721e <setLedMode>
    775c:	0e 94 19 3b 	call	0x7632	; 0x7632 <setLeds>
    7760:	08 95       	ret

00007762 <TUM_LKN_Sensorboard_laserBlink>:


void TUM_LKN_Sensorboard_laserOn() 							{ setLedMode( 3, REG_LED_ON ); setLeds(); }
void TUM_LKN_Sensorboard_laserOff() 						{ setLedMode( 3, REG_LED_OFF ); setLeds(); }
void TUM_LKN_Sensorboard_laserToggle() 					{ setLedMode( 3, getLedMode( 3 ) ^ 0x01 ); setLeds(); }
void TUM_LKN_Sensorboard_laserBlink( uint8_t ctl ) 	{ setLedMode( 3, 0x02 | (ctl & 0x01) ); setLeds(); }
    7762:	68 2f       	mov	r22, r24
    7764:	61 70       	andi	r22, 0x01	; 1
    7766:	62 60       	ori	r22, 0x02	; 2
    7768:	83 e0       	ldi	r24, 0x03	; 3
    776a:	0e 94 0f 39 	call	0x721e	; 0x721e <setLedMode>
    776e:	0e 94 19 3b 	call	0x7632	; 0x7632 <setLeds>
    7772:	08 95       	ret

00007774 <TUM_LKN_Sensorboard_laserToggle>:



void TUM_LKN_Sensorboard_laserOn() 							{ setLedMode( 3, REG_LED_ON ); setLeds(); }
void TUM_LKN_Sensorboard_laserOff() 						{ setLedMode( 3, REG_LED_OFF ); setLeds(); }
void TUM_LKN_Sensorboard_laserToggle() 					{ setLedMode( 3, getLedMode( 3 ) ^ 0x01 ); setLeds(); }
    7774:	60 91 94 03 	lds	r22, 0x0394
    7778:	62 95       	swap	r22
    777a:	66 95       	lsr	r22
    777c:	66 95       	lsr	r22
    777e:	63 70       	andi	r22, 0x03	; 3
    7780:	81 e0       	ldi	r24, 0x01	; 1
    7782:	68 27       	eor	r22, r24
    7784:	83 e0       	ldi	r24, 0x03	; 3
    7786:	0e 94 0f 39 	call	0x721e	; 0x721e <setLedMode>
    778a:	0e 94 19 3b 	call	0x7632	; 0x7632 <setLeds>
    778e:	08 95       	ret

00007790 <TUM_LKN_Sensorboard_laserOff>:
}



void TUM_LKN_Sensorboard_laserOn() 							{ setLedMode( 3, REG_LED_ON ); setLeds(); }
void TUM_LKN_Sensorboard_laserOff() 						{ setLedMode( 3, REG_LED_OFF ); setLeds(); }
    7790:	83 e0       	ldi	r24, 0x03	; 3
    7792:	60 e0       	ldi	r22, 0x00	; 0
    7794:	0e 94 0f 39 	call	0x721e	; 0x721e <setLedMode>
    7798:	0e 94 19 3b 	call	0x7632	; 0x7632 <setLeds>
    779c:	08 95       	ret

0000779e <TUM_LKN_Sensorboard_laserOn>:
	m_pwm[ 1 ] = pwmFrac2Hex( dutyCycle );
}



void TUM_LKN_Sensorboard_laserOn() 							{ setLedMode( 3, REG_LED_ON ); setLeds(); }
    779e:	83 e0       	ldi	r24, 0x03	; 3
    77a0:	61 e0       	ldi	r22, 0x01	; 1
    77a2:	0e 94 0f 39 	call	0x721e	; 0x721e <setLedMode>
    77a6:	0e 94 19 3b 	call	0x7632	; 0x7632 <setLeds>
    77aa:	08 95       	ret

000077ac <readADC>:
}



void readADC( uint8_t channel )
{
    77ac:	ff 92       	push	r15
    77ae:	0f 93       	push	r16
    77b0:	1f 93       	push	r17
	//set the correct channel first
	channel &= 0x03;
    77b2:	83 70       	andi	r24, 0x03	; 3
	m_channel = channel;
    77b4:	80 93 a2 08 	sts	0x08A2, r24
	i2cDataDirection = i2cWrite;		// write to the i2c bus
    77b8:	10 92 a1 08 	sts	0x08A1, r1
	i2cDataLen = 1;
    77bc:	ff 24       	eor	r15, r15
    77be:	f3 94       	inc	r15
    77c0:	f0 92 a0 08 	sts	0x08A0, r15
	i2cData[ 0 ] = REG_ADC_FOURSE | REG_ADC_AOUTENABLE | channel;
    77c4:	80 64       	ori	r24, 0x40	; 64
    77c6:	80 93 8b 03 	sts	0x038B, r24
	i2cDestination = PCF8591;
    77ca:	00 e9       	ldi	r16, 0x90	; 144
    77cc:	10 e0       	ldi	r17, 0x00	; 0
    77ce:	10 93 a4 08 	sts	0x08A4, r17
    77d2:	00 93 a3 08 	sts	0x08A3, r16

	i2cAction();
    77d6:	0e 94 03 3b 	call	0x7606	; 0x7606 <i2cAction>

	//and now read the analog input
	i2cDataDirection = i2cRead;	// read from the i2c bus
    77da:	f0 92 a1 08 	sts	0x08A1, r15
	i2cDataLen = 2;
    77de:	82 e0       	ldi	r24, 0x02	; 2
    77e0:	80 93 a0 08 	sts	0x08A0, r24
	i2cDestination = PCF8591;
    77e4:	10 93 a4 08 	sts	0x08A4, r17
    77e8:	00 93 a3 08 	sts	0x08A3, r16

	i2cAction();
    77ec:	0e 94 03 3b 	call	0x7606	; 0x7606 <i2cAction>
}
    77f0:	1f 91       	pop	r17
    77f2:	0f 91       	pop	r16
    77f4:	ff 90       	pop	r15
    77f6:	08 95       	ret

000077f8 <TUM_LKN_Sensorboard_readChannel>:

void TUM_LKN_Sensorboard_readPhotoVoltage() { readADC( 0 ); }
void TUM_LKN_Sensorboard_readChannel1() { readADC( 1 ); }
void TUM_LKN_Sensorboard_readChannel2() { readADC( 2 ); }
void TUM_LKN_Sensorboard_readChannel3() { readADC( 3 ); }
void TUM_LKN_Sensorboard_readChannel( uint8_t ch ) { readADC( ch ); }
    77f8:	0e 94 d6 3b 	call	0x77ac	; 0x77ac <readADC>
    77fc:	08 95       	ret

000077fe <TUM_LKN_Sensorboard_readChannel3>:
unsigned char TUM_LKN_Sensorboard_getCurrentStep() { return m_currentstep; }

void TUM_LKN_Sensorboard_readPhotoVoltage() { readADC( 0 ); }
void TUM_LKN_Sensorboard_readChannel1() { readADC( 1 ); }
void TUM_LKN_Sensorboard_readChannel2() { readADC( 2 ); }
void TUM_LKN_Sensorboard_readChannel3() { readADC( 3 ); }
    77fe:	83 e0       	ldi	r24, 0x03	; 3
    7800:	0e 94 d6 3b 	call	0x77ac	; 0x77ac <readADC>
    7804:	08 95       	ret

00007806 <TUM_LKN_Sensorboard_readChannel2>:

unsigned char TUM_LKN_Sensorboard_getCurrentStep() { return m_currentstep; }

void TUM_LKN_Sensorboard_readPhotoVoltage() { readADC( 0 ); }
void TUM_LKN_Sensorboard_readChannel1() { readADC( 1 ); }
void TUM_LKN_Sensorboard_readChannel2() { readADC( 2 ); }
    7806:	82 e0       	ldi	r24, 0x02	; 2
    7808:	0e 94 d6 3b 	call	0x77ac	; 0x77ac <readADC>
    780c:	08 95       	ret

0000780e <TUM_LKN_Sensorboard_readChannel1>:


unsigned char TUM_LKN_Sensorboard_getCurrentStep() { return m_currentstep; }

void TUM_LKN_Sensorboard_readPhotoVoltage() { readADC( 0 ); }
void TUM_LKN_Sensorboard_readChannel1() { readADC( 1 ); }
    780e:	81 e0       	ldi	r24, 0x01	; 1
    7810:	0e 94 d6 3b 	call	0x77ac	; 0x77ac <readADC>
    7814:	08 95       	ret

00007816 <TUM_LKN_Sensorboard_readPhotoVoltage>:



unsigned char TUM_LKN_Sensorboard_getCurrentStep() { return m_currentstep; }

void TUM_LKN_Sensorboard_readPhotoVoltage() { readADC( 0 ); }
    7816:	80 e0       	ldi	r24, 0x00	; 0
    7818:	0e 94 d6 3b 	call	0x77ac	; 0x77ac <readADC>
    781c:	08 95       	ret

0000781e <writeDAC>:



void writeDAC( uint8_t value )
{
	i2cDataDirection = i2cWrite;		// write to the i2c bus
    781e:	10 92 a1 08 	sts	0x08A1, r1
	i2cDataLen = 2;
    7822:	92 e0       	ldi	r25, 0x02	; 2
    7824:	90 93 a0 08 	sts	0x08A0, r25
	i2cData[ 0 ] = REG_ADC_FOURSE | REG_ADC_AOUTENABLE;
    7828:	90 e4       	ldi	r25, 0x40	; 64
    782a:	90 93 8b 03 	sts	0x038B, r25
	i2cData[ 1 ] = value;
    782e:	80 93 8c 03 	sts	0x038C, r24
	i2cDestination = PCF8591;
    7832:	80 e9       	ldi	r24, 0x90	; 144
    7834:	90 e0       	ldi	r25, 0x00	; 0
    7836:	90 93 a4 08 	sts	0x08A4, r25
    783a:	80 93 a3 08 	sts	0x08A3, r24

	i2cAction();
    783e:	0e 94 03 3b 	call	0x7606	; 0x7606 <i2cAction>
}
    7842:	08 95       	ret

00007844 <TUM_LKN_Sensorboard_writeValue>:
void TUM_LKN_Sensorboard_readPhotoVoltage() { readADC( 0 ); }
void TUM_LKN_Sensorboard_readChannel1() { readADC( 1 ); }
void TUM_LKN_Sensorboard_readChannel2() { readADC( 2 ); }
void TUM_LKN_Sensorboard_readChannel3() { readADC( 3 ); }
void TUM_LKN_Sensorboard_readChannel( uint8_t ch ) { readADC( ch ); }
void TUM_LKN_Sensorboard_writeValue( double voltage ) { writeDAC( V2S( voltage ) ); }
    7844:	0e 94 54 39 	call	0x72a8	; 0x72a8 <V2S>
    7848:	0e 94 0f 3c 	call	0x781e	; 0x781e <writeDAC>
    784c:	08 95       	ret

0000784e <readIOs>:



void readIOs()
{
	i2cDataDirection = i2cRead;
    784e:	81 e0       	ldi	r24, 0x01	; 1
    7850:	80 93 a1 08 	sts	0x08A1, r24
	i2cDataLen = 1;
    7854:	80 93 a0 08 	sts	0x08A0, r24
	i2cDestination = PCF8574;
    7858:	80 e4       	ldi	r24, 0x40	; 64
    785a:	90 e0       	ldi	r25, 0x00	; 0
    785c:	90 93 a4 08 	sts	0x08A4, r25
    7860:	80 93 a3 08 	sts	0x08A3, r24

	i2cAction();
    7864:	0e 94 03 3b 	call	0x7606	; 0x7606 <i2cAction>
}
    7868:	08 95       	ret

0000786a <writeIOs>:


//this is ok
void writeIOs( uint8_t data )
{
	i2cData[ 0 ] = m_lastxs = data;
    786a:	80 93 93 03 	sts	0x0393, r24
    786e:	80 93 8b 03 	sts	0x038B, r24
	i2cDataLen = 1;
    7872:	81 e0       	ldi	r24, 0x01	; 1
    7874:	80 93 a0 08 	sts	0x08A0, r24
	i2cDataDirection = i2cWrite;
    7878:	10 92 a1 08 	sts	0x08A1, r1
	i2cDestination = PCF8574;
    787c:	80 e4       	ldi	r24, 0x40	; 64
    787e:	90 e0       	ldi	r25, 0x00	; 0
    7880:	90 93 a4 08 	sts	0x08A4, r25
    7884:	80 93 a3 08 	sts	0x08A3, r24

	i2cAction();
    7888:	0e 94 03 3b 	call	0x7606	; 0x7606 <i2cAction>
}
    788c:	08 95       	ret

0000788e <TUM_LKN_Sensorboard_halfStepCW>:



void TUM_LKN_Sensorboard_halfStepCW()
{
	writeIOs( setBits( m_lastxs, 0x0F, steps[ m_currentstep ] ) );
    788e:	80 91 8a 03 	lds	r24, 0x038A
    7892:	e2 e7       	ldi	r30, 0x72	; 114
    7894:	f2 e0       	ldi	r31, 0x02	; 2
    7896:	e8 0f       	add	r30, r24
    7898:	f1 1d       	adc	r31, r1
    789a:	80 91 93 03 	lds	r24, 0x0393
    789e:	8f 70       	andi	r24, 0x0F	; 15
    78a0:	90 81       	ld	r25, Z
    78a2:	89 2b       	or	r24, r25
    78a4:	0e 94 35 3c 	call	0x786a	; 0x786a <writeIOs>
	m_currentstep = (m_currentstep + 7) & 0x07;
    78a8:	80 91 8a 03 	lds	r24, 0x038A
    78ac:	89 5f       	subi	r24, 0xF9	; 249
    78ae:	87 70       	andi	r24, 0x07	; 7
    78b0:	80 93 8a 03 	sts	0x038A, r24
}
    78b4:	08 95       	ret

000078b6 <TUM_LKN_Sensorboard_halfStepCCW>:



void TUM_LKN_Sensorboard_halfStepCCW()
{
	writeIOs( setBits( m_lastxs, 0x0F, steps[ m_currentstep ] ) );
    78b6:	80 91 8a 03 	lds	r24, 0x038A
    78ba:	e2 e7       	ldi	r30, 0x72	; 114
    78bc:	f2 e0       	ldi	r31, 0x02	; 2
    78be:	e8 0f       	add	r30, r24
    78c0:	f1 1d       	adc	r31, r1
    78c2:	80 91 93 03 	lds	r24, 0x0393
    78c6:	8f 70       	andi	r24, 0x0F	; 15
    78c8:	90 81       	ld	r25, Z
    78ca:	89 2b       	or	r24, r25
    78cc:	0e 94 35 3c 	call	0x786a	; 0x786a <writeIOs>
	m_currentstep = (m_currentstep + 1) & 0x07;
    78d0:	80 91 8a 03 	lds	r24, 0x038A
    78d4:	8f 5f       	subi	r24, 0xFF	; 255
    78d6:	87 70       	andi	r24, 0x07	; 7
    78d8:	80 93 8a 03 	sts	0x038A, r24
}
    78dc:	08 95       	ret

000078de <TUM_LKN_Sensorboard_stepCW>:



void TUM_LKN_Sensorboard_stepCW()
{
	writeIOs( setBits( m_lastxs, 0x0F, steps[ m_currentstep ] ) );
    78de:	80 91 8a 03 	lds	r24, 0x038A
    78e2:	e2 e7       	ldi	r30, 0x72	; 114
    78e4:	f2 e0       	ldi	r31, 0x02	; 2
    78e6:	e8 0f       	add	r30, r24
    78e8:	f1 1d       	adc	r31, r1
    78ea:	80 91 93 03 	lds	r24, 0x0393
    78ee:	8f 70       	andi	r24, 0x0F	; 15
    78f0:	90 81       	ld	r25, Z
    78f2:	89 2b       	or	r24, r25
    78f4:	0e 94 35 3c 	call	0x786a	; 0x786a <writeIOs>
	m_currentstep = (m_currentstep + 6) & 0x06;
    78f8:	80 91 8a 03 	lds	r24, 0x038A
    78fc:	8a 5f       	subi	r24, 0xFA	; 250
    78fe:	86 70       	andi	r24, 0x06	; 6
    7900:	80 93 8a 03 	sts	0x038A, r24
}
    7904:	08 95       	ret

00007906 <TUM_LKN_Sensorboard_stepCCW>:
    writeIOs( setBits( m_lastxs, 0x0F, 0xF0 ) );
}

void TUM_LKN_Sensorboard_stepCCW()
{
	writeIOs( setBits( m_lastxs, 0x0F, steps[ m_currentstep ] ) );
    7906:	80 91 8a 03 	lds	r24, 0x038A
    790a:	e2 e7       	ldi	r30, 0x72	; 114
    790c:	f2 e0       	ldi	r31, 0x02	; 2
    790e:	e8 0f       	add	r30, r24
    7910:	f1 1d       	adc	r31, r1
    7912:	80 91 93 03 	lds	r24, 0x0393
    7916:	8f 70       	andi	r24, 0x0F	; 15
    7918:	90 81       	ld	r25, Z
    791a:	89 2b       	or	r24, r25
    791c:	0e 94 35 3c 	call	0x786a	; 0x786a <writeIOs>
	m_currentstep = (m_currentstep + 2) & 0x06;
    7920:	80 91 8a 03 	lds	r24, 0x038A
    7924:	8e 5f       	subi	r24, 0xFE	; 254
    7926:	86 70       	andi	r24, 0x06	; 6
    7928:	80 93 8a 03 	sts	0x038A, r24
}
    792c:	08 95       	ret

0000792e <TUM_LKN_Sensorboard_StepperIdle>:
void TUM_LKN_Sensorboard_setBeeper( bool set ) 				{ writeIOs( setBits( m_lastxs, 0xF7, (set == FALSE) ? 0x08 : 0x00 ) ); }


void TUM_LKN_Sensorboard_StepperIdle()
{
    writeIOs( setBits( m_lastxs, 0x0F, 0xF0 ) );
    792e:	80 91 93 03 	lds	r24, 0x0393
    7932:	80 6f       	ori	r24, 0xF0	; 240
    7934:	0e 94 35 3c 	call	0x786a	; 0x786a <writeIOs>
}
    7938:	08 95       	ret

0000793a <TUM_LKN_Sensorboard_setBeeper>:
// Convenience functions
void TUM_LKN_Sensorboard_init() 									{ writeIOs( 0xFF ); writeDAC( 0x00 ); }
//TUM_LKN_Sensorboard_readIOs() 								{ readIOs(); }
void TUM_LKN_Sensorboard_writeIOs( uint8_t data ) 			{ writeIOs( data ); }
void TUM_LKN_Sensorboard_writeIO( uint8_t io, bool set ) { writeIOs( setBits( m_lastxs, ~(0x01 << io), (set == TRUE) ? (0x01 << io) : 0x00 ) ); }
void TUM_LKN_Sensorboard_setBeeper( bool set ) 				{ writeIOs( setBits( m_lastxs, 0xF7, (set == FALSE) ? 0x08 : 0x00 ) ); }
    793a:	90 91 93 03 	lds	r25, 0x0393
    793e:	88 23       	and	r24, r24
    7940:	11 f0       	breq	.+4      	; 0x7946 <TUM_LKN_Sensorboard_setBeeper+0xc>
    7942:	80 e0       	ldi	r24, 0x00	; 0
    7944:	01 c0       	rjmp	.+2      	; 0x7948 <TUM_LKN_Sensorboard_setBeeper+0xe>
    7946:	88 e0       	ldi	r24, 0x08	; 8
    7948:	97 7f       	andi	r25, 0xF7	; 247
    794a:	89 2b       	or	r24, r25
    794c:	0e 94 35 3c 	call	0x786a	; 0x786a <writeIOs>
    7950:	08 95       	ret

00007952 <TUM_LKN_Sensorboard_writeIO>:

// Convenience functions
void TUM_LKN_Sensorboard_init() 									{ writeIOs( 0xFF ); writeDAC( 0x00 ); }
//TUM_LKN_Sensorboard_readIOs() 								{ readIOs(); }
void TUM_LKN_Sensorboard_writeIOs( uint8_t data ) 			{ writeIOs( data ); }
void TUM_LKN_Sensorboard_writeIO( uint8_t io, bool set ) { writeIOs( setBits( m_lastxs, ~(0x01 << io), (set == TRUE) ? (0x01 << io) : 0x00 ) ); }
    7952:	40 91 93 03 	lds	r20, 0x0393
    7956:	21 e0       	ldi	r18, 0x01	; 1
    7958:	30 e0       	ldi	r19, 0x00	; 0
    795a:	02 c0       	rjmp	.+4      	; 0x7960 <TUM_LKN_Sensorboard_writeIO+0xe>
    795c:	22 0f       	add	r18, r18
    795e:	33 1f       	adc	r19, r19
    7960:	8a 95       	dec	r24
    7962:	e2 f7       	brpl	.-8      	; 0x795c <TUM_LKN_Sensorboard_writeIO+0xa>
    7964:	66 23       	and	r22, r22
    7966:	11 f4       	brne	.+4      	; 0x796c <TUM_LKN_Sensorboard_writeIO+0x1a>
    7968:	90 e0       	ldi	r25, 0x00	; 0
    796a:	01 c0       	rjmp	.+2      	; 0x796e <TUM_LKN_Sensorboard_writeIO+0x1c>
    796c:	92 2f       	mov	r25, r18
    796e:	82 2f       	mov	r24, r18
    7970:	80 95       	com	r24
    7972:	84 23       	and	r24, r20
    7974:	89 2b       	or	r24, r25
    7976:	0e 94 35 3c 	call	0x786a	; 0x786a <writeIOs>
    797a:	08 95       	ret

0000797c <TUM_LKN_Sensorboard_writeIOs>:


// Convenience functions
void TUM_LKN_Sensorboard_init() 									{ writeIOs( 0xFF ); writeDAC( 0x00 ); }
//TUM_LKN_Sensorboard_readIOs() 								{ readIOs(); }
void TUM_LKN_Sensorboard_writeIOs( uint8_t data ) 			{ writeIOs( data ); }
    797c:	0e 94 35 3c 	call	0x786a	; 0x786a <writeIOs>
    7980:	08 95       	ret

00007982 <TUM_LKN_Sensorboard_init>:
}



// Convenience functions
void TUM_LKN_Sensorboard_init() 									{ writeIOs( 0xFF ); writeDAC( 0x00 ); }
    7982:	8f ef       	ldi	r24, 0xFF	; 255
    7984:	0e 94 35 3c 	call	0x786a	; 0x786a <writeIOs>
    7988:	80 e0       	ldi	r24, 0x00	; 0
    798a:	0e 94 0f 3c 	call	0x781e	; 0x781e <writeDAC>
    798e:	08 95       	ret

00007990 <nrk_start_high_ready_task>:

.global nrk_start_high_ready_task 

nrk_start_high_ready_task:

	lds r26,nrk_high_ready_TCB		
    7990:	a0 91 2f 08 	lds	r26, 0x082F
	lds r27,nrk_high_ready_TCB+1
    7994:	b0 91 30 08 	lds	r27, 0x0830

    	;x points to &OSTCB[x]
    
	ld r28,x+
    7998:	cd 91       	ld	r28, X+
	out __SP_L__, r28
    799a:	cd bf       	out	0x3d, r28	; 61
	ld r29,x+
    799c:	dd 91       	ld	r29, X+
	out __SP_H__, r29
    799e:	de bf       	out	0x3e, r29	; 62
  
	pop r31	
    79a0:	ff 91       	pop	r31
	pop r30
    79a2:	ef 91       	pop	r30
	pop r29
    79a4:	df 91       	pop	r29
	pop r28
    79a6:	cf 91       	pop	r28
	pop r27
    79a8:	bf 91       	pop	r27
	pop r26
    79aa:	af 91       	pop	r26
	pop r25
    79ac:	9f 91       	pop	r25
	pop r24			
    79ae:	8f 91       	pop	r24
	pop r23
    79b0:	7f 91       	pop	r23
	pop r22
    79b2:	6f 91       	pop	r22
	pop r21
    79b4:	5f 91       	pop	r21
	pop r20	
    79b6:	4f 91       	pop	r20
	pop r19
    79b8:	3f 91       	pop	r19
	pop r18	
    79ba:	2f 91       	pop	r18
	pop r17
    79bc:	1f 91       	pop	r17
	pop r16
    79be:	0f 91       	pop	r16
	pop r15
    79c0:	ff 90       	pop	r15
	pop r14
    79c2:	ef 90       	pop	r14
	pop r13
    79c4:	df 90       	pop	r13
	pop r12
    79c6:	cf 90       	pop	r12
	pop r11
    79c8:	bf 90       	pop	r11
	pop r10
    79ca:	af 90       	pop	r10
	pop r9
    79cc:	9f 90       	pop	r9
	pop r8
    79ce:	8f 90       	pop	r8
	pop r7
    79d0:	7f 90       	pop	r7
	pop r6
    79d2:	6f 90       	pop	r6
	pop r5
    79d4:	5f 90       	pop	r5
	pop r4
    79d6:	4f 90       	pop	r4
	pop r3
    79d8:	3f 90       	pop	r3
	pop r2
    79da:	2f 90       	pop	r2
	pop r1
    79dc:	1f 90       	pop	r1
	pop r0
    79de:	0f 90       	pop	r0
	out __SREG__, r0
    79e0:	0f be       	out	0x3f, r0	; 63
	pop r0	
    79e2:	0f 90       	pop	r0
	   
    	reti 
    79e4:	18 95       	reti

000079e6 <__udivdi3>:
    79e6:	ae e5       	ldi	r26, 0x5E	; 94
    79e8:	b0 e0       	ldi	r27, 0x00	; 0
    79ea:	e9 ef       	ldi	r30, 0xF9	; 249
    79ec:	fc e3       	ldi	r31, 0x3C	; 60
    79ee:	0c 94 e4 4a 	jmp	0x95c8	; 0x95c8 <__prologue_saves__>
    79f2:	a8 e0       	ldi	r26, 0x08	; 8
    79f4:	4e 01       	movw	r8, r28
    79f6:	08 94       	sec
    79f8:	81 1c       	adc	r8, r1
    79fa:	91 1c       	adc	r9, r1
    79fc:	f4 01       	movw	r30, r8
    79fe:	6a 2e       	mov	r6, r26
    7a00:	11 92       	st	Z+, r1
    7a02:	6a 94       	dec	r6
    7a04:	e9 f7       	brne	.-6      	; 0x7a00 <__udivdi3+0x1a>
    7a06:	29 83       	std	Y+1, r18	; 0x01
    7a08:	3a 83       	std	Y+2, r19	; 0x02
    7a0a:	4b 83       	std	Y+3, r20	; 0x03
    7a0c:	5c 83       	std	Y+4, r21	; 0x04
    7a0e:	6d 83       	std	Y+5, r22	; 0x05
    7a10:	7e 83       	std	Y+6, r23	; 0x06
    7a12:	8f 83       	std	Y+7, r24	; 0x07
    7a14:	98 87       	std	Y+8, r25	; 0x08
    7a16:	ce 01       	movw	r24, r28
    7a18:	09 96       	adiw	r24, 0x09	; 9
    7a1a:	fc 01       	movw	r30, r24
    7a1c:	11 92       	st	Z+, r1
    7a1e:	aa 95       	dec	r26
    7a20:	e9 f7       	brne	.-6      	; 0x7a1c <__udivdi3+0x36>
    7a22:	a9 86       	std	Y+9, r10	; 0x09
    7a24:	ba 86       	std	Y+10, r11	; 0x0a
    7a26:	cb 86       	std	Y+11, r12	; 0x0b
    7a28:	dc 86       	std	Y+12, r13	; 0x0c
    7a2a:	ed 86       	std	Y+13, r14	; 0x0d
    7a2c:	fe 86       	std	Y+14, r15	; 0x0e
    7a2e:	0f 87       	std	Y+15, r16	; 0x0f
    7a30:	18 8b       	std	Y+16, r17	; 0x10
    7a32:	29 84       	ldd	r2, Y+9	; 0x09
    7a34:	3a 84       	ldd	r3, Y+10	; 0x0a
    7a36:	4b 84       	ldd	r4, Y+11	; 0x0b
    7a38:	5c 84       	ldd	r5, Y+12	; 0x0c
    7a3a:	ed 84       	ldd	r14, Y+13	; 0x0d
    7a3c:	fe 84       	ldd	r15, Y+14	; 0x0e
    7a3e:	0f 85       	ldd	r16, Y+15	; 0x0f
    7a40:	18 89       	ldd	r17, Y+16	; 0x10
    7a42:	69 80       	ldd	r6, Y+1	; 0x01
    7a44:	7a 80       	ldd	r7, Y+2	; 0x02
    7a46:	8b 80       	ldd	r8, Y+3	; 0x03
    7a48:	9c 80       	ldd	r9, Y+4	; 0x04
    7a4a:	6d a6       	std	Y+45, r6	; 0x2d
    7a4c:	7e a6       	std	Y+46, r7	; 0x2e
    7a4e:	8f a6       	std	Y+47, r8	; 0x2f
    7a50:	98 aa       	std	Y+48, r9	; 0x30
    7a52:	6d 80       	ldd	r6, Y+5	; 0x05
    7a54:	7e 80       	ldd	r7, Y+6	; 0x06
    7a56:	8f 80       	ldd	r8, Y+7	; 0x07
    7a58:	98 84       	ldd	r9, Y+8	; 0x08
    7a5a:	e1 14       	cp	r14, r1
    7a5c:	f1 04       	cpc	r15, r1
    7a5e:	01 05       	cpc	r16, r1
    7a60:	11 05       	cpc	r17, r1
    7a62:	09 f0       	breq	.+2      	; 0x7a66 <__udivdi3+0x80>
    7a64:	b3 c3       	rjmp	.+1894   	; 0x81cc <__udivdi3+0x7e6>
    7a66:	62 14       	cp	r6, r2
    7a68:	73 04       	cpc	r7, r3
    7a6a:	84 04       	cpc	r8, r4
    7a6c:	95 04       	cpc	r9, r5
    7a6e:	08 f0       	brcs	.+2      	; 0x7a72 <__udivdi3+0x8c>
    7a70:	3d c1       	rjmp	.+634    	; 0x7cec <__udivdi3+0x306>
    7a72:	00 e0       	ldi	r16, 0x00	; 0
    7a74:	20 16       	cp	r2, r16
    7a76:	00 e0       	ldi	r16, 0x00	; 0
    7a78:	30 06       	cpc	r3, r16
    7a7a:	01 e0       	ldi	r16, 0x01	; 1
    7a7c:	40 06       	cpc	r4, r16
    7a7e:	00 e0       	ldi	r16, 0x00	; 0
    7a80:	50 06       	cpc	r5, r16
    7a82:	88 f4       	brcc	.+34     	; 0x7aa6 <__udivdi3+0xc0>
    7a84:	1f ef       	ldi	r17, 0xFF	; 255
    7a86:	21 16       	cp	r2, r17
    7a88:	31 04       	cpc	r3, r1
    7a8a:	41 04       	cpc	r4, r1
    7a8c:	51 04       	cpc	r5, r1
    7a8e:	39 f0       	breq	.+14     	; 0x7a9e <__udivdi3+0xb8>
    7a90:	30 f0       	brcs	.+12     	; 0x7a9e <__udivdi3+0xb8>
    7a92:	48 e0       	ldi	r20, 0x08	; 8
    7a94:	e4 2e       	mov	r14, r20
    7a96:	f1 2c       	mov	r15, r1
    7a98:	01 2d       	mov	r16, r1
    7a9a:	11 2d       	mov	r17, r1
    7a9c:	18 c0       	rjmp	.+48     	; 0x7ace <__udivdi3+0xe8>
    7a9e:	ee 24       	eor	r14, r14
    7aa0:	ff 24       	eor	r15, r15
    7aa2:	87 01       	movw	r16, r14
    7aa4:	14 c0       	rjmp	.+40     	; 0x7ace <__udivdi3+0xe8>
    7aa6:	20 e0       	ldi	r18, 0x00	; 0
    7aa8:	22 16       	cp	r2, r18
    7aaa:	20 e0       	ldi	r18, 0x00	; 0
    7aac:	32 06       	cpc	r3, r18
    7aae:	20 e0       	ldi	r18, 0x00	; 0
    7ab0:	42 06       	cpc	r4, r18
    7ab2:	21 e0       	ldi	r18, 0x01	; 1
    7ab4:	52 06       	cpc	r5, r18
    7ab6:	30 f0       	brcs	.+12     	; 0x7ac4 <__udivdi3+0xde>
    7ab8:	38 e1       	ldi	r19, 0x18	; 24
    7aba:	e3 2e       	mov	r14, r19
    7abc:	f1 2c       	mov	r15, r1
    7abe:	01 2d       	mov	r16, r1
    7ac0:	11 2d       	mov	r17, r1
    7ac2:	05 c0       	rjmp	.+10     	; 0x7ace <__udivdi3+0xe8>
    7ac4:	20 e1       	ldi	r18, 0x10	; 16
    7ac6:	e2 2e       	mov	r14, r18
    7ac8:	f1 2c       	mov	r15, r1
    7aca:	01 2d       	mov	r16, r1
    7acc:	11 2d       	mov	r17, r1
    7ace:	d2 01       	movw	r26, r4
    7ad0:	c1 01       	movw	r24, r2
    7ad2:	0e 2c       	mov	r0, r14
    7ad4:	04 c0       	rjmp	.+8      	; 0x7ade <__udivdi3+0xf8>
    7ad6:	b6 95       	lsr	r27
    7ad8:	a7 95       	ror	r26
    7ada:	97 95       	ror	r25
    7adc:	87 95       	ror	r24
    7ade:	0a 94       	dec	r0
    7ae0:	d2 f7       	brpl	.-12     	; 0x7ad6 <__udivdi3+0xf0>
    7ae2:	80 58       	subi	r24, 0x80	; 128
    7ae4:	9d 4f       	sbci	r25, 0xFD	; 253
    7ae6:	dc 01       	movw	r26, r24
    7ae8:	2c 91       	ld	r18, X
    7aea:	80 e2       	ldi	r24, 0x20	; 32
    7aec:	90 e0       	ldi	r25, 0x00	; 0
    7aee:	a0 e0       	ldi	r26, 0x00	; 0
    7af0:	b0 e0       	ldi	r27, 0x00	; 0
    7af2:	8e 19       	sub	r24, r14
    7af4:	9f 09       	sbc	r25, r15
    7af6:	a0 0b       	sbc	r26, r16
    7af8:	b1 0b       	sbc	r27, r17
    7afa:	7c 01       	movw	r14, r24
    7afc:	8d 01       	movw	r16, r26
    7afe:	e2 1a       	sub	r14, r18
    7b00:	f1 08       	sbc	r15, r1
    7b02:	01 09       	sbc	r16, r1
    7b04:	11 09       	sbc	r17, r1
    7b06:	e1 14       	cp	r14, r1
    7b08:	f1 04       	cpc	r15, r1
    7b0a:	01 05       	cpc	r16, r1
    7b0c:	11 05       	cpc	r17, r1
    7b0e:	a1 f1       	breq	.+104    	; 0x7b78 <__udivdi3+0x192>
    7b10:	0e 2c       	mov	r0, r14
    7b12:	04 c0       	rjmp	.+8      	; 0x7b1c <__udivdi3+0x136>
    7b14:	22 0c       	add	r2, r2
    7b16:	33 1c       	adc	r3, r3
    7b18:	44 1c       	adc	r4, r4
    7b1a:	55 1c       	adc	r5, r5
    7b1c:	0a 94       	dec	r0
    7b1e:	d2 f7       	brpl	.-12     	; 0x7b14 <__udivdi3+0x12e>
    7b20:	a4 01       	movw	r20, r8
    7b22:	93 01       	movw	r18, r6
    7b24:	0e 2c       	mov	r0, r14
    7b26:	04 c0       	rjmp	.+8      	; 0x7b30 <__udivdi3+0x14a>
    7b28:	22 0f       	add	r18, r18
    7b2a:	33 1f       	adc	r19, r19
    7b2c:	44 1f       	adc	r20, r20
    7b2e:	55 1f       	adc	r21, r21
    7b30:	0a 94       	dec	r0
    7b32:	d2 f7       	brpl	.-12     	; 0x7b28 <__udivdi3+0x142>
    7b34:	80 e2       	ldi	r24, 0x20	; 32
    7b36:	90 e0       	ldi	r25, 0x00	; 0
    7b38:	8e 19       	sub	r24, r14
    7b3a:	9f 09       	sbc	r25, r15
    7b3c:	6d a4       	ldd	r6, Y+45	; 0x2d
    7b3e:	7e a4       	ldd	r7, Y+46	; 0x2e
    7b40:	8f a4       	ldd	r8, Y+47	; 0x2f
    7b42:	98 a8       	ldd	r9, Y+48	; 0x30
    7b44:	04 c0       	rjmp	.+8      	; 0x7b4e <__udivdi3+0x168>
    7b46:	96 94       	lsr	r9
    7b48:	87 94       	ror	r8
    7b4a:	77 94       	ror	r7
    7b4c:	67 94       	ror	r6
    7b4e:	8a 95       	dec	r24
    7b50:	d2 f7       	brpl	.-12     	; 0x7b46 <__udivdi3+0x160>
    7b52:	62 2a       	or	r6, r18
    7b54:	73 2a       	or	r7, r19
    7b56:	84 2a       	or	r8, r20
    7b58:	95 2a       	or	r9, r21
    7b5a:	ad a4       	ldd	r10, Y+45	; 0x2d
    7b5c:	be a4       	ldd	r11, Y+46	; 0x2e
    7b5e:	cf a4       	ldd	r12, Y+47	; 0x2f
    7b60:	d8 a8       	ldd	r13, Y+48	; 0x30
    7b62:	04 c0       	rjmp	.+8      	; 0x7b6c <__udivdi3+0x186>
    7b64:	aa 0c       	add	r10, r10
    7b66:	bb 1c       	adc	r11, r11
    7b68:	cc 1c       	adc	r12, r12
    7b6a:	dd 1c       	adc	r13, r13
    7b6c:	ea 94       	dec	r14
    7b6e:	d2 f7       	brpl	.-12     	; 0x7b64 <__udivdi3+0x17e>
    7b70:	ad a6       	std	Y+45, r10	; 0x2d
    7b72:	be a6       	std	Y+46, r11	; 0x2e
    7b74:	cf a6       	std	Y+47, r12	; 0x2f
    7b76:	d8 aa       	std	Y+48, r13	; 0x30
    7b78:	62 01       	movw	r12, r4
    7b7a:	ee 24       	eor	r14, r14
    7b7c:	ff 24       	eor	r15, r15
    7b7e:	cd aa       	std	Y+53, r12	; 0x35
    7b80:	de aa       	std	Y+54, r13	; 0x36
    7b82:	ef aa       	std	Y+55, r14	; 0x37
    7b84:	f8 ae       	std	Y+56, r15	; 0x38
    7b86:	92 01       	movw	r18, r4
    7b88:	81 01       	movw	r16, r2
    7b8a:	20 70       	andi	r18, 0x00	; 0
    7b8c:	30 70       	andi	r19, 0x00	; 0
    7b8e:	09 af       	std	Y+57, r16	; 0x39
    7b90:	1a af       	std	Y+58, r17	; 0x3a
    7b92:	2b af       	std	Y+59, r18	; 0x3b
    7b94:	3c af       	std	Y+60, r19	; 0x3c
    7b96:	c4 01       	movw	r24, r8
    7b98:	b3 01       	movw	r22, r6
    7b9a:	a7 01       	movw	r20, r14
    7b9c:	96 01       	movw	r18, r12
    7b9e:	0e 94 c2 4a 	call	0x9584	; 0x9584 <__udivmodsi4>
    7ba2:	7b 01       	movw	r14, r22
    7ba4:	8c 01       	movw	r16, r24
    7ba6:	c4 01       	movw	r24, r8
    7ba8:	b3 01       	movw	r22, r6
    7baa:	2d a9       	ldd	r18, Y+53	; 0x35
    7bac:	3e a9       	ldd	r19, Y+54	; 0x36
    7bae:	4f a9       	ldd	r20, Y+55	; 0x37
    7bb0:	58 ad       	ldd	r21, Y+56	; 0x38
    7bb2:	0e 94 c2 4a 	call	0x9584	; 0x9584 <__udivmodsi4>
    7bb6:	c9 01       	movw	r24, r18
    7bb8:	da 01       	movw	r26, r20
    7bba:	3c 01       	movw	r6, r24
    7bbc:	4d 01       	movw	r8, r26
    7bbe:	c4 01       	movw	r24, r8
    7bc0:	b3 01       	movw	r22, r6
    7bc2:	29 ad       	ldd	r18, Y+57	; 0x39
    7bc4:	3a ad       	ldd	r19, Y+58	; 0x3a
    7bc6:	4b ad       	ldd	r20, Y+59	; 0x3b
    7bc8:	5c ad       	ldd	r21, Y+60	; 0x3c
    7bca:	0e 94 8f 4a 	call	0x951e	; 0x951e <__mulsi3>
    7bce:	9b 01       	movw	r18, r22
    7bd0:	ac 01       	movw	r20, r24
    7bd2:	87 01       	movw	r16, r14
    7bd4:	ff 24       	eor	r15, r15
    7bd6:	ee 24       	eor	r14, r14
    7bd8:	ad a4       	ldd	r10, Y+45	; 0x2d
    7bda:	be a4       	ldd	r11, Y+46	; 0x2e
    7bdc:	cf a4       	ldd	r12, Y+47	; 0x2f
    7bde:	d8 a8       	ldd	r13, Y+48	; 0x30
    7be0:	c6 01       	movw	r24, r12
    7be2:	aa 27       	eor	r26, r26
    7be4:	bb 27       	eor	r27, r27
    7be6:	57 01       	movw	r10, r14
    7be8:	68 01       	movw	r12, r16
    7bea:	a8 2a       	or	r10, r24
    7bec:	b9 2a       	or	r11, r25
    7bee:	ca 2a       	or	r12, r26
    7bf0:	db 2a       	or	r13, r27
    7bf2:	a2 16       	cp	r10, r18
    7bf4:	b3 06       	cpc	r11, r19
    7bf6:	c4 06       	cpc	r12, r20
    7bf8:	d5 06       	cpc	r13, r21
    7bfa:	e0 f4       	brcc	.+56     	; 0x7c34 <__udivdi3+0x24e>
    7bfc:	08 94       	sec
    7bfe:	61 08       	sbc	r6, r1
    7c00:	71 08       	sbc	r7, r1
    7c02:	81 08       	sbc	r8, r1
    7c04:	91 08       	sbc	r9, r1
    7c06:	a2 0c       	add	r10, r2
    7c08:	b3 1c       	adc	r11, r3
    7c0a:	c4 1c       	adc	r12, r4
    7c0c:	d5 1c       	adc	r13, r5
    7c0e:	a2 14       	cp	r10, r2
    7c10:	b3 04       	cpc	r11, r3
    7c12:	c4 04       	cpc	r12, r4
    7c14:	d5 04       	cpc	r13, r5
    7c16:	70 f0       	brcs	.+28     	; 0x7c34 <__udivdi3+0x24e>
    7c18:	a2 16       	cp	r10, r18
    7c1a:	b3 06       	cpc	r11, r19
    7c1c:	c4 06       	cpc	r12, r20
    7c1e:	d5 06       	cpc	r13, r21
    7c20:	48 f4       	brcc	.+18     	; 0x7c34 <__udivdi3+0x24e>
    7c22:	08 94       	sec
    7c24:	61 08       	sbc	r6, r1
    7c26:	71 08       	sbc	r7, r1
    7c28:	81 08       	sbc	r8, r1
    7c2a:	91 08       	sbc	r9, r1
    7c2c:	a2 0c       	add	r10, r2
    7c2e:	b3 1c       	adc	r11, r3
    7c30:	c4 1c       	adc	r12, r4
    7c32:	d5 1c       	adc	r13, r5
    7c34:	a2 1a       	sub	r10, r18
    7c36:	b3 0a       	sbc	r11, r19
    7c38:	c4 0a       	sbc	r12, r20
    7c3a:	d5 0a       	sbc	r13, r21
    7c3c:	c6 01       	movw	r24, r12
    7c3e:	b5 01       	movw	r22, r10
    7c40:	2d a9       	ldd	r18, Y+53	; 0x35
    7c42:	3e a9       	ldd	r19, Y+54	; 0x36
    7c44:	4f a9       	ldd	r20, Y+55	; 0x37
    7c46:	58 ad       	ldd	r21, Y+56	; 0x38
    7c48:	0e 94 c2 4a 	call	0x9584	; 0x9584 <__udivmodsi4>
    7c4c:	7b 01       	movw	r14, r22
    7c4e:	8c 01       	movw	r16, r24
    7c50:	c6 01       	movw	r24, r12
    7c52:	b5 01       	movw	r22, r10
    7c54:	2d a9       	ldd	r18, Y+53	; 0x35
    7c56:	3e a9       	ldd	r19, Y+54	; 0x36
    7c58:	4f a9       	ldd	r20, Y+55	; 0x37
    7c5a:	58 ad       	ldd	r21, Y+56	; 0x38
    7c5c:	0e 94 c2 4a 	call	0x9584	; 0x9584 <__udivmodsi4>
    7c60:	c9 01       	movw	r24, r18
    7c62:	da 01       	movw	r26, r20
    7c64:	5c 01       	movw	r10, r24
    7c66:	6d 01       	movw	r12, r26
    7c68:	c6 01       	movw	r24, r12
    7c6a:	b5 01       	movw	r22, r10
    7c6c:	29 ad       	ldd	r18, Y+57	; 0x39
    7c6e:	3a ad       	ldd	r19, Y+58	; 0x3a
    7c70:	4b ad       	ldd	r20, Y+59	; 0x3b
    7c72:	5c ad       	ldd	r21, Y+60	; 0x3c
    7c74:	0e 94 8f 4a 	call	0x951e	; 0x951e <__mulsi3>
    7c78:	9b 01       	movw	r18, r22
    7c7a:	ac 01       	movw	r20, r24
    7c7c:	87 01       	movw	r16, r14
    7c7e:	ff 24       	eor	r15, r15
    7c80:	ee 24       	eor	r14, r14
    7c82:	8d a5       	ldd	r24, Y+45	; 0x2d
    7c84:	9e a5       	ldd	r25, Y+46	; 0x2e
    7c86:	af a5       	ldd	r26, Y+47	; 0x2f
    7c88:	b8 a9       	ldd	r27, Y+48	; 0x30
    7c8a:	a0 70       	andi	r26, 0x00	; 0
    7c8c:	b0 70       	andi	r27, 0x00	; 0
    7c8e:	e8 2a       	or	r14, r24
    7c90:	f9 2a       	or	r15, r25
    7c92:	0a 2b       	or	r16, r26
    7c94:	1b 2b       	or	r17, r27
    7c96:	e2 16       	cp	r14, r18
    7c98:	f3 06       	cpc	r15, r19
    7c9a:	04 07       	cpc	r16, r20
    7c9c:	15 07       	cpc	r17, r21
    7c9e:	c0 f4       	brcc	.+48     	; 0x7cd0 <__udivdi3+0x2ea>
    7ca0:	08 94       	sec
    7ca2:	a1 08       	sbc	r10, r1
    7ca4:	b1 08       	sbc	r11, r1
    7ca6:	c1 08       	sbc	r12, r1
    7ca8:	d1 08       	sbc	r13, r1
    7caa:	e2 0c       	add	r14, r2
    7cac:	f3 1c       	adc	r15, r3
    7cae:	04 1d       	adc	r16, r4
    7cb0:	15 1d       	adc	r17, r5
    7cb2:	e2 14       	cp	r14, r2
    7cb4:	f3 04       	cpc	r15, r3
    7cb6:	04 05       	cpc	r16, r4
    7cb8:	15 05       	cpc	r17, r5
    7cba:	50 f0       	brcs	.+20     	; 0x7cd0 <__udivdi3+0x2ea>
    7cbc:	e2 16       	cp	r14, r18
    7cbe:	f3 06       	cpc	r15, r19
    7cc0:	04 07       	cpc	r16, r20
    7cc2:	15 07       	cpc	r17, r21
    7cc4:	28 f4       	brcc	.+10     	; 0x7cd0 <__udivdi3+0x2ea>
    7cc6:	08 94       	sec
    7cc8:	a1 08       	sbc	r10, r1
    7cca:	b1 08       	sbc	r11, r1
    7ccc:	c1 08       	sbc	r12, r1
    7cce:	d1 08       	sbc	r13, r1
    7cd0:	d3 01       	movw	r26, r6
    7cd2:	99 27       	eor	r25, r25
    7cd4:	88 27       	eor	r24, r24
    7cd6:	86 01       	movw	r16, r12
    7cd8:	75 01       	movw	r14, r10
    7cda:	e8 2a       	or	r14, r24
    7cdc:	f9 2a       	or	r15, r25
    7cde:	0a 2b       	or	r16, r26
    7ce0:	1b 2b       	or	r17, r27
    7ce2:	e9 aa       	std	Y+49, r14	; 0x31
    7ce4:	fa aa       	std	Y+50, r15	; 0x32
    7ce6:	0b ab       	std	Y+51, r16	; 0x33
    7ce8:	1c ab       	std	Y+52, r17	; 0x34
    7cea:	cf c4       	rjmp	.+2462   	; 0x868a <__udivdi3+0xca4>
    7cec:	21 14       	cp	r2, r1
    7cee:	31 04       	cpc	r3, r1
    7cf0:	41 04       	cpc	r4, r1
    7cf2:	51 04       	cpc	r5, r1
    7cf4:	71 f4       	brne	.+28     	; 0x7d12 <__udivdi3+0x32c>
    7cf6:	61 e0       	ldi	r22, 0x01	; 1
    7cf8:	70 e0       	ldi	r23, 0x00	; 0
    7cfa:	80 e0       	ldi	r24, 0x00	; 0
    7cfc:	90 e0       	ldi	r25, 0x00	; 0
    7cfe:	20 e0       	ldi	r18, 0x00	; 0
    7d00:	30 e0       	ldi	r19, 0x00	; 0
    7d02:	40 e0       	ldi	r20, 0x00	; 0
    7d04:	50 e0       	ldi	r21, 0x00	; 0
    7d06:	0e 94 c2 4a 	call	0x9584	; 0x9584 <__udivmodsi4>
    7d0a:	c9 01       	movw	r24, r18
    7d0c:	da 01       	movw	r26, r20
    7d0e:	1c 01       	movw	r2, r24
    7d10:	2d 01       	movw	r4, r26
    7d12:	00 e0       	ldi	r16, 0x00	; 0
    7d14:	20 16       	cp	r2, r16
    7d16:	00 e0       	ldi	r16, 0x00	; 0
    7d18:	30 06       	cpc	r3, r16
    7d1a:	01 e0       	ldi	r16, 0x01	; 1
    7d1c:	40 06       	cpc	r4, r16
    7d1e:	00 e0       	ldi	r16, 0x00	; 0
    7d20:	50 06       	cpc	r5, r16
    7d22:	88 f4       	brcc	.+34     	; 0x7d46 <__udivdi3+0x360>
    7d24:	1f ef       	ldi	r17, 0xFF	; 255
    7d26:	21 16       	cp	r2, r17
    7d28:	31 04       	cpc	r3, r1
    7d2a:	41 04       	cpc	r4, r1
    7d2c:	51 04       	cpc	r5, r1
    7d2e:	31 f0       	breq	.+12     	; 0x7d3c <__udivdi3+0x356>
    7d30:	28 f0       	brcs	.+10     	; 0x7d3c <__udivdi3+0x356>
    7d32:	48 e0       	ldi	r20, 0x08	; 8
    7d34:	50 e0       	ldi	r21, 0x00	; 0
    7d36:	60 e0       	ldi	r22, 0x00	; 0
    7d38:	70 e0       	ldi	r23, 0x00	; 0
    7d3a:	17 c0       	rjmp	.+46     	; 0x7d6a <__udivdi3+0x384>
    7d3c:	40 e0       	ldi	r20, 0x00	; 0
    7d3e:	50 e0       	ldi	r21, 0x00	; 0
    7d40:	60 e0       	ldi	r22, 0x00	; 0
    7d42:	70 e0       	ldi	r23, 0x00	; 0
    7d44:	12 c0       	rjmp	.+36     	; 0x7d6a <__udivdi3+0x384>
    7d46:	20 e0       	ldi	r18, 0x00	; 0
    7d48:	22 16       	cp	r2, r18
    7d4a:	20 e0       	ldi	r18, 0x00	; 0
    7d4c:	32 06       	cpc	r3, r18
    7d4e:	20 e0       	ldi	r18, 0x00	; 0
    7d50:	42 06       	cpc	r4, r18
    7d52:	21 e0       	ldi	r18, 0x01	; 1
    7d54:	52 06       	cpc	r5, r18
    7d56:	28 f0       	brcs	.+10     	; 0x7d62 <__udivdi3+0x37c>
    7d58:	48 e1       	ldi	r20, 0x18	; 24
    7d5a:	50 e0       	ldi	r21, 0x00	; 0
    7d5c:	60 e0       	ldi	r22, 0x00	; 0
    7d5e:	70 e0       	ldi	r23, 0x00	; 0
    7d60:	04 c0       	rjmp	.+8      	; 0x7d6a <__udivdi3+0x384>
    7d62:	40 e1       	ldi	r20, 0x10	; 16
    7d64:	50 e0       	ldi	r21, 0x00	; 0
    7d66:	60 e0       	ldi	r22, 0x00	; 0
    7d68:	70 e0       	ldi	r23, 0x00	; 0
    7d6a:	d2 01       	movw	r26, r4
    7d6c:	c1 01       	movw	r24, r2
    7d6e:	04 2e       	mov	r0, r20
    7d70:	04 c0       	rjmp	.+8      	; 0x7d7a <__udivdi3+0x394>
    7d72:	b6 95       	lsr	r27
    7d74:	a7 95       	ror	r26
    7d76:	97 95       	ror	r25
    7d78:	87 95       	ror	r24
    7d7a:	0a 94       	dec	r0
    7d7c:	d2 f7       	brpl	.-12     	; 0x7d72 <__udivdi3+0x38c>
    7d7e:	80 58       	subi	r24, 0x80	; 128
    7d80:	9d 4f       	sbci	r25, 0xFD	; 253
    7d82:	dc 01       	movw	r26, r24
    7d84:	2c 91       	ld	r18, X
    7d86:	e0 e2       	ldi	r30, 0x20	; 32
    7d88:	ee 2e       	mov	r14, r30
    7d8a:	f1 2c       	mov	r15, r1
    7d8c:	01 2d       	mov	r16, r1
    7d8e:	11 2d       	mov	r17, r1
    7d90:	d8 01       	movw	r26, r16
    7d92:	c7 01       	movw	r24, r14
    7d94:	84 1b       	sub	r24, r20
    7d96:	95 0b       	sbc	r25, r21
    7d98:	a6 0b       	sbc	r26, r22
    7d9a:	b7 0b       	sbc	r27, r23
    7d9c:	82 1b       	sub	r24, r18
    7d9e:	91 09       	sbc	r25, r1
    7da0:	a1 09       	sbc	r26, r1
    7da2:	b1 09       	sbc	r27, r1
    7da4:	00 97       	sbiw	r24, 0x00	; 0
    7da6:	a1 05       	cpc	r26, r1
    7da8:	b1 05       	cpc	r27, r1
    7daa:	61 f4       	brne	.+24     	; 0x7dc4 <__udivdi3+0x3de>
    7dac:	64 01       	movw	r12, r8
    7dae:	53 01       	movw	r10, r6
    7db0:	a2 18       	sub	r10, r2
    7db2:	b3 08       	sbc	r11, r3
    7db4:	c4 08       	sbc	r12, r4
    7db6:	d5 08       	sbc	r13, r5
    7db8:	31 e0       	ldi	r19, 0x01	; 1
    7dba:	63 2e       	mov	r6, r19
    7dbc:	71 2c       	mov	r7, r1
    7dbe:	81 2c       	mov	r8, r1
    7dc0:	91 2c       	mov	r9, r1
    7dc2:	1e c1       	rjmp	.+572    	; 0x8000 <__udivdi3+0x61a>
    7dc4:	6f 96       	adiw	r28, 0x1f	; 31
    7dc6:	8f af       	std	Y+63, r24	; 0x3f
    7dc8:	6f 97       	sbiw	r28, 0x1f	; 31
    7dca:	08 2e       	mov	r0, r24
    7dcc:	04 c0       	rjmp	.+8      	; 0x7dd6 <__udivdi3+0x3f0>
    7dce:	22 0c       	add	r2, r2
    7dd0:	33 1c       	adc	r3, r3
    7dd2:	44 1c       	adc	r4, r4
    7dd4:	55 1c       	adc	r5, r5
    7dd6:	0a 94       	dec	r0
    7dd8:	d2 f7       	brpl	.-12     	; 0x7dce <__udivdi3+0x3e8>
    7dda:	ee 2d       	mov	r30, r14
    7ddc:	e8 1b       	sub	r30, r24
    7dde:	64 01       	movw	r12, r8
    7de0:	53 01       	movw	r10, r6
    7de2:	0e 2e       	mov	r0, r30
    7de4:	04 c0       	rjmp	.+8      	; 0x7dee <__udivdi3+0x408>
    7de6:	d6 94       	lsr	r13
    7de8:	c7 94       	ror	r12
    7dea:	b7 94       	ror	r11
    7dec:	a7 94       	ror	r10
    7dee:	0a 94       	dec	r0
    7df0:	d2 f7       	brpl	.-12     	; 0x7de6 <__udivdi3+0x400>
    7df2:	a4 01       	movw	r20, r8
    7df4:	93 01       	movw	r18, r6
    7df6:	6f 96       	adiw	r28, 0x1f	; 31
    7df8:	0f ac       	ldd	r0, Y+63	; 0x3f
    7dfa:	6f 97       	sbiw	r28, 0x1f	; 31
    7dfc:	04 c0       	rjmp	.+8      	; 0x7e06 <__udivdi3+0x420>
    7dfe:	22 0f       	add	r18, r18
    7e00:	33 1f       	adc	r19, r19
    7e02:	44 1f       	adc	r20, r20
    7e04:	55 1f       	adc	r21, r21
    7e06:	0a 94       	dec	r0
    7e08:	d2 f7       	brpl	.-12     	; 0x7dfe <__udivdi3+0x418>
    7e0a:	6d a4       	ldd	r6, Y+45	; 0x2d
    7e0c:	7e a4       	ldd	r7, Y+46	; 0x2e
    7e0e:	8f a4       	ldd	r8, Y+47	; 0x2f
    7e10:	98 a8       	ldd	r9, Y+48	; 0x30
    7e12:	0e 2e       	mov	r0, r30
    7e14:	04 c0       	rjmp	.+8      	; 0x7e1e <__udivdi3+0x438>
    7e16:	96 94       	lsr	r9
    7e18:	87 94       	ror	r8
    7e1a:	77 94       	ror	r7
    7e1c:	67 94       	ror	r6
    7e1e:	0a 94       	dec	r0
    7e20:	d2 f7       	brpl	.-12     	; 0x7e16 <__udivdi3+0x430>
    7e22:	84 01       	movw	r16, r8
    7e24:	73 01       	movw	r14, r6
    7e26:	e2 2a       	or	r14, r18
    7e28:	f3 2a       	or	r15, r19
    7e2a:	04 2b       	or	r16, r20
    7e2c:	15 2b       	or	r17, r21
    7e2e:	e9 a6       	std	Y+41, r14	; 0x29
    7e30:	fa a6       	std	Y+42, r15	; 0x2a
    7e32:	0b a7       	std	Y+43, r16	; 0x2b
    7e34:	1c a7       	std	Y+44, r17	; 0x2c
    7e36:	32 01       	movw	r6, r4
    7e38:	88 24       	eor	r8, r8
    7e3a:	99 24       	eor	r9, r9
    7e3c:	92 01       	movw	r18, r4
    7e3e:	81 01       	movw	r16, r2
    7e40:	20 70       	andi	r18, 0x00	; 0
    7e42:	30 70       	andi	r19, 0x00	; 0
    7e44:	21 96       	adiw	r28, 0x01	; 1
    7e46:	0c af       	std	Y+60, r16	; 0x3c
    7e48:	1d af       	std	Y+61, r17	; 0x3d
    7e4a:	2e af       	std	Y+62, r18	; 0x3e
    7e4c:	3f af       	std	Y+63, r19	; 0x3f
    7e4e:	21 97       	sbiw	r28, 0x01	; 1
    7e50:	c6 01       	movw	r24, r12
    7e52:	b5 01       	movw	r22, r10
    7e54:	a4 01       	movw	r20, r8
    7e56:	93 01       	movw	r18, r6
    7e58:	0e 94 c2 4a 	call	0x9584	; 0x9584 <__udivmodsi4>
    7e5c:	7b 01       	movw	r14, r22
    7e5e:	8c 01       	movw	r16, r24
    7e60:	c6 01       	movw	r24, r12
    7e62:	b5 01       	movw	r22, r10
    7e64:	a4 01       	movw	r20, r8
    7e66:	93 01       	movw	r18, r6
    7e68:	0e 94 c2 4a 	call	0x9584	; 0x9584 <__udivmodsi4>
    7e6c:	c9 01       	movw	r24, r18
    7e6e:	da 01       	movw	r26, r20
    7e70:	25 96       	adiw	r28, 0x05	; 5
    7e72:	8c af       	std	Y+60, r24	; 0x3c
    7e74:	9d af       	std	Y+61, r25	; 0x3d
    7e76:	ae af       	std	Y+62, r26	; 0x3e
    7e78:	bf af       	std	Y+63, r27	; 0x3f
    7e7a:	25 97       	sbiw	r28, 0x05	; 5
    7e7c:	bc 01       	movw	r22, r24
    7e7e:	cd 01       	movw	r24, r26
    7e80:	21 96       	adiw	r28, 0x01	; 1
    7e82:	2c ad       	ldd	r18, Y+60	; 0x3c
    7e84:	3d ad       	ldd	r19, Y+61	; 0x3d
    7e86:	4e ad       	ldd	r20, Y+62	; 0x3e
    7e88:	5f ad       	ldd	r21, Y+63	; 0x3f
    7e8a:	21 97       	sbiw	r28, 0x01	; 1
    7e8c:	0e 94 8f 4a 	call	0x951e	; 0x951e <__mulsi3>
    7e90:	9b 01       	movw	r18, r22
    7e92:	ac 01       	movw	r20, r24
    7e94:	87 01       	movw	r16, r14
    7e96:	ff 24       	eor	r15, r15
    7e98:	ee 24       	eor	r14, r14
    7e9a:	a9 a4       	ldd	r10, Y+41	; 0x29
    7e9c:	ba a4       	ldd	r11, Y+42	; 0x2a
    7e9e:	cb a4       	ldd	r12, Y+43	; 0x2b
    7ea0:	dc a4       	ldd	r13, Y+44	; 0x2c
    7ea2:	c6 01       	movw	r24, r12
    7ea4:	aa 27       	eor	r26, r26
    7ea6:	bb 27       	eor	r27, r27
    7ea8:	5c 01       	movw	r10, r24
    7eaa:	6d 01       	movw	r12, r26
    7eac:	ae 28       	or	r10, r14
    7eae:	bf 28       	or	r11, r15
    7eb0:	c0 2a       	or	r12, r16
    7eb2:	d1 2a       	or	r13, r17
    7eb4:	a2 16       	cp	r10, r18
    7eb6:	b3 06       	cpc	r11, r19
    7eb8:	c4 06       	cpc	r12, r20
    7eba:	d5 06       	cpc	r13, r21
    7ebc:	60 f5       	brcc	.+88     	; 0x7f16 <__udivdi3+0x530>
    7ebe:	25 96       	adiw	r28, 0x05	; 5
    7ec0:	6c ad       	ldd	r22, Y+60	; 0x3c
    7ec2:	7d ad       	ldd	r23, Y+61	; 0x3d
    7ec4:	8e ad       	ldd	r24, Y+62	; 0x3e
    7ec6:	9f ad       	ldd	r25, Y+63	; 0x3f
    7ec8:	25 97       	sbiw	r28, 0x05	; 5
    7eca:	61 50       	subi	r22, 0x01	; 1
    7ecc:	70 40       	sbci	r23, 0x00	; 0
    7ece:	80 40       	sbci	r24, 0x00	; 0
    7ed0:	90 40       	sbci	r25, 0x00	; 0
    7ed2:	25 96       	adiw	r28, 0x05	; 5
    7ed4:	6c af       	std	Y+60, r22	; 0x3c
    7ed6:	7d af       	std	Y+61, r23	; 0x3d
    7ed8:	8e af       	std	Y+62, r24	; 0x3e
    7eda:	9f af       	std	Y+63, r25	; 0x3f
    7edc:	25 97       	sbiw	r28, 0x05	; 5
    7ede:	a2 0c       	add	r10, r2
    7ee0:	b3 1c       	adc	r11, r3
    7ee2:	c4 1c       	adc	r12, r4
    7ee4:	d5 1c       	adc	r13, r5
    7ee6:	a2 14       	cp	r10, r2
    7ee8:	b3 04       	cpc	r11, r3
    7eea:	c4 04       	cpc	r12, r4
    7eec:	d5 04       	cpc	r13, r5
    7eee:	98 f0       	brcs	.+38     	; 0x7f16 <__udivdi3+0x530>
    7ef0:	a2 16       	cp	r10, r18
    7ef2:	b3 06       	cpc	r11, r19
    7ef4:	c4 06       	cpc	r12, r20
    7ef6:	d5 06       	cpc	r13, r21
    7ef8:	70 f4       	brcc	.+28     	; 0x7f16 <__udivdi3+0x530>
    7efa:	61 50       	subi	r22, 0x01	; 1
    7efc:	70 40       	sbci	r23, 0x00	; 0
    7efe:	80 40       	sbci	r24, 0x00	; 0
    7f00:	90 40       	sbci	r25, 0x00	; 0
    7f02:	25 96       	adiw	r28, 0x05	; 5
    7f04:	6c af       	std	Y+60, r22	; 0x3c
    7f06:	7d af       	std	Y+61, r23	; 0x3d
    7f08:	8e af       	std	Y+62, r24	; 0x3e
    7f0a:	9f af       	std	Y+63, r25	; 0x3f
    7f0c:	25 97       	sbiw	r28, 0x05	; 5
    7f0e:	a2 0c       	add	r10, r2
    7f10:	b3 1c       	adc	r11, r3
    7f12:	c4 1c       	adc	r12, r4
    7f14:	d5 1c       	adc	r13, r5
    7f16:	a2 1a       	sub	r10, r18
    7f18:	b3 0a       	sbc	r11, r19
    7f1a:	c4 0a       	sbc	r12, r20
    7f1c:	d5 0a       	sbc	r13, r21
    7f1e:	c6 01       	movw	r24, r12
    7f20:	b5 01       	movw	r22, r10
    7f22:	a4 01       	movw	r20, r8
    7f24:	93 01       	movw	r18, r6
    7f26:	0e 94 c2 4a 	call	0x9584	; 0x9584 <__udivmodsi4>
    7f2a:	7b 01       	movw	r14, r22
    7f2c:	8c 01       	movw	r16, r24
    7f2e:	c6 01       	movw	r24, r12
    7f30:	b5 01       	movw	r22, r10
    7f32:	a4 01       	movw	r20, r8
    7f34:	93 01       	movw	r18, r6
    7f36:	0e 94 c2 4a 	call	0x9584	; 0x9584 <__udivmodsi4>
    7f3a:	c9 01       	movw	r24, r18
    7f3c:	da 01       	movw	r26, r20
    7f3e:	3c 01       	movw	r6, r24
    7f40:	4d 01       	movw	r8, r26
    7f42:	c4 01       	movw	r24, r8
    7f44:	b3 01       	movw	r22, r6
    7f46:	21 96       	adiw	r28, 0x01	; 1
    7f48:	2c ad       	ldd	r18, Y+60	; 0x3c
    7f4a:	3d ad       	ldd	r19, Y+61	; 0x3d
    7f4c:	4e ad       	ldd	r20, Y+62	; 0x3e
    7f4e:	5f ad       	ldd	r21, Y+63	; 0x3f
    7f50:	21 97       	sbiw	r28, 0x01	; 1
    7f52:	0e 94 8f 4a 	call	0x951e	; 0x951e <__mulsi3>
    7f56:	9b 01       	movw	r18, r22
    7f58:	ac 01       	movw	r20, r24
    7f5a:	87 01       	movw	r16, r14
    7f5c:	ff 24       	eor	r15, r15
    7f5e:	ee 24       	eor	r14, r14
    7f60:	89 a5       	ldd	r24, Y+41	; 0x29
    7f62:	9a a5       	ldd	r25, Y+42	; 0x2a
    7f64:	ab a5       	ldd	r26, Y+43	; 0x2b
    7f66:	bc a5       	ldd	r27, Y+44	; 0x2c
    7f68:	a0 70       	andi	r26, 0x00	; 0
    7f6a:	b0 70       	andi	r27, 0x00	; 0
    7f6c:	57 01       	movw	r10, r14
    7f6e:	68 01       	movw	r12, r16
    7f70:	a8 2a       	or	r10, r24
    7f72:	b9 2a       	or	r11, r25
    7f74:	ca 2a       	or	r12, r26
    7f76:	db 2a       	or	r13, r27
    7f78:	a2 16       	cp	r10, r18
    7f7a:	b3 06       	cpc	r11, r19
    7f7c:	c4 06       	cpc	r12, r20
    7f7e:	d5 06       	cpc	r13, r21
    7f80:	e0 f4       	brcc	.+56     	; 0x7fba <__udivdi3+0x5d4>
    7f82:	08 94       	sec
    7f84:	61 08       	sbc	r6, r1
    7f86:	71 08       	sbc	r7, r1
    7f88:	81 08       	sbc	r8, r1
    7f8a:	91 08       	sbc	r9, r1
    7f8c:	a2 0c       	add	r10, r2
    7f8e:	b3 1c       	adc	r11, r3
    7f90:	c4 1c       	adc	r12, r4
    7f92:	d5 1c       	adc	r13, r5
    7f94:	a2 14       	cp	r10, r2
    7f96:	b3 04       	cpc	r11, r3
    7f98:	c4 04       	cpc	r12, r4
    7f9a:	d5 04       	cpc	r13, r5
    7f9c:	70 f0       	brcs	.+28     	; 0x7fba <__udivdi3+0x5d4>
    7f9e:	a2 16       	cp	r10, r18
    7fa0:	b3 06       	cpc	r11, r19
    7fa2:	c4 06       	cpc	r12, r20
    7fa4:	d5 06       	cpc	r13, r21
    7fa6:	48 f4       	brcc	.+18     	; 0x7fba <__udivdi3+0x5d4>
    7fa8:	08 94       	sec
    7faa:	61 08       	sbc	r6, r1
    7fac:	71 08       	sbc	r7, r1
    7fae:	81 08       	sbc	r8, r1
    7fb0:	91 08       	sbc	r9, r1
    7fb2:	a2 0c       	add	r10, r2
    7fb4:	b3 1c       	adc	r11, r3
    7fb6:	c4 1c       	adc	r12, r4
    7fb8:	d5 1c       	adc	r13, r5
    7fba:	8d a5       	ldd	r24, Y+45	; 0x2d
    7fbc:	9e a5       	ldd	r25, Y+46	; 0x2e
    7fbe:	af a5       	ldd	r26, Y+47	; 0x2f
    7fc0:	b8 a9       	ldd	r27, Y+48	; 0x30
    7fc2:	6f 96       	adiw	r28, 0x1f	; 31
    7fc4:	0f ac       	ldd	r0, Y+63	; 0x3f
    7fc6:	6f 97       	sbiw	r28, 0x1f	; 31
    7fc8:	04 c0       	rjmp	.+8      	; 0x7fd2 <__udivdi3+0x5ec>
    7fca:	88 0f       	add	r24, r24
    7fcc:	99 1f       	adc	r25, r25
    7fce:	aa 1f       	adc	r26, r26
    7fd0:	bb 1f       	adc	r27, r27
    7fd2:	0a 94       	dec	r0
    7fd4:	d2 f7       	brpl	.-12     	; 0x7fca <__udivdi3+0x5e4>
    7fd6:	8d a7       	std	Y+45, r24	; 0x2d
    7fd8:	9e a7       	std	Y+46, r25	; 0x2e
    7fda:	af a7       	std	Y+47, r26	; 0x2f
    7fdc:	b8 ab       	std	Y+48, r27	; 0x30
    7fde:	a2 1a       	sub	r10, r18
    7fe0:	b3 0a       	sbc	r11, r19
    7fe2:	c4 0a       	sbc	r12, r20
    7fe4:	d5 0a       	sbc	r13, r21
    7fe6:	25 96       	adiw	r28, 0x05	; 5
    7fe8:	ec ac       	ldd	r14, Y+60	; 0x3c
    7fea:	fd ac       	ldd	r15, Y+61	; 0x3d
    7fec:	0e ad       	ldd	r16, Y+62	; 0x3e
    7fee:	1f ad       	ldd	r17, Y+63	; 0x3f
    7ff0:	25 97       	sbiw	r28, 0x05	; 5
    7ff2:	d7 01       	movw	r26, r14
    7ff4:	99 27       	eor	r25, r25
    7ff6:	88 27       	eor	r24, r24
    7ff8:	68 2a       	or	r6, r24
    7ffa:	79 2a       	or	r7, r25
    7ffc:	8a 2a       	or	r8, r26
    7ffe:	9b 2a       	or	r9, r27
    8000:	82 01       	movw	r16, r4
    8002:	22 27       	eor	r18, r18
    8004:	33 27       	eor	r19, r19
    8006:	29 96       	adiw	r28, 0x09	; 9
    8008:	0c af       	std	Y+60, r16	; 0x3c
    800a:	1d af       	std	Y+61, r17	; 0x3d
    800c:	2e af       	std	Y+62, r18	; 0x3e
    800e:	3f af       	std	Y+63, r19	; 0x3f
    8010:	29 97       	sbiw	r28, 0x09	; 9
    8012:	a2 01       	movw	r20, r4
    8014:	91 01       	movw	r18, r2
    8016:	40 70       	andi	r20, 0x00	; 0
    8018:	50 70       	andi	r21, 0x00	; 0
    801a:	2d 96       	adiw	r28, 0x0d	; 13
    801c:	2c af       	std	Y+60, r18	; 0x3c
    801e:	3d af       	std	Y+61, r19	; 0x3d
    8020:	4e af       	std	Y+62, r20	; 0x3e
    8022:	5f af       	std	Y+63, r21	; 0x3f
    8024:	2d 97       	sbiw	r28, 0x0d	; 13
    8026:	c6 01       	movw	r24, r12
    8028:	b5 01       	movw	r22, r10
    802a:	29 96       	adiw	r28, 0x09	; 9
    802c:	2c ad       	ldd	r18, Y+60	; 0x3c
    802e:	3d ad       	ldd	r19, Y+61	; 0x3d
    8030:	4e ad       	ldd	r20, Y+62	; 0x3e
    8032:	5f ad       	ldd	r21, Y+63	; 0x3f
    8034:	29 97       	sbiw	r28, 0x09	; 9
    8036:	0e 94 c2 4a 	call	0x9584	; 0x9584 <__udivmodsi4>
    803a:	7b 01       	movw	r14, r22
    803c:	8c 01       	movw	r16, r24
    803e:	c6 01       	movw	r24, r12
    8040:	b5 01       	movw	r22, r10
    8042:	29 96       	adiw	r28, 0x09	; 9
    8044:	2c ad       	ldd	r18, Y+60	; 0x3c
    8046:	3d ad       	ldd	r19, Y+61	; 0x3d
    8048:	4e ad       	ldd	r20, Y+62	; 0x3e
    804a:	5f ad       	ldd	r21, Y+63	; 0x3f
    804c:	29 97       	sbiw	r28, 0x09	; 9
    804e:	0e 94 c2 4a 	call	0x9584	; 0x9584 <__udivmodsi4>
    8052:	c9 01       	movw	r24, r18
    8054:	da 01       	movw	r26, r20
    8056:	61 96       	adiw	r28, 0x11	; 17
    8058:	8c af       	std	Y+60, r24	; 0x3c
    805a:	9d af       	std	Y+61, r25	; 0x3d
    805c:	ae af       	std	Y+62, r26	; 0x3e
    805e:	bf af       	std	Y+63, r27	; 0x3f
    8060:	61 97       	sbiw	r28, 0x11	; 17
    8062:	bc 01       	movw	r22, r24
    8064:	cd 01       	movw	r24, r26
    8066:	2d 96       	adiw	r28, 0x0d	; 13
    8068:	2c ad       	ldd	r18, Y+60	; 0x3c
    806a:	3d ad       	ldd	r19, Y+61	; 0x3d
    806c:	4e ad       	ldd	r20, Y+62	; 0x3e
    806e:	5f ad       	ldd	r21, Y+63	; 0x3f
    8070:	2d 97       	sbiw	r28, 0x0d	; 13
    8072:	0e 94 8f 4a 	call	0x951e	; 0x951e <__mulsi3>
    8076:	9b 01       	movw	r18, r22
    8078:	ac 01       	movw	r20, r24
    807a:	87 01       	movw	r16, r14
    807c:	ff 24       	eor	r15, r15
    807e:	ee 24       	eor	r14, r14
    8080:	ad a4       	ldd	r10, Y+45	; 0x2d
    8082:	be a4       	ldd	r11, Y+46	; 0x2e
    8084:	cf a4       	ldd	r12, Y+47	; 0x2f
    8086:	d8 a8       	ldd	r13, Y+48	; 0x30
    8088:	c6 01       	movw	r24, r12
    808a:	aa 27       	eor	r26, r26
    808c:	bb 27       	eor	r27, r27
    808e:	57 01       	movw	r10, r14
    8090:	68 01       	movw	r12, r16
    8092:	a8 2a       	or	r10, r24
    8094:	b9 2a       	or	r11, r25
    8096:	ca 2a       	or	r12, r26
    8098:	db 2a       	or	r13, r27
    809a:	a2 16       	cp	r10, r18
    809c:	b3 06       	cpc	r11, r19
    809e:	c4 06       	cpc	r12, r20
    80a0:	d5 06       	cpc	r13, r21
    80a2:	60 f5       	brcc	.+88     	; 0x80fc <__udivdi3+0x716>
    80a4:	61 96       	adiw	r28, 0x11	; 17
    80a6:	6c ad       	ldd	r22, Y+60	; 0x3c
    80a8:	7d ad       	ldd	r23, Y+61	; 0x3d
    80aa:	8e ad       	ldd	r24, Y+62	; 0x3e
    80ac:	9f ad       	ldd	r25, Y+63	; 0x3f
    80ae:	61 97       	sbiw	r28, 0x11	; 17
    80b0:	61 50       	subi	r22, 0x01	; 1
    80b2:	70 40       	sbci	r23, 0x00	; 0
    80b4:	80 40       	sbci	r24, 0x00	; 0
    80b6:	90 40       	sbci	r25, 0x00	; 0
    80b8:	61 96       	adiw	r28, 0x11	; 17
    80ba:	6c af       	std	Y+60, r22	; 0x3c
    80bc:	7d af       	std	Y+61, r23	; 0x3d
    80be:	8e af       	std	Y+62, r24	; 0x3e
    80c0:	9f af       	std	Y+63, r25	; 0x3f
    80c2:	61 97       	sbiw	r28, 0x11	; 17
    80c4:	a2 0c       	add	r10, r2
    80c6:	b3 1c       	adc	r11, r3
    80c8:	c4 1c       	adc	r12, r4
    80ca:	d5 1c       	adc	r13, r5
    80cc:	a2 14       	cp	r10, r2
    80ce:	b3 04       	cpc	r11, r3
    80d0:	c4 04       	cpc	r12, r4
    80d2:	d5 04       	cpc	r13, r5
    80d4:	98 f0       	brcs	.+38     	; 0x80fc <__udivdi3+0x716>
    80d6:	a2 16       	cp	r10, r18
    80d8:	b3 06       	cpc	r11, r19
    80da:	c4 06       	cpc	r12, r20
    80dc:	d5 06       	cpc	r13, r21
    80de:	70 f4       	brcc	.+28     	; 0x80fc <__udivdi3+0x716>
    80e0:	61 50       	subi	r22, 0x01	; 1
    80e2:	70 40       	sbci	r23, 0x00	; 0
    80e4:	80 40       	sbci	r24, 0x00	; 0
    80e6:	90 40       	sbci	r25, 0x00	; 0
    80e8:	61 96       	adiw	r28, 0x11	; 17
    80ea:	6c af       	std	Y+60, r22	; 0x3c
    80ec:	7d af       	std	Y+61, r23	; 0x3d
    80ee:	8e af       	std	Y+62, r24	; 0x3e
    80f0:	9f af       	std	Y+63, r25	; 0x3f
    80f2:	61 97       	sbiw	r28, 0x11	; 17
    80f4:	a2 0c       	add	r10, r2
    80f6:	b3 1c       	adc	r11, r3
    80f8:	c4 1c       	adc	r12, r4
    80fa:	d5 1c       	adc	r13, r5
    80fc:	a2 1a       	sub	r10, r18
    80fe:	b3 0a       	sbc	r11, r19
    8100:	c4 0a       	sbc	r12, r20
    8102:	d5 0a       	sbc	r13, r21
    8104:	c6 01       	movw	r24, r12
    8106:	b5 01       	movw	r22, r10
    8108:	29 96       	adiw	r28, 0x09	; 9
    810a:	2c ad       	ldd	r18, Y+60	; 0x3c
    810c:	3d ad       	ldd	r19, Y+61	; 0x3d
    810e:	4e ad       	ldd	r20, Y+62	; 0x3e
    8110:	5f ad       	ldd	r21, Y+63	; 0x3f
    8112:	29 97       	sbiw	r28, 0x09	; 9
    8114:	0e 94 c2 4a 	call	0x9584	; 0x9584 <__udivmodsi4>
    8118:	7b 01       	movw	r14, r22
    811a:	8c 01       	movw	r16, r24
    811c:	c6 01       	movw	r24, r12
    811e:	b5 01       	movw	r22, r10
    8120:	29 96       	adiw	r28, 0x09	; 9
    8122:	2c ad       	ldd	r18, Y+60	; 0x3c
    8124:	3d ad       	ldd	r19, Y+61	; 0x3d
    8126:	4e ad       	ldd	r20, Y+62	; 0x3e
    8128:	5f ad       	ldd	r21, Y+63	; 0x3f
    812a:	29 97       	sbiw	r28, 0x09	; 9
    812c:	0e 94 c2 4a 	call	0x9584	; 0x9584 <__udivmodsi4>
    8130:	c9 01       	movw	r24, r18
    8132:	da 01       	movw	r26, r20
    8134:	5c 01       	movw	r10, r24
    8136:	6d 01       	movw	r12, r26
    8138:	c6 01       	movw	r24, r12
    813a:	b5 01       	movw	r22, r10
    813c:	2d 96       	adiw	r28, 0x0d	; 13
    813e:	2c ad       	ldd	r18, Y+60	; 0x3c
    8140:	3d ad       	ldd	r19, Y+61	; 0x3d
    8142:	4e ad       	ldd	r20, Y+62	; 0x3e
    8144:	5f ad       	ldd	r21, Y+63	; 0x3f
    8146:	2d 97       	sbiw	r28, 0x0d	; 13
    8148:	0e 94 8f 4a 	call	0x951e	; 0x951e <__mulsi3>
    814c:	9b 01       	movw	r18, r22
    814e:	ac 01       	movw	r20, r24
    8150:	87 01       	movw	r16, r14
    8152:	ff 24       	eor	r15, r15
    8154:	ee 24       	eor	r14, r14
    8156:	8d a5       	ldd	r24, Y+45	; 0x2d
    8158:	9e a5       	ldd	r25, Y+46	; 0x2e
    815a:	af a5       	ldd	r26, Y+47	; 0x2f
    815c:	b8 a9       	ldd	r27, Y+48	; 0x30
    815e:	a0 70       	andi	r26, 0x00	; 0
    8160:	b0 70       	andi	r27, 0x00	; 0
    8162:	e8 2a       	or	r14, r24
    8164:	f9 2a       	or	r15, r25
    8166:	0a 2b       	or	r16, r26
    8168:	1b 2b       	or	r17, r27
    816a:	e2 16       	cp	r14, r18
    816c:	f3 06       	cpc	r15, r19
    816e:	04 07       	cpc	r16, r20
    8170:	15 07       	cpc	r17, r21
    8172:	c0 f4       	brcc	.+48     	; 0x81a4 <__udivdi3+0x7be>
    8174:	08 94       	sec
    8176:	a1 08       	sbc	r10, r1
    8178:	b1 08       	sbc	r11, r1
    817a:	c1 08       	sbc	r12, r1
    817c:	d1 08       	sbc	r13, r1
    817e:	e2 0c       	add	r14, r2
    8180:	f3 1c       	adc	r15, r3
    8182:	04 1d       	adc	r16, r4
    8184:	15 1d       	adc	r17, r5
    8186:	e2 14       	cp	r14, r2
    8188:	f3 04       	cpc	r15, r3
    818a:	04 05       	cpc	r16, r4
    818c:	15 05       	cpc	r17, r5
    818e:	50 f0       	brcs	.+20     	; 0x81a4 <__udivdi3+0x7be>
    8190:	e2 16       	cp	r14, r18
    8192:	f3 06       	cpc	r15, r19
    8194:	04 07       	cpc	r16, r20
    8196:	15 07       	cpc	r17, r21
    8198:	28 f4       	brcc	.+10     	; 0x81a4 <__udivdi3+0x7be>
    819a:	08 94       	sec
    819c:	a1 08       	sbc	r10, r1
    819e:	b1 08       	sbc	r11, r1
    81a0:	c1 08       	sbc	r12, r1
    81a2:	d1 08       	sbc	r13, r1
    81a4:	61 96       	adiw	r28, 0x11	; 17
    81a6:	ec ac       	ldd	r14, Y+60	; 0x3c
    81a8:	fd ac       	ldd	r15, Y+61	; 0x3d
    81aa:	0e ad       	ldd	r16, Y+62	; 0x3e
    81ac:	1f ad       	ldd	r17, Y+63	; 0x3f
    81ae:	61 97       	sbiw	r28, 0x11	; 17
    81b0:	d7 01       	movw	r26, r14
    81b2:	99 27       	eor	r25, r25
    81b4:	88 27       	eor	r24, r24
    81b6:	96 01       	movw	r18, r12
    81b8:	85 01       	movw	r16, r10
    81ba:	08 2b       	or	r16, r24
    81bc:	19 2b       	or	r17, r25
    81be:	2a 2b       	or	r18, r26
    81c0:	3b 2b       	or	r19, r27
    81c2:	09 ab       	std	Y+49, r16	; 0x31
    81c4:	1a ab       	std	Y+50, r17	; 0x32
    81c6:	2b ab       	std	Y+51, r18	; 0x33
    81c8:	3c ab       	std	Y+52, r19	; 0x34
    81ca:	62 c2       	rjmp	.+1220   	; 0x8690 <__udivdi3+0xcaa>
    81cc:	6e 14       	cp	r6, r14
    81ce:	7f 04       	cpc	r7, r15
    81d0:	80 06       	cpc	r8, r16
    81d2:	91 06       	cpc	r9, r17
    81d4:	08 f4       	brcc	.+2      	; 0x81d8 <__udivdi3+0x7f2>
    81d6:	51 c2       	rjmp	.+1186   	; 0x867a <__udivdi3+0xc94>
    81d8:	20 e0       	ldi	r18, 0x00	; 0
    81da:	e2 16       	cp	r14, r18
    81dc:	20 e0       	ldi	r18, 0x00	; 0
    81de:	f2 06       	cpc	r15, r18
    81e0:	21 e0       	ldi	r18, 0x01	; 1
    81e2:	02 07       	cpc	r16, r18
    81e4:	20 e0       	ldi	r18, 0x00	; 0
    81e6:	12 07       	cpc	r17, r18
    81e8:	88 f4       	brcc	.+34     	; 0x820c <__udivdi3+0x826>
    81ea:	3f ef       	ldi	r19, 0xFF	; 255
    81ec:	e3 16       	cp	r14, r19
    81ee:	f1 04       	cpc	r15, r1
    81f0:	01 05       	cpc	r16, r1
    81f2:	11 05       	cpc	r17, r1
    81f4:	31 f0       	breq	.+12     	; 0x8202 <__udivdi3+0x81c>
    81f6:	28 f0       	brcs	.+10     	; 0x8202 <__udivdi3+0x81c>
    81f8:	48 e0       	ldi	r20, 0x08	; 8
    81fa:	50 e0       	ldi	r21, 0x00	; 0
    81fc:	60 e0       	ldi	r22, 0x00	; 0
    81fe:	70 e0       	ldi	r23, 0x00	; 0
    8200:	17 c0       	rjmp	.+46     	; 0x8230 <__udivdi3+0x84a>
    8202:	40 e0       	ldi	r20, 0x00	; 0
    8204:	50 e0       	ldi	r21, 0x00	; 0
    8206:	60 e0       	ldi	r22, 0x00	; 0
    8208:	70 e0       	ldi	r23, 0x00	; 0
    820a:	12 c0       	rjmp	.+36     	; 0x8230 <__udivdi3+0x84a>
    820c:	40 e0       	ldi	r20, 0x00	; 0
    820e:	e4 16       	cp	r14, r20
    8210:	40 e0       	ldi	r20, 0x00	; 0
    8212:	f4 06       	cpc	r15, r20
    8214:	40 e0       	ldi	r20, 0x00	; 0
    8216:	04 07       	cpc	r16, r20
    8218:	41 e0       	ldi	r20, 0x01	; 1
    821a:	14 07       	cpc	r17, r20
    821c:	28 f0       	brcs	.+10     	; 0x8228 <__udivdi3+0x842>
    821e:	48 e1       	ldi	r20, 0x18	; 24
    8220:	50 e0       	ldi	r21, 0x00	; 0
    8222:	60 e0       	ldi	r22, 0x00	; 0
    8224:	70 e0       	ldi	r23, 0x00	; 0
    8226:	04 c0       	rjmp	.+8      	; 0x8230 <__udivdi3+0x84a>
    8228:	40 e1       	ldi	r20, 0x10	; 16
    822a:	50 e0       	ldi	r21, 0x00	; 0
    822c:	60 e0       	ldi	r22, 0x00	; 0
    822e:	70 e0       	ldi	r23, 0x00	; 0
    8230:	d8 01       	movw	r26, r16
    8232:	c7 01       	movw	r24, r14
    8234:	04 2e       	mov	r0, r20
    8236:	04 c0       	rjmp	.+8      	; 0x8240 <__udivdi3+0x85a>
    8238:	b6 95       	lsr	r27
    823a:	a7 95       	ror	r26
    823c:	97 95       	ror	r25
    823e:	87 95       	ror	r24
    8240:	0a 94       	dec	r0
    8242:	d2 f7       	brpl	.-12     	; 0x8238 <__udivdi3+0x852>
    8244:	80 58       	subi	r24, 0x80	; 128
    8246:	9d 4f       	sbci	r25, 0xFD	; 253
    8248:	dc 01       	movw	r26, r24
    824a:	2c 91       	ld	r18, X
    824c:	30 e2       	ldi	r19, 0x20	; 32
    824e:	a3 2e       	mov	r10, r19
    8250:	b1 2c       	mov	r11, r1
    8252:	c1 2c       	mov	r12, r1
    8254:	d1 2c       	mov	r13, r1
    8256:	d6 01       	movw	r26, r12
    8258:	c5 01       	movw	r24, r10
    825a:	84 1b       	sub	r24, r20
    825c:	95 0b       	sbc	r25, r21
    825e:	a6 0b       	sbc	r26, r22
    8260:	b7 0b       	sbc	r27, r23
    8262:	82 1b       	sub	r24, r18
    8264:	91 09       	sbc	r25, r1
    8266:	a1 09       	sbc	r26, r1
    8268:	b1 09       	sbc	r27, r1
    826a:	00 97       	sbiw	r24, 0x00	; 0
    826c:	a1 05       	cpc	r26, r1
    826e:	b1 05       	cpc	r27, r1
    8270:	89 f4       	brne	.+34     	; 0x8294 <__udivdi3+0x8ae>
    8272:	e6 14       	cp	r14, r6
    8274:	f7 04       	cpc	r15, r7
    8276:	08 05       	cpc	r16, r8
    8278:	19 05       	cpc	r17, r9
    827a:	08 f4       	brcc	.+2      	; 0x827e <__udivdi3+0x898>
    827c:	f2 c1       	rjmp	.+996    	; 0x8662 <__udivdi3+0xc7c>
    827e:	6d a4       	ldd	r6, Y+45	; 0x2d
    8280:	7e a4       	ldd	r7, Y+46	; 0x2e
    8282:	8f a4       	ldd	r8, Y+47	; 0x2f
    8284:	98 a8       	ldd	r9, Y+48	; 0x30
    8286:	62 14       	cp	r6, r2
    8288:	73 04       	cpc	r7, r3
    828a:	84 04       	cpc	r8, r4
    828c:	95 04       	cpc	r9, r5
    828e:	08 f0       	brcs	.+2      	; 0x8292 <__udivdi3+0x8ac>
    8290:	e8 c1       	rjmp	.+976    	; 0x8662 <__udivdi3+0xc7c>
    8292:	f3 c1       	rjmp	.+998    	; 0x867a <__udivdi3+0xc94>
    8294:	6e 96       	adiw	r28, 0x1e	; 30
    8296:	8f af       	std	Y+63, r24	; 0x3f
    8298:	6e 97       	sbiw	r28, 0x1e	; 30
    829a:	08 2e       	mov	r0, r24
    829c:	04 c0       	rjmp	.+8      	; 0x82a6 <__udivdi3+0x8c0>
    829e:	ee 0c       	add	r14, r14
    82a0:	ff 1c       	adc	r15, r15
    82a2:	00 1f       	adc	r16, r16
    82a4:	11 1f       	adc	r17, r17
    82a6:	0a 94       	dec	r0
    82a8:	d2 f7       	brpl	.-12     	; 0x829e <__udivdi3+0x8b8>
    82aa:	6a 2d       	mov	r22, r10
    82ac:	68 1b       	sub	r22, r24
    82ae:	d2 01       	movw	r26, r4
    82b0:	c1 01       	movw	r24, r2
    82b2:	06 2e       	mov	r0, r22
    82b4:	04 c0       	rjmp	.+8      	; 0x82be <__udivdi3+0x8d8>
    82b6:	b6 95       	lsr	r27
    82b8:	a7 95       	ror	r26
    82ba:	97 95       	ror	r25
    82bc:	87 95       	ror	r24
    82be:	0a 94       	dec	r0
    82c0:	d2 f7       	brpl	.-12     	; 0x82b6 <__udivdi3+0x8d0>
    82c2:	5c 01       	movw	r10, r24
    82c4:	6d 01       	movw	r12, r26
    82c6:	ae 28       	or	r10, r14
    82c8:	bf 28       	or	r11, r15
    82ca:	c0 2a       	or	r12, r16
    82cc:	d1 2a       	or	r13, r17
    82ce:	ad a2       	std	Y+37, r10	; 0x25
    82d0:	be a2       	std	Y+38, r11	; 0x26
    82d2:	cf a2       	std	Y+39, r12	; 0x27
    82d4:	d8 a6       	std	Y+40, r13	; 0x28
    82d6:	72 01       	movw	r14, r4
    82d8:	61 01       	movw	r12, r2
    82da:	6e 96       	adiw	r28, 0x1e	; 30
    82dc:	0f ac       	ldd	r0, Y+63	; 0x3f
    82de:	6e 97       	sbiw	r28, 0x1e	; 30
    82e0:	04 c0       	rjmp	.+8      	; 0x82ea <__udivdi3+0x904>
    82e2:	cc 0c       	add	r12, r12
    82e4:	dd 1c       	adc	r13, r13
    82e6:	ee 1c       	adc	r14, r14
    82e8:	ff 1c       	adc	r15, r15
    82ea:	0a 94       	dec	r0
    82ec:	d2 f7       	brpl	.-12     	; 0x82e2 <__udivdi3+0x8fc>
    82ee:	c9 a2       	std	Y+33, r12	; 0x21
    82f0:	da a2       	std	Y+34, r13	; 0x22
    82f2:	eb a2       	std	Y+35, r14	; 0x23
    82f4:	fc a2       	std	Y+36, r15	; 0x24
    82f6:	64 01       	movw	r12, r8
    82f8:	53 01       	movw	r10, r6
    82fa:	06 2e       	mov	r0, r22
    82fc:	04 c0       	rjmp	.+8      	; 0x8306 <__udivdi3+0x920>
    82fe:	d6 94       	lsr	r13
    8300:	c7 94       	ror	r12
    8302:	b7 94       	ror	r11
    8304:	a7 94       	ror	r10
    8306:	0a 94       	dec	r0
    8308:	d2 f7       	brpl	.-12     	; 0x82fe <__udivdi3+0x918>
    830a:	d4 01       	movw	r26, r8
    830c:	c3 01       	movw	r24, r6
    830e:	6e 96       	adiw	r28, 0x1e	; 30
    8310:	0f ac       	ldd	r0, Y+63	; 0x3f
    8312:	6e 97       	sbiw	r28, 0x1e	; 30
    8314:	04 c0       	rjmp	.+8      	; 0x831e <__udivdi3+0x938>
    8316:	88 0f       	add	r24, r24
    8318:	99 1f       	adc	r25, r25
    831a:	aa 1f       	adc	r26, r26
    831c:	bb 1f       	adc	r27, r27
    831e:	0a 94       	dec	r0
    8320:	d2 f7       	brpl	.-12     	; 0x8316 <__udivdi3+0x930>
    8322:	ed a4       	ldd	r14, Y+45	; 0x2d
    8324:	fe a4       	ldd	r15, Y+46	; 0x2e
    8326:	0f a5       	ldd	r16, Y+47	; 0x2f
    8328:	18 a9       	ldd	r17, Y+48	; 0x30
    832a:	04 c0       	rjmp	.+8      	; 0x8334 <__udivdi3+0x94e>
    832c:	16 95       	lsr	r17
    832e:	07 95       	ror	r16
    8330:	f7 94       	ror	r15
    8332:	e7 94       	ror	r14
    8334:	6a 95       	dec	r22
    8336:	d2 f7       	brpl	.-12     	; 0x832c <__udivdi3+0x946>
    8338:	37 01       	movw	r6, r14
    833a:	48 01       	movw	r8, r16
    833c:	68 2a       	or	r6, r24
    833e:	79 2a       	or	r7, r25
    8340:	8a 2a       	or	r8, r26
    8342:	9b 2a       	or	r9, r27
    8344:	6d 8e       	std	Y+29, r6	; 0x1d
    8346:	7e 8e       	std	Y+30, r7	; 0x1e
    8348:	8f 8e       	std	Y+31, r8	; 0x1f
    834a:	98 a2       	std	Y+32, r9	; 0x20
    834c:	ed a0       	ldd	r14, Y+37	; 0x25
    834e:	fe a0       	ldd	r15, Y+38	; 0x26
    8350:	0f a1       	ldd	r16, Y+39	; 0x27
    8352:	18 a5       	ldd	r17, Y+40	; 0x28
    8354:	38 01       	movw	r6, r16
    8356:	88 24       	eor	r8, r8
    8358:	99 24       	eor	r9, r9
    835a:	98 01       	movw	r18, r16
    835c:	87 01       	movw	r16, r14
    835e:	20 70       	andi	r18, 0x00	; 0
    8360:	30 70       	andi	r19, 0x00	; 0
    8362:	65 96       	adiw	r28, 0x15	; 21
    8364:	0c af       	std	Y+60, r16	; 0x3c
    8366:	1d af       	std	Y+61, r17	; 0x3d
    8368:	2e af       	std	Y+62, r18	; 0x3e
    836a:	3f af       	std	Y+63, r19	; 0x3f
    836c:	65 97       	sbiw	r28, 0x15	; 21
    836e:	c6 01       	movw	r24, r12
    8370:	b5 01       	movw	r22, r10
    8372:	a4 01       	movw	r20, r8
    8374:	93 01       	movw	r18, r6
    8376:	0e 94 c2 4a 	call	0x9584	; 0x9584 <__udivmodsi4>
    837a:	7b 01       	movw	r14, r22
    837c:	8c 01       	movw	r16, r24
    837e:	c6 01       	movw	r24, r12
    8380:	b5 01       	movw	r22, r10
    8382:	a4 01       	movw	r20, r8
    8384:	93 01       	movw	r18, r6
    8386:	0e 94 c2 4a 	call	0x9584	; 0x9584 <__udivmodsi4>
    838a:	c9 01       	movw	r24, r18
    838c:	da 01       	movw	r26, r20
    838e:	1c 01       	movw	r2, r24
    8390:	2d 01       	movw	r4, r26
    8392:	c2 01       	movw	r24, r4
    8394:	b1 01       	movw	r22, r2
    8396:	65 96       	adiw	r28, 0x15	; 21
    8398:	2c ad       	ldd	r18, Y+60	; 0x3c
    839a:	3d ad       	ldd	r19, Y+61	; 0x3d
    839c:	4e ad       	ldd	r20, Y+62	; 0x3e
    839e:	5f ad       	ldd	r21, Y+63	; 0x3f
    83a0:	65 97       	sbiw	r28, 0x15	; 21
    83a2:	0e 94 8f 4a 	call	0x951e	; 0x951e <__mulsi3>
    83a6:	9b 01       	movw	r18, r22
    83a8:	ac 01       	movw	r20, r24
    83aa:	87 01       	movw	r16, r14
    83ac:	ff 24       	eor	r15, r15
    83ae:	ee 24       	eor	r14, r14
    83b0:	ad 8c       	ldd	r10, Y+29	; 0x1d
    83b2:	be 8c       	ldd	r11, Y+30	; 0x1e
    83b4:	cf 8c       	ldd	r12, Y+31	; 0x1f
    83b6:	d8 a0       	ldd	r13, Y+32	; 0x20
    83b8:	c6 01       	movw	r24, r12
    83ba:	aa 27       	eor	r26, r26
    83bc:	bb 27       	eor	r27, r27
    83be:	57 01       	movw	r10, r14
    83c0:	68 01       	movw	r12, r16
    83c2:	a8 2a       	or	r10, r24
    83c4:	b9 2a       	or	r11, r25
    83c6:	ca 2a       	or	r12, r26
    83c8:	db 2a       	or	r13, r27
    83ca:	a2 16       	cp	r10, r18
    83cc:	b3 06       	cpc	r11, r19
    83ce:	c4 06       	cpc	r12, r20
    83d0:	d5 06       	cpc	r13, r21
    83d2:	00 f5       	brcc	.+64     	; 0x8414 <__udivdi3+0xa2e>
    83d4:	08 94       	sec
    83d6:	21 08       	sbc	r2, r1
    83d8:	31 08       	sbc	r3, r1
    83da:	41 08       	sbc	r4, r1
    83dc:	51 08       	sbc	r5, r1
    83de:	ed a0       	ldd	r14, Y+37	; 0x25
    83e0:	fe a0       	ldd	r15, Y+38	; 0x26
    83e2:	0f a1       	ldd	r16, Y+39	; 0x27
    83e4:	18 a5       	ldd	r17, Y+40	; 0x28
    83e6:	ae 0c       	add	r10, r14
    83e8:	bf 1c       	adc	r11, r15
    83ea:	c0 1e       	adc	r12, r16
    83ec:	d1 1e       	adc	r13, r17
    83ee:	ae 14       	cp	r10, r14
    83f0:	bf 04       	cpc	r11, r15
    83f2:	c0 06       	cpc	r12, r16
    83f4:	d1 06       	cpc	r13, r17
    83f6:	70 f0       	brcs	.+28     	; 0x8414 <__udivdi3+0xa2e>
    83f8:	a2 16       	cp	r10, r18
    83fa:	b3 06       	cpc	r11, r19
    83fc:	c4 06       	cpc	r12, r20
    83fe:	d5 06       	cpc	r13, r21
    8400:	48 f4       	brcc	.+18     	; 0x8414 <__udivdi3+0xa2e>
    8402:	08 94       	sec
    8404:	21 08       	sbc	r2, r1
    8406:	31 08       	sbc	r3, r1
    8408:	41 08       	sbc	r4, r1
    840a:	51 08       	sbc	r5, r1
    840c:	ae 0c       	add	r10, r14
    840e:	bf 1c       	adc	r11, r15
    8410:	c0 1e       	adc	r12, r16
    8412:	d1 1e       	adc	r13, r17
    8414:	a2 1a       	sub	r10, r18
    8416:	b3 0a       	sbc	r11, r19
    8418:	c4 0a       	sbc	r12, r20
    841a:	d5 0a       	sbc	r13, r21
    841c:	c6 01       	movw	r24, r12
    841e:	b5 01       	movw	r22, r10
    8420:	a4 01       	movw	r20, r8
    8422:	93 01       	movw	r18, r6
    8424:	0e 94 c2 4a 	call	0x9584	; 0x9584 <__udivmodsi4>
    8428:	7b 01       	movw	r14, r22
    842a:	8c 01       	movw	r16, r24
    842c:	c6 01       	movw	r24, r12
    842e:	b5 01       	movw	r22, r10
    8430:	a4 01       	movw	r20, r8
    8432:	93 01       	movw	r18, r6
    8434:	0e 94 c2 4a 	call	0x9584	; 0x9584 <__udivmodsi4>
    8438:	c9 01       	movw	r24, r18
    843a:	da 01       	movw	r26, r20
    843c:	3c 01       	movw	r6, r24
    843e:	4d 01       	movw	r8, r26
    8440:	c4 01       	movw	r24, r8
    8442:	b3 01       	movw	r22, r6
    8444:	65 96       	adiw	r28, 0x15	; 21
    8446:	2c ad       	ldd	r18, Y+60	; 0x3c
    8448:	3d ad       	ldd	r19, Y+61	; 0x3d
    844a:	4e ad       	ldd	r20, Y+62	; 0x3e
    844c:	5f ad       	ldd	r21, Y+63	; 0x3f
    844e:	65 97       	sbiw	r28, 0x15	; 21
    8450:	0e 94 8f 4a 	call	0x951e	; 0x951e <__mulsi3>
    8454:	9b 01       	movw	r18, r22
    8456:	ac 01       	movw	r20, r24
    8458:	87 01       	movw	r16, r14
    845a:	ff 24       	eor	r15, r15
    845c:	ee 24       	eor	r14, r14
    845e:	8d 8d       	ldd	r24, Y+29	; 0x1d
    8460:	9e 8d       	ldd	r25, Y+30	; 0x1e
    8462:	af 8d       	ldd	r26, Y+31	; 0x1f
    8464:	b8 a1       	ldd	r27, Y+32	; 0x20
    8466:	a0 70       	andi	r26, 0x00	; 0
    8468:	b0 70       	andi	r27, 0x00	; 0
    846a:	57 01       	movw	r10, r14
    846c:	68 01       	movw	r12, r16
    846e:	a8 2a       	or	r10, r24
    8470:	b9 2a       	or	r11, r25
    8472:	ca 2a       	or	r12, r26
    8474:	db 2a       	or	r13, r27
    8476:	a2 16       	cp	r10, r18
    8478:	b3 06       	cpc	r11, r19
    847a:	c4 06       	cpc	r12, r20
    847c:	d5 06       	cpc	r13, r21
    847e:	00 f5       	brcc	.+64     	; 0x84c0 <__udivdi3+0xada>
    8480:	08 94       	sec
    8482:	61 08       	sbc	r6, r1
    8484:	71 08       	sbc	r7, r1
    8486:	81 08       	sbc	r8, r1
    8488:	91 08       	sbc	r9, r1
    848a:	6d a1       	ldd	r22, Y+37	; 0x25
    848c:	7e a1       	ldd	r23, Y+38	; 0x26
    848e:	8f a1       	ldd	r24, Y+39	; 0x27
    8490:	98 a5       	ldd	r25, Y+40	; 0x28
    8492:	a6 0e       	add	r10, r22
    8494:	b7 1e       	adc	r11, r23
    8496:	c8 1e       	adc	r12, r24
    8498:	d9 1e       	adc	r13, r25
    849a:	a6 16       	cp	r10, r22
    849c:	b7 06       	cpc	r11, r23
    849e:	c8 06       	cpc	r12, r24
    84a0:	d9 06       	cpc	r13, r25
    84a2:	70 f0       	brcs	.+28     	; 0x84c0 <__udivdi3+0xada>
    84a4:	a2 16       	cp	r10, r18
    84a6:	b3 06       	cpc	r11, r19
    84a8:	c4 06       	cpc	r12, r20
    84aa:	d5 06       	cpc	r13, r21
    84ac:	48 f4       	brcc	.+18     	; 0x84c0 <__udivdi3+0xada>
    84ae:	08 94       	sec
    84b0:	61 08       	sbc	r6, r1
    84b2:	71 08       	sbc	r7, r1
    84b4:	81 08       	sbc	r8, r1
    84b6:	91 08       	sbc	r9, r1
    84b8:	a6 0e       	add	r10, r22
    84ba:	b7 1e       	adc	r11, r23
    84bc:	c8 1e       	adc	r12, r24
    84be:	d9 1e       	adc	r13, r25
    84c0:	d6 01       	movw	r26, r12
    84c2:	c5 01       	movw	r24, r10
    84c4:	82 1b       	sub	r24, r18
    84c6:	93 0b       	sbc	r25, r19
    84c8:	a4 0b       	sbc	r26, r20
    84ca:	b5 0b       	sbc	r27, r21
    84cc:	89 8f       	std	Y+25, r24	; 0x19
    84ce:	9a 8f       	std	Y+26, r25	; 0x1a
    84d0:	ab 8f       	std	Y+27, r26	; 0x1b
    84d2:	bc 8f       	std	Y+28, r27	; 0x1c
    84d4:	d1 01       	movw	r26, r2
    84d6:	99 27       	eor	r25, r25
    84d8:	88 27       	eor	r24, r24
    84da:	64 01       	movw	r12, r8
    84dc:	53 01       	movw	r10, r6
    84de:	a8 2a       	or	r10, r24
    84e0:	b9 2a       	or	r11, r25
    84e2:	ca 2a       	or	r12, r26
    84e4:	db 2a       	or	r13, r27
    84e6:	a9 aa       	std	Y+49, r10	; 0x31
    84e8:	ba aa       	std	Y+50, r11	; 0x32
    84ea:	cb aa       	std	Y+51, r12	; 0x33
    84ec:	dc aa       	std	Y+52, r13	; 0x34
    84ee:	86 01       	movw	r16, r12
    84f0:	75 01       	movw	r14, r10
    84f2:	2f ef       	ldi	r18, 0xFF	; 255
    84f4:	3f ef       	ldi	r19, 0xFF	; 255
    84f6:	40 e0       	ldi	r20, 0x00	; 0
    84f8:	50 e0       	ldi	r21, 0x00	; 0
    84fa:	e2 22       	and	r14, r18
    84fc:	f3 22       	and	r15, r19
    84fe:	04 23       	and	r16, r20
    8500:	15 23       	and	r17, r21
    8502:	a6 01       	movw	r20, r12
    8504:	66 27       	eor	r22, r22
    8506:	77 27       	eor	r23, r23
    8508:	6d 96       	adiw	r28, 0x1d	; 29
    850a:	4c af       	std	Y+60, r20	; 0x3c
    850c:	5d af       	std	Y+61, r21	; 0x3d
    850e:	6e af       	std	Y+62, r22	; 0x3e
    8510:	7f af       	std	Y+63, r23	; 0x3f
    8512:	6d 97       	sbiw	r28, 0x1d	; 29
    8514:	a9 a0       	ldd	r10, Y+33	; 0x21
    8516:	ba a0       	ldd	r11, Y+34	; 0x22
    8518:	cb a0       	ldd	r12, Y+35	; 0x23
    851a:	dc a0       	ldd	r13, Y+36	; 0x24
    851c:	6f ef       	ldi	r22, 0xFF	; 255
    851e:	7f ef       	ldi	r23, 0xFF	; 255
    8520:	80 e0       	ldi	r24, 0x00	; 0
    8522:	90 e0       	ldi	r25, 0x00	; 0
    8524:	a6 22       	and	r10, r22
    8526:	b7 22       	and	r11, r23
    8528:	c8 22       	and	r12, r24
    852a:	d9 22       	and	r13, r25
    852c:	89 a1       	ldd	r24, Y+33	; 0x21
    852e:	9a a1       	ldd	r25, Y+34	; 0x22
    8530:	ab a1       	ldd	r26, Y+35	; 0x23
    8532:	bc a1       	ldd	r27, Y+36	; 0x24
    8534:	1d 01       	movw	r2, r26
    8536:	44 24       	eor	r4, r4
    8538:	55 24       	eor	r5, r5
    853a:	c8 01       	movw	r24, r16
    853c:	b7 01       	movw	r22, r14
    853e:	a6 01       	movw	r20, r12
    8540:	95 01       	movw	r18, r10
    8542:	0e 94 8f 4a 	call	0x951e	; 0x951e <__mulsi3>
    8546:	69 96       	adiw	r28, 0x19	; 25
    8548:	6c af       	std	Y+60, r22	; 0x3c
    854a:	7d af       	std	Y+61, r23	; 0x3d
    854c:	8e af       	std	Y+62, r24	; 0x3e
    854e:	9f af       	std	Y+63, r25	; 0x3f
    8550:	69 97       	sbiw	r28, 0x19	; 25
    8552:	c8 01       	movw	r24, r16
    8554:	b7 01       	movw	r22, r14
    8556:	a2 01       	movw	r20, r4
    8558:	91 01       	movw	r18, r2
    855a:	0e 94 8f 4a 	call	0x951e	; 0x951e <__mulsi3>
    855e:	3b 01       	movw	r6, r22
    8560:	4c 01       	movw	r8, r24
    8562:	6d 96       	adiw	r28, 0x1d	; 29
    8564:	6c ad       	ldd	r22, Y+60	; 0x3c
    8566:	7d ad       	ldd	r23, Y+61	; 0x3d
    8568:	8e ad       	ldd	r24, Y+62	; 0x3e
    856a:	9f ad       	ldd	r25, Y+63	; 0x3f
    856c:	6d 97       	sbiw	r28, 0x1d	; 29
    856e:	a6 01       	movw	r20, r12
    8570:	95 01       	movw	r18, r10
    8572:	0e 94 8f 4a 	call	0x951e	; 0x951e <__mulsi3>
    8576:	7b 01       	movw	r14, r22
    8578:	8c 01       	movw	r16, r24
    857a:	6d 96       	adiw	r28, 0x1d	; 29
    857c:	6c ad       	ldd	r22, Y+60	; 0x3c
    857e:	7d ad       	ldd	r23, Y+61	; 0x3d
    8580:	8e ad       	ldd	r24, Y+62	; 0x3e
    8582:	9f ad       	ldd	r25, Y+63	; 0x3f
    8584:	6d 97       	sbiw	r28, 0x1d	; 29
    8586:	a2 01       	movw	r20, r4
    8588:	91 01       	movw	r18, r2
    858a:	0e 94 8f 4a 	call	0x951e	; 0x951e <__mulsi3>
    858e:	5b 01       	movw	r10, r22
    8590:	6c 01       	movw	r12, r24
    8592:	a8 01       	movw	r20, r16
    8594:	97 01       	movw	r18, r14
    8596:	26 0d       	add	r18, r6
    8598:	37 1d       	adc	r19, r7
    859a:	48 1d       	adc	r20, r8
    859c:	59 1d       	adc	r21, r9
    859e:	69 96       	adiw	r28, 0x19	; 25
    85a0:	6c ac       	ldd	r6, Y+60	; 0x3c
    85a2:	7d ac       	ldd	r7, Y+61	; 0x3d
    85a4:	8e ac       	ldd	r8, Y+62	; 0x3e
    85a6:	9f ac       	ldd	r9, Y+63	; 0x3f
    85a8:	69 97       	sbiw	r28, 0x19	; 25
    85aa:	c4 01       	movw	r24, r8
    85ac:	aa 27       	eor	r26, r26
    85ae:	bb 27       	eor	r27, r27
    85b0:	28 0f       	add	r18, r24
    85b2:	39 1f       	adc	r19, r25
    85b4:	4a 1f       	adc	r20, r26
    85b6:	5b 1f       	adc	r21, r27
    85b8:	2e 15       	cp	r18, r14
    85ba:	3f 05       	cpc	r19, r15
    85bc:	40 07       	cpc	r20, r16
    85be:	51 07       	cpc	r21, r17
    85c0:	48 f4       	brcc	.+18     	; 0x85d4 <__udivdi3+0xbee>
    85c2:	e1 2c       	mov	r14, r1
    85c4:	f1 2c       	mov	r15, r1
    85c6:	61 e0       	ldi	r22, 0x01	; 1
    85c8:	06 2f       	mov	r16, r22
    85ca:	11 2d       	mov	r17, r1
    85cc:	ae 0c       	add	r10, r14
    85ce:	bf 1c       	adc	r11, r15
    85d0:	c0 1e       	adc	r12, r16
    85d2:	d1 1e       	adc	r13, r17
    85d4:	ca 01       	movw	r24, r20
    85d6:	aa 27       	eor	r26, r26
    85d8:	bb 27       	eor	r27, r27
    85da:	bc 01       	movw	r22, r24
    85dc:	cd 01       	movw	r24, r26
    85de:	6a 0d       	add	r22, r10
    85e0:	7b 1d       	adc	r23, r11
    85e2:	8c 1d       	adc	r24, r12
    85e4:	9d 1d       	adc	r25, r13
    85e6:	69 8c       	ldd	r6, Y+25	; 0x19
    85e8:	7a 8c       	ldd	r7, Y+26	; 0x1a
    85ea:	8b 8c       	ldd	r8, Y+27	; 0x1b
    85ec:	9c 8c       	ldd	r9, Y+28	; 0x1c
    85ee:	66 16       	cp	r6, r22
    85f0:	77 06       	cpc	r7, r23
    85f2:	88 06       	cpc	r8, r24
    85f4:	99 06       	cpc	r9, r25
    85f6:	40 f1       	brcs	.+80     	; 0x8648 <__udivdi3+0xc62>
    85f8:	66 15       	cp	r22, r6
    85fa:	77 05       	cpc	r23, r7
    85fc:	88 05       	cpc	r24, r8
    85fe:	99 05       	cpc	r25, r9
    8600:	09 f0       	breq	.+2      	; 0x8604 <__udivdi3+0xc1e>
    8602:	43 c0       	rjmp	.+134    	; 0x868a <__udivdi3+0xca4>
    8604:	d9 01       	movw	r26, r18
    8606:	99 27       	eor	r25, r25
    8608:	88 27       	eor	r24, r24
    860a:	69 96       	adiw	r28, 0x19	; 25
    860c:	2c ad       	ldd	r18, Y+60	; 0x3c
    860e:	3d ad       	ldd	r19, Y+61	; 0x3d
    8610:	4e ad       	ldd	r20, Y+62	; 0x3e
    8612:	5f ad       	ldd	r21, Y+63	; 0x3f
    8614:	69 97       	sbiw	r28, 0x19	; 25
    8616:	40 70       	andi	r20, 0x00	; 0
    8618:	50 70       	andi	r21, 0x00	; 0
    861a:	82 0f       	add	r24, r18
    861c:	93 1f       	adc	r25, r19
    861e:	a4 1f       	adc	r26, r20
    8620:	b5 1f       	adc	r27, r21
    8622:	2d a5       	ldd	r18, Y+45	; 0x2d
    8624:	3e a5       	ldd	r19, Y+46	; 0x2e
    8626:	4f a5       	ldd	r20, Y+47	; 0x2f
    8628:	58 a9       	ldd	r21, Y+48	; 0x30
    862a:	6e 96       	adiw	r28, 0x1e	; 30
    862c:	0f ac       	ldd	r0, Y+63	; 0x3f
    862e:	6e 97       	sbiw	r28, 0x1e	; 30
    8630:	04 c0       	rjmp	.+8      	; 0x863a <__udivdi3+0xc54>
    8632:	22 0f       	add	r18, r18
    8634:	33 1f       	adc	r19, r19
    8636:	44 1f       	adc	r20, r20
    8638:	55 1f       	adc	r21, r21
    863a:	0a 94       	dec	r0
    863c:	d2 f7       	brpl	.-12     	; 0x8632 <__udivdi3+0xc4c>
    863e:	28 17       	cp	r18, r24
    8640:	39 07       	cpc	r19, r25
    8642:	4a 07       	cpc	r20, r26
    8644:	5b 07       	cpc	r21, r27
    8646:	08 f5       	brcc	.+66     	; 0x868a <__udivdi3+0xca4>
    8648:	09 a9       	ldd	r16, Y+49	; 0x31
    864a:	1a a9       	ldd	r17, Y+50	; 0x32
    864c:	2b a9       	ldd	r18, Y+51	; 0x33
    864e:	3c a9       	ldd	r19, Y+52	; 0x34
    8650:	01 50       	subi	r16, 0x01	; 1
    8652:	10 40       	sbci	r17, 0x00	; 0
    8654:	20 40       	sbci	r18, 0x00	; 0
    8656:	30 40       	sbci	r19, 0x00	; 0
    8658:	09 ab       	std	Y+49, r16	; 0x31
    865a:	1a ab       	std	Y+50, r17	; 0x32
    865c:	2b ab       	std	Y+51, r18	; 0x33
    865e:	3c ab       	std	Y+52, r19	; 0x34
    8660:	14 c0       	rjmp	.+40     	; 0x868a <__udivdi3+0xca4>
    8662:	66 24       	eor	r6, r6
    8664:	77 24       	eor	r7, r7
    8666:	43 01       	movw	r8, r6
    8668:	21 e0       	ldi	r18, 0x01	; 1
    866a:	30 e0       	ldi	r19, 0x00	; 0
    866c:	40 e0       	ldi	r20, 0x00	; 0
    866e:	50 e0       	ldi	r21, 0x00	; 0
    8670:	29 ab       	std	Y+49, r18	; 0x31
    8672:	3a ab       	std	Y+50, r19	; 0x32
    8674:	4b ab       	std	Y+51, r20	; 0x33
    8676:	5c ab       	std	Y+52, r21	; 0x34
    8678:	0b c0       	rjmp	.+22     	; 0x8690 <__udivdi3+0xcaa>
    867a:	66 24       	eor	r6, r6
    867c:	77 24       	eor	r7, r7
    867e:	43 01       	movw	r8, r6
    8680:	19 aa       	std	Y+49, r1	; 0x31
    8682:	1a aa       	std	Y+50, r1	; 0x32
    8684:	1b aa       	std	Y+51, r1	; 0x33
    8686:	1c aa       	std	Y+52, r1	; 0x34
    8688:	03 c0       	rjmp	.+6      	; 0x8690 <__udivdi3+0xcaa>
    868a:	66 24       	eor	r6, r6
    868c:	77 24       	eor	r7, r7
    868e:	43 01       	movw	r8, r6
    8690:	fe 01       	movw	r30, r28
    8692:	71 96       	adiw	r30, 0x11	; 17
    8694:	88 e0       	ldi	r24, 0x08	; 8
    8696:	df 01       	movw	r26, r30
    8698:	1d 92       	st	X+, r1
    869a:	8a 95       	dec	r24
    869c:	e9 f7       	brne	.-6      	; 0x8698 <__udivdi3+0xcb2>
    869e:	a9 a8       	ldd	r10, Y+49	; 0x31
    86a0:	ba a8       	ldd	r11, Y+50	; 0x32
    86a2:	cb a8       	ldd	r12, Y+51	; 0x33
    86a4:	dc a8       	ldd	r13, Y+52	; 0x34
    86a6:	a9 8a       	std	Y+17, r10	; 0x11
    86a8:	ba 8a       	std	Y+18, r11	; 0x12
    86aa:	cb 8a       	std	Y+19, r12	; 0x13
    86ac:	dc 8a       	std	Y+20, r13	; 0x14
    86ae:	6d 8a       	std	Y+21, r6	; 0x15
    86b0:	7e 8a       	std	Y+22, r7	; 0x16
    86b2:	8f 8a       	std	Y+23, r8	; 0x17
    86b4:	98 8e       	std	Y+24, r9	; 0x18
    86b6:	29 a9       	ldd	r18, Y+49	; 0x31
    86b8:	3a 89       	ldd	r19, Y+18	; 0x12
    86ba:	4b 89       	ldd	r20, Y+19	; 0x13
    86bc:	5c 89       	ldd	r21, Y+20	; 0x14
    86be:	66 2d       	mov	r22, r6
    86c0:	7e 89       	ldd	r23, Y+22	; 0x16
    86c2:	8f 89       	ldd	r24, Y+23	; 0x17
    86c4:	98 8d       	ldd	r25, Y+24	; 0x18
    86c6:	c2 5a       	subi	r28, 0xA2	; 162
    86c8:	df 4f       	sbci	r29, 0xFF	; 255
    86ca:	e2 e1       	ldi	r30, 0x12	; 18
    86cc:	0c 94 00 4b 	jmp	0x9600	; 0x9600 <__epilogue_restores__>

000086d0 <vfprintf>:
    86d0:	2f 92       	push	r2
    86d2:	3f 92       	push	r3
    86d4:	4f 92       	push	r4
    86d6:	5f 92       	push	r5
    86d8:	6f 92       	push	r6
    86da:	7f 92       	push	r7
    86dc:	8f 92       	push	r8
    86de:	9f 92       	push	r9
    86e0:	af 92       	push	r10
    86e2:	bf 92       	push	r11
    86e4:	cf 92       	push	r12
    86e6:	df 92       	push	r13
    86e8:	ef 92       	push	r14
    86ea:	ff 92       	push	r15
    86ec:	0f 93       	push	r16
    86ee:	1f 93       	push	r17
    86f0:	df 93       	push	r29
    86f2:	cf 93       	push	r28
    86f4:	cd b7       	in	r28, 0x3d	; 61
    86f6:	de b7       	in	r29, 0x3e	; 62
    86f8:	61 97       	sbiw	r28, 0x11	; 17
    86fa:	0f b6       	in	r0, 0x3f	; 63
    86fc:	f8 94       	cli
    86fe:	de bf       	out	0x3e, r29	; 62
    8700:	0f be       	out	0x3f, r0	; 63
    8702:	cd bf       	out	0x3d, r28	; 61
    8704:	3c 01       	movw	r6, r24
    8706:	7f 87       	std	Y+15, r23	; 0x0f
    8708:	6e 87       	std	Y+14, r22	; 0x0e
    870a:	6a 01       	movw	r12, r20
    870c:	fc 01       	movw	r30, r24
    870e:	17 82       	std	Z+7, r1	; 0x07
    8710:	16 82       	std	Z+6, r1	; 0x06
    8712:	83 81       	ldd	r24, Z+3	; 0x03
    8714:	81 fd       	sbrc	r24, 1
    8716:	03 c0       	rjmp	.+6      	; 0x871e <vfprintf+0x4e>
    8718:	6f ef       	ldi	r22, 0xFF	; 255
    871a:	7f ef       	ldi	r23, 0xFF	; 255
    871c:	6f c3       	rjmp	.+1758   	; 0x8dfc <vfprintf+0x72c>
    871e:	9e 01       	movw	r18, r28
    8720:	2f 5f       	subi	r18, 0xFF	; 255
    8722:	3f 4f       	sbci	r19, 0xFF	; 255
    8724:	39 8b       	std	Y+17, r19	; 0x11
    8726:	28 8b       	std	Y+16, r18	; 0x10
    8728:	f3 01       	movw	r30, r6
    872a:	23 81       	ldd	r18, Z+3	; 0x03
    872c:	ee 85       	ldd	r30, Y+14	; 0x0e
    872e:	ff 85       	ldd	r31, Y+15	; 0x0f
    8730:	23 fd       	sbrc	r18, 3
    8732:	85 91       	lpm	r24, Z+
    8734:	23 ff       	sbrs	r18, 3
    8736:	81 91       	ld	r24, Z+
    8738:	ff 87       	std	Y+15, r31	; 0x0f
    873a:	ee 87       	std	Y+14, r30	; 0x0e
    873c:	88 23       	and	r24, r24
    873e:	09 f4       	brne	.+2      	; 0x8742 <vfprintf+0x72>
    8740:	5a c3       	rjmp	.+1716   	; 0x8df6 <vfprintf+0x726>
    8742:	85 32       	cpi	r24, 0x25	; 37
    8744:	51 f4       	brne	.+20     	; 0x875a <vfprintf+0x8a>
    8746:	ee 85       	ldd	r30, Y+14	; 0x0e
    8748:	ff 85       	ldd	r31, Y+15	; 0x0f
    874a:	23 fd       	sbrc	r18, 3
    874c:	85 91       	lpm	r24, Z+
    874e:	23 ff       	sbrs	r18, 3
    8750:	81 91       	ld	r24, Z+
    8752:	ff 87       	std	Y+15, r31	; 0x0f
    8754:	ee 87       	std	Y+14, r30	; 0x0e
    8756:	85 32       	cpi	r24, 0x25	; 37
    8758:	29 f4       	brne	.+10     	; 0x8764 <vfprintf+0x94>
    875a:	90 e0       	ldi	r25, 0x00	; 0
    875c:	b3 01       	movw	r22, r6
    875e:	0e 94 97 4c 	call	0x992e	; 0x992e <fputc>
    8762:	e2 cf       	rjmp	.-60     	; 0x8728 <vfprintf+0x58>
    8764:	98 2f       	mov	r25, r24
    8766:	10 e0       	ldi	r17, 0x00	; 0
    8768:	88 24       	eor	r8, r8
    876a:	99 24       	eor	r9, r9
    876c:	10 32       	cpi	r17, 0x20	; 32
    876e:	b0 f4       	brcc	.+44     	; 0x879c <vfprintf+0xcc>
    8770:	9b 32       	cpi	r25, 0x2B	; 43
    8772:	69 f0       	breq	.+26     	; 0x878e <vfprintf+0xbe>
    8774:	9c 32       	cpi	r25, 0x2C	; 44
    8776:	28 f4       	brcc	.+10     	; 0x8782 <vfprintf+0xb2>
    8778:	90 32       	cpi	r25, 0x20	; 32
    877a:	51 f0       	breq	.+20     	; 0x8790 <vfprintf+0xc0>
    877c:	93 32       	cpi	r25, 0x23	; 35
    877e:	71 f4       	brne	.+28     	; 0x879c <vfprintf+0xcc>
    8780:	0b c0       	rjmp	.+22     	; 0x8798 <vfprintf+0xc8>
    8782:	9d 32       	cpi	r25, 0x2D	; 45
    8784:	39 f0       	breq	.+14     	; 0x8794 <vfprintf+0xc4>
    8786:	90 33       	cpi	r25, 0x30	; 48
    8788:	49 f4       	brne	.+18     	; 0x879c <vfprintf+0xcc>
    878a:	11 60       	ori	r17, 0x01	; 1
    878c:	28 c0       	rjmp	.+80     	; 0x87de <vfprintf+0x10e>
    878e:	12 60       	ori	r17, 0x02	; 2
    8790:	14 60       	ori	r17, 0x04	; 4
    8792:	25 c0       	rjmp	.+74     	; 0x87de <vfprintf+0x10e>
    8794:	18 60       	ori	r17, 0x08	; 8
    8796:	23 c0       	rjmp	.+70     	; 0x87de <vfprintf+0x10e>
    8798:	10 61       	ori	r17, 0x10	; 16
    879a:	21 c0       	rjmp	.+66     	; 0x87de <vfprintf+0x10e>
    879c:	17 fd       	sbrc	r17, 7
    879e:	2a c0       	rjmp	.+84     	; 0x87f4 <vfprintf+0x124>
    87a0:	89 2f       	mov	r24, r25
    87a2:	80 53       	subi	r24, 0x30	; 48
    87a4:	8a 30       	cpi	r24, 0x0A	; 10
    87a6:	78 f4       	brcc	.+30     	; 0x87c6 <vfprintf+0xf6>
    87a8:	16 ff       	sbrs	r17, 6
    87aa:	06 c0       	rjmp	.+12     	; 0x87b8 <vfprintf+0xe8>
    87ac:	fa e0       	ldi	r31, 0x0A	; 10
    87ae:	9f 9e       	mul	r9, r31
    87b0:	90 2c       	mov	r9, r0
    87b2:	11 24       	eor	r1, r1
    87b4:	98 0e       	add	r9, r24
    87b6:	13 c0       	rjmp	.+38     	; 0x87de <vfprintf+0x10e>
    87b8:	3a e0       	ldi	r19, 0x0A	; 10
    87ba:	83 9e       	mul	r8, r19
    87bc:	80 2c       	mov	r8, r0
    87be:	11 24       	eor	r1, r1
    87c0:	88 0e       	add	r8, r24
    87c2:	10 62       	ori	r17, 0x20	; 32
    87c4:	0c c0       	rjmp	.+24     	; 0x87de <vfprintf+0x10e>
    87c6:	9e 32       	cpi	r25, 0x2E	; 46
    87c8:	21 f4       	brne	.+8      	; 0x87d2 <vfprintf+0x102>
    87ca:	16 fd       	sbrc	r17, 6
    87cc:	14 c3       	rjmp	.+1576   	; 0x8df6 <vfprintf+0x726>
    87ce:	10 64       	ori	r17, 0x40	; 64
    87d0:	06 c0       	rjmp	.+12     	; 0x87de <vfprintf+0x10e>
    87d2:	9c 36       	cpi	r25, 0x6C	; 108
    87d4:	11 f4       	brne	.+4      	; 0x87da <vfprintf+0x10a>
    87d6:	10 68       	ori	r17, 0x80	; 128
    87d8:	02 c0       	rjmp	.+4      	; 0x87de <vfprintf+0x10e>
    87da:	98 36       	cpi	r25, 0x68	; 104
    87dc:	59 f4       	brne	.+22     	; 0x87f4 <vfprintf+0x124>
    87de:	ee 85       	ldd	r30, Y+14	; 0x0e
    87e0:	ff 85       	ldd	r31, Y+15	; 0x0f
    87e2:	23 fd       	sbrc	r18, 3
    87e4:	95 91       	lpm	r25, Z+
    87e6:	23 ff       	sbrs	r18, 3
    87e8:	91 91       	ld	r25, Z+
    87ea:	ff 87       	std	Y+15, r31	; 0x0f
    87ec:	ee 87       	std	Y+14, r30	; 0x0e
    87ee:	99 23       	and	r25, r25
    87f0:	09 f0       	breq	.+2      	; 0x87f4 <vfprintf+0x124>
    87f2:	bc cf       	rjmp	.-136    	; 0x876c <vfprintf+0x9c>
    87f4:	89 2f       	mov	r24, r25
    87f6:	85 54       	subi	r24, 0x45	; 69
    87f8:	83 30       	cpi	r24, 0x03	; 3
    87fa:	20 f4       	brcc	.+8      	; 0x8804 <vfprintf+0x134>
    87fc:	81 2f       	mov	r24, r17
    87fe:	80 61       	ori	r24, 0x10	; 16
    8800:	90 5e       	subi	r25, 0xE0	; 224
    8802:	07 c0       	rjmp	.+14     	; 0x8812 <vfprintf+0x142>
    8804:	89 2f       	mov	r24, r25
    8806:	85 56       	subi	r24, 0x65	; 101
    8808:	83 30       	cpi	r24, 0x03	; 3
    880a:	08 f0       	brcs	.+2      	; 0x880e <vfprintf+0x13e>
    880c:	9f c1       	rjmp	.+830    	; 0x8b4c <vfprintf+0x47c>
    880e:	81 2f       	mov	r24, r17
    8810:	8f 7e       	andi	r24, 0xEF	; 239
    8812:	86 fd       	sbrc	r24, 6
    8814:	02 c0       	rjmp	.+4      	; 0x881a <vfprintf+0x14a>
    8816:	76 e0       	ldi	r23, 0x06	; 6
    8818:	97 2e       	mov	r9, r23
    881a:	6f e3       	ldi	r22, 0x3F	; 63
    881c:	f6 2e       	mov	r15, r22
    881e:	f8 22       	and	r15, r24
    8820:	95 36       	cpi	r25, 0x65	; 101
    8822:	19 f4       	brne	.+6      	; 0x882a <vfprintf+0x15a>
    8824:	f0 e4       	ldi	r31, 0x40	; 64
    8826:	ff 2a       	or	r15, r31
    8828:	07 c0       	rjmp	.+14     	; 0x8838 <vfprintf+0x168>
    882a:	96 36       	cpi	r25, 0x66	; 102
    882c:	19 f4       	brne	.+6      	; 0x8834 <vfprintf+0x164>
    882e:	20 e8       	ldi	r18, 0x80	; 128
    8830:	f2 2a       	or	r15, r18
    8832:	02 c0       	rjmp	.+4      	; 0x8838 <vfprintf+0x168>
    8834:	91 10       	cpse	r9, r1
    8836:	9a 94       	dec	r9
    8838:	f7 fe       	sbrs	r15, 7
    883a:	0a c0       	rjmp	.+20     	; 0x8850 <vfprintf+0x180>
    883c:	3b e3       	ldi	r19, 0x3B	; 59
    883e:	39 15       	cp	r19, r9
    8840:	18 f4       	brcc	.+6      	; 0x8848 <vfprintf+0x178>
    8842:	5c e3       	ldi	r21, 0x3C	; 60
    8844:	b5 2e       	mov	r11, r21
    8846:	02 c0       	rjmp	.+4      	; 0x884c <vfprintf+0x17c>
    8848:	b9 2c       	mov	r11, r9
    884a:	b3 94       	inc	r11
    884c:	27 e0       	ldi	r18, 0x07	; 7
    884e:	09 c0       	rjmp	.+18     	; 0x8862 <vfprintf+0x192>
    8850:	47 e0       	ldi	r20, 0x07	; 7
    8852:	49 15       	cp	r20, r9
    8854:	20 f4       	brcc	.+8      	; 0x885e <vfprintf+0x18e>
    8856:	bb 24       	eor	r11, r11
    8858:	47 e0       	ldi	r20, 0x07	; 7
    885a:	94 2e       	mov	r9, r20
    885c:	f7 cf       	rjmp	.-18     	; 0x884c <vfprintf+0x17c>
    885e:	29 2d       	mov	r18, r9
    8860:	bb 24       	eor	r11, r11
    8862:	c6 01       	movw	r24, r12
    8864:	04 96       	adiw	r24, 0x04	; 4
    8866:	9d 87       	std	Y+13, r25	; 0x0d
    8868:	8c 87       	std	Y+12, r24	; 0x0c
    886a:	f6 01       	movw	r30, r12
    886c:	60 81       	ld	r22, Z
    886e:	71 81       	ldd	r23, Z+1	; 0x01
    8870:	82 81       	ldd	r24, Z+2	; 0x02
    8872:	93 81       	ldd	r25, Z+3	; 0x03
    8874:	ae 01       	movw	r20, r28
    8876:	4f 5f       	subi	r20, 0xFF	; 255
    8878:	5f 4f       	sbci	r21, 0xFF	; 255
    887a:	0b 2d       	mov	r16, r11
    887c:	0e 94 1b 4b 	call	0x9636	; 0x9636 <__ftoa_engine>
    8880:	6c 01       	movw	r12, r24
    8882:	09 81       	ldd	r16, Y+1	; 0x01
    8884:	20 2e       	mov	r2, r16
    8886:	33 24       	eor	r3, r3
    8888:	00 ff       	sbrs	r16, 0
    888a:	04 c0       	rjmp	.+8      	; 0x8894 <vfprintf+0x1c4>
    888c:	03 fd       	sbrc	r16, 3
    888e:	02 c0       	rjmp	.+4      	; 0x8894 <vfprintf+0x1c4>
    8890:	1d e2       	ldi	r17, 0x2D	; 45
    8892:	09 c0       	rjmp	.+18     	; 0x88a6 <vfprintf+0x1d6>
    8894:	f1 fe       	sbrs	r15, 1
    8896:	02 c0       	rjmp	.+4      	; 0x889c <vfprintf+0x1cc>
    8898:	1b e2       	ldi	r17, 0x2B	; 43
    889a:	05 c0       	rjmp	.+10     	; 0x88a6 <vfprintf+0x1d6>
    889c:	f2 fc       	sbrc	r15, 2
    889e:	02 c0       	rjmp	.+4      	; 0x88a4 <vfprintf+0x1d4>
    88a0:	10 e0       	ldi	r17, 0x00	; 0
    88a2:	01 c0       	rjmp	.+2      	; 0x88a6 <vfprintf+0x1d6>
    88a4:	10 e2       	ldi	r17, 0x20	; 32
    88a6:	c1 01       	movw	r24, r2
    88a8:	8c 70       	andi	r24, 0x0C	; 12
    88aa:	90 70       	andi	r25, 0x00	; 0
    88ac:	89 2b       	or	r24, r25
    88ae:	b9 f1       	breq	.+110    	; 0x891e <vfprintf+0x24e>
    88b0:	11 23       	and	r17, r17
    88b2:	11 f4       	brne	.+4      	; 0x88b8 <vfprintf+0x1e8>
    88b4:	83 e0       	ldi	r24, 0x03	; 3
    88b6:	01 c0       	rjmp	.+2      	; 0x88ba <vfprintf+0x1ea>
    88b8:	84 e0       	ldi	r24, 0x04	; 4
    88ba:	88 15       	cp	r24, r8
    88bc:	10 f0       	brcs	.+4      	; 0x88c2 <vfprintf+0x1f2>
    88be:	88 24       	eor	r8, r8
    88c0:	0a c0       	rjmp	.+20     	; 0x88d6 <vfprintf+0x206>
    88c2:	88 1a       	sub	r8, r24
    88c4:	f3 fc       	sbrc	r15, 3
    88c6:	07 c0       	rjmp	.+14     	; 0x88d6 <vfprintf+0x206>
    88c8:	80 e2       	ldi	r24, 0x20	; 32
    88ca:	90 e0       	ldi	r25, 0x00	; 0
    88cc:	b3 01       	movw	r22, r6
    88ce:	0e 94 97 4c 	call	0x992e	; 0x992e <fputc>
    88d2:	8a 94       	dec	r8
    88d4:	c9 f7       	brne	.-14     	; 0x88c8 <vfprintf+0x1f8>
    88d6:	11 23       	and	r17, r17
    88d8:	29 f0       	breq	.+10     	; 0x88e4 <vfprintf+0x214>
    88da:	81 2f       	mov	r24, r17
    88dc:	90 e0       	ldi	r25, 0x00	; 0
    88de:	b3 01       	movw	r22, r6
    88e0:	0e 94 97 4c 	call	0x992e	; 0x992e <fputc>
    88e4:	23 fe       	sbrs	r2, 3
    88e6:	03 c0       	rjmp	.+6      	; 0x88ee <vfprintf+0x21e>
    88e8:	0d e6       	ldi	r16, 0x6D	; 109
    88ea:	19 e0       	ldi	r17, 0x09	; 9
    88ec:	0e c0       	rjmp	.+28     	; 0x890a <vfprintf+0x23a>
    88ee:	01 e7       	ldi	r16, 0x71	; 113
    88f0:	19 e0       	ldi	r17, 0x09	; 9
    88f2:	0b c0       	rjmp	.+22     	; 0x890a <vfprintf+0x23a>
    88f4:	e1 14       	cp	r14, r1
    88f6:	f1 04       	cpc	r15, r1
    88f8:	09 f0       	breq	.+2      	; 0x88fc <vfprintf+0x22c>
    88fa:	80 52       	subi	r24, 0x20	; 32
    88fc:	90 e0       	ldi	r25, 0x00	; 0
    88fe:	b3 01       	movw	r22, r6
    8900:	0e 94 97 4c 	call	0x992e	; 0x992e <fputc>
    8904:	0f 5f       	subi	r16, 0xFF	; 255
    8906:	1f 4f       	sbci	r17, 0xFF	; 255
    8908:	05 c0       	rjmp	.+10     	; 0x8914 <vfprintf+0x244>
    890a:	ef 2c       	mov	r14, r15
    890c:	ff 24       	eor	r15, r15
    890e:	f0 e1       	ldi	r31, 0x10	; 16
    8910:	ef 22       	and	r14, r31
    8912:	ff 24       	eor	r15, r15
    8914:	f8 01       	movw	r30, r16
    8916:	84 91       	lpm	r24, Z+
    8918:	88 23       	and	r24, r24
    891a:	61 f7       	brne	.-40     	; 0x88f4 <vfprintf+0x224>
    891c:	14 c1       	rjmp	.+552    	; 0x8b46 <vfprintf+0x476>
    891e:	f7 fe       	sbrs	r15, 7
    8920:	12 c0       	rjmp	.+36     	; 0x8946 <vfprintf+0x276>
    8922:	bc 0c       	add	r11, r12
    8924:	24 fe       	sbrs	r2, 4
    8926:	04 c0       	rjmp	.+8      	; 0x8930 <vfprintf+0x260>
    8928:	8a 81       	ldd	r24, Y+2	; 0x02
    892a:	81 33       	cpi	r24, 0x31	; 49
    892c:	09 f4       	brne	.+2      	; 0x8930 <vfprintf+0x260>
    892e:	ba 94       	dec	r11
    8930:	1b 14       	cp	r1, r11
    8932:	1c f0       	brlt	.+6      	; 0x893a <vfprintf+0x26a>
    8934:	bb 24       	eor	r11, r11
    8936:	b3 94       	inc	r11
    8938:	2d c0       	rjmp	.+90     	; 0x8994 <vfprintf+0x2c4>
    893a:	f8 e0       	ldi	r31, 0x08	; 8
    893c:	fb 15       	cp	r31, r11
    893e:	50 f5       	brcc	.+84     	; 0x8994 <vfprintf+0x2c4>
    8940:	38 e0       	ldi	r19, 0x08	; 8
    8942:	b3 2e       	mov	r11, r19
    8944:	27 c0       	rjmp	.+78     	; 0x8994 <vfprintf+0x2c4>
    8946:	f6 fc       	sbrc	r15, 6
    8948:	25 c0       	rjmp	.+74     	; 0x8994 <vfprintf+0x2c4>
    894a:	89 2d       	mov	r24, r9
    894c:	90 e0       	ldi	r25, 0x00	; 0
    894e:	8c 15       	cp	r24, r12
    8950:	9d 05       	cpc	r25, r13
    8952:	4c f0       	brlt	.+18     	; 0x8966 <vfprintf+0x296>
    8954:	2c ef       	ldi	r18, 0xFC	; 252
    8956:	c2 16       	cp	r12, r18
    8958:	2f ef       	ldi	r18, 0xFF	; 255
    895a:	d2 06       	cpc	r13, r18
    895c:	24 f0       	brlt	.+8      	; 0x8966 <vfprintf+0x296>
    895e:	30 e8       	ldi	r19, 0x80	; 128
    8960:	f3 2a       	or	r15, r19
    8962:	01 c0       	rjmp	.+2      	; 0x8966 <vfprintf+0x296>
    8964:	9a 94       	dec	r9
    8966:	99 20       	and	r9, r9
    8968:	49 f0       	breq	.+18     	; 0x897c <vfprintf+0x2ac>
    896a:	e2 e0       	ldi	r30, 0x02	; 2
    896c:	f0 e0       	ldi	r31, 0x00	; 0
    896e:	ec 0f       	add	r30, r28
    8970:	fd 1f       	adc	r31, r29
    8972:	e9 0d       	add	r30, r9
    8974:	f1 1d       	adc	r31, r1
    8976:	80 81       	ld	r24, Z
    8978:	80 33       	cpi	r24, 0x30	; 48
    897a:	a1 f3       	breq	.-24     	; 0x8964 <vfprintf+0x294>
    897c:	f7 fe       	sbrs	r15, 7
    897e:	0a c0       	rjmp	.+20     	; 0x8994 <vfprintf+0x2c4>
    8980:	b9 2c       	mov	r11, r9
    8982:	b3 94       	inc	r11
    8984:	89 2d       	mov	r24, r9
    8986:	90 e0       	ldi	r25, 0x00	; 0
    8988:	c8 16       	cp	r12, r24
    898a:	d9 06       	cpc	r13, r25
    898c:	14 f0       	brlt	.+4      	; 0x8992 <vfprintf+0x2c2>
    898e:	99 24       	eor	r9, r9
    8990:	01 c0       	rjmp	.+2      	; 0x8994 <vfprintf+0x2c4>
    8992:	9c 18       	sub	r9, r12
    8994:	f7 fc       	sbrc	r15, 7
    8996:	03 c0       	rjmp	.+6      	; 0x899e <vfprintf+0x2ce>
    8998:	25 e0       	ldi	r18, 0x05	; 5
    899a:	30 e0       	ldi	r19, 0x00	; 0
    899c:	09 c0       	rjmp	.+18     	; 0x89b0 <vfprintf+0x2e0>
    899e:	1c 14       	cp	r1, r12
    89a0:	1d 04       	cpc	r1, r13
    89a2:	1c f0       	brlt	.+6      	; 0x89aa <vfprintf+0x2da>
    89a4:	21 e0       	ldi	r18, 0x01	; 1
    89a6:	30 e0       	ldi	r19, 0x00	; 0
    89a8:	03 c0       	rjmp	.+6      	; 0x89b0 <vfprintf+0x2e0>
    89aa:	96 01       	movw	r18, r12
    89ac:	2f 5f       	subi	r18, 0xFF	; 255
    89ae:	3f 4f       	sbci	r19, 0xFF	; 255
    89b0:	11 23       	and	r17, r17
    89b2:	11 f0       	breq	.+4      	; 0x89b8 <vfprintf+0x2e8>
    89b4:	2f 5f       	subi	r18, 0xFF	; 255
    89b6:	3f 4f       	sbci	r19, 0xFF	; 255
    89b8:	99 20       	and	r9, r9
    89ba:	29 f0       	breq	.+10     	; 0x89c6 <vfprintf+0x2f6>
    89bc:	89 2d       	mov	r24, r9
    89be:	90 e0       	ldi	r25, 0x00	; 0
    89c0:	01 96       	adiw	r24, 0x01	; 1
    89c2:	28 0f       	add	r18, r24
    89c4:	39 1f       	adc	r19, r25
    89c6:	88 2d       	mov	r24, r8
    89c8:	90 e0       	ldi	r25, 0x00	; 0
    89ca:	28 17       	cp	r18, r24
    89cc:	39 07       	cpc	r19, r25
    89ce:	14 f0       	brlt	.+4      	; 0x89d4 <vfprintf+0x304>
    89d0:	88 24       	eor	r8, r8
    89d2:	01 c0       	rjmp	.+2      	; 0x89d6 <vfprintf+0x306>
    89d4:	82 1a       	sub	r8, r18
    89d6:	4f 2c       	mov	r4, r15
    89d8:	55 24       	eor	r5, r5
    89da:	c2 01       	movw	r24, r4
    89dc:	89 70       	andi	r24, 0x09	; 9
    89de:	90 70       	andi	r25, 0x00	; 0
    89e0:	89 2b       	or	r24, r25
    89e2:	39 f0       	breq	.+14     	; 0x89f2 <vfprintf+0x322>
    89e4:	08 c0       	rjmp	.+16     	; 0x89f6 <vfprintf+0x326>
    89e6:	80 e2       	ldi	r24, 0x20	; 32
    89e8:	90 e0       	ldi	r25, 0x00	; 0
    89ea:	b3 01       	movw	r22, r6
    89ec:	0e 94 97 4c 	call	0x992e	; 0x992e <fputc>
    89f0:	8a 94       	dec	r8
    89f2:	88 20       	and	r8, r8
    89f4:	c1 f7       	brne	.-16     	; 0x89e6 <vfprintf+0x316>
    89f6:	11 23       	and	r17, r17
    89f8:	29 f0       	breq	.+10     	; 0x8a04 <vfprintf+0x334>
    89fa:	81 2f       	mov	r24, r17
    89fc:	90 e0       	ldi	r25, 0x00	; 0
    89fe:	b3 01       	movw	r22, r6
    8a00:	0e 94 97 4c 	call	0x992e	; 0x992e <fputc>
    8a04:	43 fe       	sbrs	r4, 3
    8a06:	07 c0       	rjmp	.+14     	; 0x8a16 <vfprintf+0x346>
    8a08:	08 c0       	rjmp	.+16     	; 0x8a1a <vfprintf+0x34a>
    8a0a:	80 e3       	ldi	r24, 0x30	; 48
    8a0c:	90 e0       	ldi	r25, 0x00	; 0
    8a0e:	b3 01       	movw	r22, r6
    8a10:	0e 94 97 4c 	call	0x992e	; 0x992e <fputc>
    8a14:	8a 94       	dec	r8
    8a16:	88 20       	and	r8, r8
    8a18:	c1 f7       	brne	.-16     	; 0x8a0a <vfprintf+0x33a>
    8a1a:	f7 fe       	sbrs	r15, 7
    8a1c:	46 c0       	rjmp	.+140    	; 0x8aaa <vfprintf+0x3da>
    8a1e:	86 01       	movw	r16, r12
    8a20:	d7 fe       	sbrs	r13, 7
    8a22:	02 c0       	rjmp	.+4      	; 0x8a28 <vfprintf+0x358>
    8a24:	00 e0       	ldi	r16, 0x00	; 0
    8a26:	10 e0       	ldi	r17, 0x00	; 0
    8a28:	76 01       	movw	r14, r12
    8a2a:	08 94       	sec
    8a2c:	e1 1c       	adc	r14, r1
    8a2e:	f1 1c       	adc	r15, r1
    8a30:	e0 1a       	sub	r14, r16
    8a32:	f1 0a       	sbc	r15, r17
    8a34:	41 e0       	ldi	r20, 0x01	; 1
    8a36:	50 e0       	ldi	r21, 0x00	; 0
    8a38:	4c 0f       	add	r20, r28
    8a3a:	5d 1f       	adc	r21, r29
    8a3c:	e4 0e       	add	r14, r20
    8a3e:	f5 1e       	adc	r15, r21
    8a40:	26 01       	movw	r4, r12
    8a42:	4b 18       	sub	r4, r11
    8a44:	51 08       	sbc	r5, r1
    8a46:	89 2d       	mov	r24, r9
    8a48:	90 e0       	ldi	r25, 0x00	; 0
    8a4a:	aa 24       	eor	r10, r10
    8a4c:	bb 24       	eor	r11, r11
    8a4e:	a8 1a       	sub	r10, r24
    8a50:	b9 0a       	sbc	r11, r25
    8a52:	5f ef       	ldi	r21, 0xFF	; 255
    8a54:	0f 3f       	cpi	r16, 0xFF	; 255
    8a56:	15 07       	cpc	r17, r21
    8a58:	29 f4       	brne	.+10     	; 0x8a64 <vfprintf+0x394>
    8a5a:	8e e2       	ldi	r24, 0x2E	; 46
    8a5c:	90 e0       	ldi	r25, 0x00	; 0
    8a5e:	b3 01       	movw	r22, r6
    8a60:	0e 94 97 4c 	call	0x992e	; 0x992e <fputc>
    8a64:	c0 16       	cp	r12, r16
    8a66:	d1 06       	cpc	r13, r17
    8a68:	34 f0       	brlt	.+12     	; 0x8a76 <vfprintf+0x3a6>
    8a6a:	40 16       	cp	r4, r16
    8a6c:	51 06       	cpc	r5, r17
    8a6e:	1c f4       	brge	.+6      	; 0x8a76 <vfprintf+0x3a6>
    8a70:	f7 01       	movw	r30, r14
    8a72:	80 81       	ld	r24, Z
    8a74:	01 c0       	rjmp	.+2      	; 0x8a78 <vfprintf+0x3a8>
    8a76:	80 e3       	ldi	r24, 0x30	; 48
    8a78:	01 50       	subi	r16, 0x01	; 1
    8a7a:	10 40       	sbci	r17, 0x00	; 0
    8a7c:	08 94       	sec
    8a7e:	e1 1c       	adc	r14, r1
    8a80:	f1 1c       	adc	r15, r1
    8a82:	0a 15       	cp	r16, r10
    8a84:	1b 05       	cpc	r17, r11
    8a86:	2c f0       	brlt	.+10     	; 0x8a92 <vfprintf+0x3c2>
    8a88:	90 e0       	ldi	r25, 0x00	; 0
    8a8a:	b3 01       	movw	r22, r6
    8a8c:	0e 94 97 4c 	call	0x992e	; 0x992e <fputc>
    8a90:	e0 cf       	rjmp	.-64     	; 0x8a52 <vfprintf+0x382>
    8a92:	0c 15       	cp	r16, r12
    8a94:	1d 05       	cpc	r17, r13
    8a96:	39 f4       	brne	.+14     	; 0x8aa6 <vfprintf+0x3d6>
    8a98:	9a 81       	ldd	r25, Y+2	; 0x02
    8a9a:	96 33       	cpi	r25, 0x36	; 54
    8a9c:	18 f4       	brcc	.+6      	; 0x8aa4 <vfprintf+0x3d4>
    8a9e:	95 33       	cpi	r25, 0x35	; 53
    8aa0:	11 f4       	brne	.+4      	; 0x8aa6 <vfprintf+0x3d6>
    8aa2:	24 fe       	sbrs	r2, 4
    8aa4:	81 e3       	ldi	r24, 0x31	; 49
    8aa6:	90 e0       	ldi	r25, 0x00	; 0
    8aa8:	4b c0       	rjmp	.+150    	; 0x8b40 <vfprintf+0x470>
    8aaa:	8a 81       	ldd	r24, Y+2	; 0x02
    8aac:	81 33       	cpi	r24, 0x31	; 49
    8aae:	09 f0       	breq	.+2      	; 0x8ab2 <vfprintf+0x3e2>
    8ab0:	0f 7e       	andi	r16, 0xEF	; 239
    8ab2:	90 e0       	ldi	r25, 0x00	; 0
    8ab4:	b3 01       	movw	r22, r6
    8ab6:	0e 94 97 4c 	call	0x992e	; 0x992e <fputc>
    8aba:	99 20       	and	r9, r9
    8abc:	a1 f0       	breq	.+40     	; 0x8ae6 <vfprintf+0x416>
    8abe:	8e e2       	ldi	r24, 0x2E	; 46
    8ac0:	90 e0       	ldi	r25, 0x00	; 0
    8ac2:	b3 01       	movw	r22, r6
    8ac4:	0e 94 97 4c 	call	0x992e	; 0x992e <fputc>
    8ac8:	12 e0       	ldi	r17, 0x02	; 2
    8aca:	e1 e0       	ldi	r30, 0x01	; 1
    8acc:	f0 e0       	ldi	r31, 0x00	; 0
    8ace:	ec 0f       	add	r30, r28
    8ad0:	fd 1f       	adc	r31, r29
    8ad2:	e1 0f       	add	r30, r17
    8ad4:	f1 1d       	adc	r31, r1
    8ad6:	1f 5f       	subi	r17, 0xFF	; 255
    8ad8:	80 81       	ld	r24, Z
    8ada:	90 e0       	ldi	r25, 0x00	; 0
    8adc:	b3 01       	movw	r22, r6
    8ade:	0e 94 97 4c 	call	0x992e	; 0x992e <fputc>
    8ae2:	9a 94       	dec	r9
    8ae4:	91 f7       	brne	.-28     	; 0x8aca <vfprintf+0x3fa>
    8ae6:	44 fc       	sbrc	r4, 4
    8ae8:	03 c0       	rjmp	.+6      	; 0x8af0 <vfprintf+0x420>
    8aea:	85 e6       	ldi	r24, 0x65	; 101
    8aec:	90 e0       	ldi	r25, 0x00	; 0
    8aee:	02 c0       	rjmp	.+4      	; 0x8af4 <vfprintf+0x424>
    8af0:	85 e4       	ldi	r24, 0x45	; 69
    8af2:	90 e0       	ldi	r25, 0x00	; 0
    8af4:	b3 01       	movw	r22, r6
    8af6:	0e 94 97 4c 	call	0x992e	; 0x992e <fputc>
    8afa:	d7 fc       	sbrc	r13, 7
    8afc:	05 c0       	rjmp	.+10     	; 0x8b08 <vfprintf+0x438>
    8afe:	c1 14       	cp	r12, r1
    8b00:	d1 04       	cpc	r13, r1
    8b02:	41 f4       	brne	.+16     	; 0x8b14 <vfprintf+0x444>
    8b04:	04 ff       	sbrs	r16, 4
    8b06:	06 c0       	rjmp	.+12     	; 0x8b14 <vfprintf+0x444>
    8b08:	d0 94       	com	r13
    8b0a:	c1 94       	neg	r12
    8b0c:	d1 08       	sbc	r13, r1
    8b0e:	d3 94       	inc	r13
    8b10:	8d e2       	ldi	r24, 0x2D	; 45
    8b12:	01 c0       	rjmp	.+2      	; 0x8b16 <vfprintf+0x446>
    8b14:	8b e2       	ldi	r24, 0x2B	; 43
    8b16:	90 e0       	ldi	r25, 0x00	; 0
    8b18:	b3 01       	movw	r22, r6
    8b1a:	0e 94 97 4c 	call	0x992e	; 0x992e <fputc>
    8b1e:	80 e3       	ldi	r24, 0x30	; 48
    8b20:	05 c0       	rjmp	.+10     	; 0x8b2c <vfprintf+0x45c>
    8b22:	8f 5f       	subi	r24, 0xFF	; 255
    8b24:	26 ef       	ldi	r18, 0xF6	; 246
    8b26:	3f ef       	ldi	r19, 0xFF	; 255
    8b28:	c2 0e       	add	r12, r18
    8b2a:	d3 1e       	adc	r13, r19
    8b2c:	3a e0       	ldi	r19, 0x0A	; 10
    8b2e:	c3 16       	cp	r12, r19
    8b30:	d1 04       	cpc	r13, r1
    8b32:	bc f7       	brge	.-18     	; 0x8b22 <vfprintf+0x452>
    8b34:	90 e0       	ldi	r25, 0x00	; 0
    8b36:	b3 01       	movw	r22, r6
    8b38:	0e 94 97 4c 	call	0x992e	; 0x992e <fputc>
    8b3c:	c6 01       	movw	r24, r12
    8b3e:	c0 96       	adiw	r24, 0x30	; 48
    8b40:	b3 01       	movw	r22, r6
    8b42:	0e 94 97 4c 	call	0x992e	; 0x992e <fputc>
    8b46:	cc 84       	ldd	r12, Y+12	; 0x0c
    8b48:	dd 84       	ldd	r13, Y+13	; 0x0d
    8b4a:	52 c1       	rjmp	.+676    	; 0x8df0 <vfprintf+0x720>
    8b4c:	93 36       	cpi	r25, 0x63	; 99
    8b4e:	31 f0       	breq	.+12     	; 0x8b5c <vfprintf+0x48c>
    8b50:	93 37       	cpi	r25, 0x73	; 115
    8b52:	99 f0       	breq	.+38     	; 0x8b7a <vfprintf+0x4aa>
    8b54:	93 35       	cpi	r25, 0x53	; 83
    8b56:	09 f0       	breq	.+2      	; 0x8b5a <vfprintf+0x48a>
    8b58:	59 c0       	rjmp	.+178    	; 0x8c0c <vfprintf+0x53c>
    8b5a:	23 c0       	rjmp	.+70     	; 0x8ba2 <vfprintf+0x4d2>
    8b5c:	f6 01       	movw	r30, r12
    8b5e:	80 81       	ld	r24, Z
    8b60:	89 83       	std	Y+1, r24	; 0x01
    8b62:	5e 01       	movw	r10, r28
    8b64:	08 94       	sec
    8b66:	a1 1c       	adc	r10, r1
    8b68:	b1 1c       	adc	r11, r1
    8b6a:	22 e0       	ldi	r18, 0x02	; 2
    8b6c:	30 e0       	ldi	r19, 0x00	; 0
    8b6e:	c2 0e       	add	r12, r18
    8b70:	d3 1e       	adc	r13, r19
    8b72:	21 e0       	ldi	r18, 0x01	; 1
    8b74:	e2 2e       	mov	r14, r18
    8b76:	f1 2c       	mov	r15, r1
    8b78:	12 c0       	rjmp	.+36     	; 0x8b9e <vfprintf+0x4ce>
    8b7a:	f6 01       	movw	r30, r12
    8b7c:	a0 80       	ld	r10, Z
    8b7e:	b1 80       	ldd	r11, Z+1	; 0x01
    8b80:	16 fd       	sbrc	r17, 6
    8b82:	03 c0       	rjmp	.+6      	; 0x8b8a <vfprintf+0x4ba>
    8b84:	6f ef       	ldi	r22, 0xFF	; 255
    8b86:	7f ef       	ldi	r23, 0xFF	; 255
    8b88:	02 c0       	rjmp	.+4      	; 0x8b8e <vfprintf+0x4be>
    8b8a:	69 2d       	mov	r22, r9
    8b8c:	70 e0       	ldi	r23, 0x00	; 0
    8b8e:	22 e0       	ldi	r18, 0x02	; 2
    8b90:	30 e0       	ldi	r19, 0x00	; 0
    8b92:	c2 0e       	add	r12, r18
    8b94:	d3 1e       	adc	r13, r19
    8b96:	c5 01       	movw	r24, r10
    8b98:	0e 94 fe 4b 	call	0x97fc	; 0x97fc <strnlen>
    8b9c:	7c 01       	movw	r14, r24
    8b9e:	1f 77       	andi	r17, 0x7F	; 127
    8ba0:	13 c0       	rjmp	.+38     	; 0x8bc8 <vfprintf+0x4f8>
    8ba2:	f6 01       	movw	r30, r12
    8ba4:	a0 80       	ld	r10, Z
    8ba6:	b1 80       	ldd	r11, Z+1	; 0x01
    8ba8:	16 fd       	sbrc	r17, 6
    8baa:	03 c0       	rjmp	.+6      	; 0x8bb2 <vfprintf+0x4e2>
    8bac:	6f ef       	ldi	r22, 0xFF	; 255
    8bae:	7f ef       	ldi	r23, 0xFF	; 255
    8bb0:	02 c0       	rjmp	.+4      	; 0x8bb6 <vfprintf+0x4e6>
    8bb2:	69 2d       	mov	r22, r9
    8bb4:	70 e0       	ldi	r23, 0x00	; 0
    8bb6:	22 e0       	ldi	r18, 0x02	; 2
    8bb8:	30 e0       	ldi	r19, 0x00	; 0
    8bba:	c2 0e       	add	r12, r18
    8bbc:	d3 1e       	adc	r13, r19
    8bbe:	c5 01       	movw	r24, r10
    8bc0:	0e 94 f3 4b 	call	0x97e6	; 0x97e6 <strnlen_P>
    8bc4:	7c 01       	movw	r14, r24
    8bc6:	10 68       	ori	r17, 0x80	; 128
    8bc8:	13 ff       	sbrs	r17, 3
    8bca:	07 c0       	rjmp	.+14     	; 0x8bda <vfprintf+0x50a>
    8bcc:	1b c0       	rjmp	.+54     	; 0x8c04 <vfprintf+0x534>
    8bce:	80 e2       	ldi	r24, 0x20	; 32
    8bd0:	90 e0       	ldi	r25, 0x00	; 0
    8bd2:	b3 01       	movw	r22, r6
    8bd4:	0e 94 97 4c 	call	0x992e	; 0x992e <fputc>
    8bd8:	8a 94       	dec	r8
    8bda:	88 2d       	mov	r24, r8
    8bdc:	90 e0       	ldi	r25, 0x00	; 0
    8bde:	e8 16       	cp	r14, r24
    8be0:	f9 06       	cpc	r15, r25
    8be2:	a8 f3       	brcs	.-22     	; 0x8bce <vfprintf+0x4fe>
    8be4:	0f c0       	rjmp	.+30     	; 0x8c04 <vfprintf+0x534>
    8be6:	f5 01       	movw	r30, r10
    8be8:	17 fd       	sbrc	r17, 7
    8bea:	85 91       	lpm	r24, Z+
    8bec:	17 ff       	sbrs	r17, 7
    8bee:	81 91       	ld	r24, Z+
    8bf0:	5f 01       	movw	r10, r30
    8bf2:	90 e0       	ldi	r25, 0x00	; 0
    8bf4:	b3 01       	movw	r22, r6
    8bf6:	0e 94 97 4c 	call	0x992e	; 0x992e <fputc>
    8bfa:	81 10       	cpse	r8, r1
    8bfc:	8a 94       	dec	r8
    8bfe:	08 94       	sec
    8c00:	e1 08       	sbc	r14, r1
    8c02:	f1 08       	sbc	r15, r1
    8c04:	e1 14       	cp	r14, r1
    8c06:	f1 04       	cpc	r15, r1
    8c08:	71 f7       	brne	.-36     	; 0x8be6 <vfprintf+0x516>
    8c0a:	f2 c0       	rjmp	.+484    	; 0x8df0 <vfprintf+0x720>
    8c0c:	94 36       	cpi	r25, 0x64	; 100
    8c0e:	11 f0       	breq	.+4      	; 0x8c14 <vfprintf+0x544>
    8c10:	99 36       	cpi	r25, 0x69	; 105
    8c12:	89 f5       	brne	.+98     	; 0x8c76 <vfprintf+0x5a6>
    8c14:	17 ff       	sbrs	r17, 7
    8c16:	08 c0       	rjmp	.+16     	; 0x8c28 <vfprintf+0x558>
    8c18:	f6 01       	movw	r30, r12
    8c1a:	20 81       	ld	r18, Z
    8c1c:	31 81       	ldd	r19, Z+1	; 0x01
    8c1e:	42 81       	ldd	r20, Z+2	; 0x02
    8c20:	53 81       	ldd	r21, Z+3	; 0x03
    8c22:	84 e0       	ldi	r24, 0x04	; 4
    8c24:	90 e0       	ldi	r25, 0x00	; 0
    8c26:	0a c0       	rjmp	.+20     	; 0x8c3c <vfprintf+0x56c>
    8c28:	f6 01       	movw	r30, r12
    8c2a:	80 81       	ld	r24, Z
    8c2c:	91 81       	ldd	r25, Z+1	; 0x01
    8c2e:	9c 01       	movw	r18, r24
    8c30:	44 27       	eor	r20, r20
    8c32:	37 fd       	sbrc	r19, 7
    8c34:	40 95       	com	r20
    8c36:	54 2f       	mov	r21, r20
    8c38:	82 e0       	ldi	r24, 0x02	; 2
    8c3a:	90 e0       	ldi	r25, 0x00	; 0
    8c3c:	c8 0e       	add	r12, r24
    8c3e:	d9 1e       	adc	r13, r25
    8c40:	9f e6       	ldi	r25, 0x6F	; 111
    8c42:	f9 2e       	mov	r15, r25
    8c44:	f1 22       	and	r15, r17
    8c46:	57 ff       	sbrs	r21, 7
    8c48:	09 c0       	rjmp	.+18     	; 0x8c5c <vfprintf+0x58c>
    8c4a:	50 95       	com	r21
    8c4c:	40 95       	com	r20
    8c4e:	30 95       	com	r19
    8c50:	21 95       	neg	r18
    8c52:	3f 4f       	sbci	r19, 0xFF	; 255
    8c54:	4f 4f       	sbci	r20, 0xFF	; 255
    8c56:	5f 4f       	sbci	r21, 0xFF	; 255
    8c58:	90 e8       	ldi	r25, 0x80	; 128
    8c5a:	f9 2a       	or	r15, r25
    8c5c:	ca 01       	movw	r24, r20
    8c5e:	b9 01       	movw	r22, r18
    8c60:	ae 01       	movw	r20, r28
    8c62:	4f 5f       	subi	r20, 0xFF	; 255
    8c64:	5f 4f       	sbci	r21, 0xFF	; 255
    8c66:	2a e0       	ldi	r18, 0x0A	; 10
    8c68:	30 e0       	ldi	r19, 0x00	; 0
    8c6a:	0e 94 06 4d 	call	0x9a0c	; 0x9a0c <__ultoa_invert>
    8c6e:	e8 2e       	mov	r14, r24
    8c70:	e8 89       	ldd	r30, Y+16	; 0x10
    8c72:	ee 1a       	sub	r14, r30
    8c74:	41 c0       	rjmp	.+130    	; 0x8cf8 <vfprintf+0x628>
    8c76:	95 37       	cpi	r25, 0x75	; 117
    8c78:	21 f4       	brne	.+8      	; 0x8c82 <vfprintf+0x5b2>
    8c7a:	1f 7e       	andi	r17, 0xEF	; 239
    8c7c:	2a e0       	ldi	r18, 0x0A	; 10
    8c7e:	30 e0       	ldi	r19, 0x00	; 0
    8c80:	1c c0       	rjmp	.+56     	; 0x8cba <vfprintf+0x5ea>
    8c82:	19 7f       	andi	r17, 0xF9	; 249
    8c84:	9f 36       	cpi	r25, 0x6F	; 111
    8c86:	61 f0       	breq	.+24     	; 0x8ca0 <vfprintf+0x5d0>
    8c88:	90 37       	cpi	r25, 0x70	; 112
    8c8a:	20 f4       	brcc	.+8      	; 0x8c94 <vfprintf+0x5c4>
    8c8c:	98 35       	cpi	r25, 0x58	; 88
    8c8e:	09 f0       	breq	.+2      	; 0x8c92 <vfprintf+0x5c2>
    8c90:	b2 c0       	rjmp	.+356    	; 0x8df6 <vfprintf+0x726>
    8c92:	0f c0       	rjmp	.+30     	; 0x8cb2 <vfprintf+0x5e2>
    8c94:	90 37       	cpi	r25, 0x70	; 112
    8c96:	39 f0       	breq	.+14     	; 0x8ca6 <vfprintf+0x5d6>
    8c98:	98 37       	cpi	r25, 0x78	; 120
    8c9a:	09 f0       	breq	.+2      	; 0x8c9e <vfprintf+0x5ce>
    8c9c:	ac c0       	rjmp	.+344    	; 0x8df6 <vfprintf+0x726>
    8c9e:	04 c0       	rjmp	.+8      	; 0x8ca8 <vfprintf+0x5d8>
    8ca0:	28 e0       	ldi	r18, 0x08	; 8
    8ca2:	30 e0       	ldi	r19, 0x00	; 0
    8ca4:	0a c0       	rjmp	.+20     	; 0x8cba <vfprintf+0x5ea>
    8ca6:	10 61       	ori	r17, 0x10	; 16
    8ca8:	14 fd       	sbrc	r17, 4
    8caa:	14 60       	ori	r17, 0x04	; 4
    8cac:	20 e1       	ldi	r18, 0x10	; 16
    8cae:	30 e0       	ldi	r19, 0x00	; 0
    8cb0:	04 c0       	rjmp	.+8      	; 0x8cba <vfprintf+0x5ea>
    8cb2:	14 fd       	sbrc	r17, 4
    8cb4:	16 60       	ori	r17, 0x06	; 6
    8cb6:	20 e1       	ldi	r18, 0x10	; 16
    8cb8:	32 e0       	ldi	r19, 0x02	; 2
    8cba:	17 ff       	sbrs	r17, 7
    8cbc:	08 c0       	rjmp	.+16     	; 0x8cce <vfprintf+0x5fe>
    8cbe:	f6 01       	movw	r30, r12
    8cc0:	60 81       	ld	r22, Z
    8cc2:	71 81       	ldd	r23, Z+1	; 0x01
    8cc4:	82 81       	ldd	r24, Z+2	; 0x02
    8cc6:	93 81       	ldd	r25, Z+3	; 0x03
    8cc8:	44 e0       	ldi	r20, 0x04	; 4
    8cca:	50 e0       	ldi	r21, 0x00	; 0
    8ccc:	08 c0       	rjmp	.+16     	; 0x8cde <vfprintf+0x60e>
    8cce:	f6 01       	movw	r30, r12
    8cd0:	80 81       	ld	r24, Z
    8cd2:	91 81       	ldd	r25, Z+1	; 0x01
    8cd4:	bc 01       	movw	r22, r24
    8cd6:	80 e0       	ldi	r24, 0x00	; 0
    8cd8:	90 e0       	ldi	r25, 0x00	; 0
    8cda:	42 e0       	ldi	r20, 0x02	; 2
    8cdc:	50 e0       	ldi	r21, 0x00	; 0
    8cde:	c4 0e       	add	r12, r20
    8ce0:	d5 1e       	adc	r13, r21
    8ce2:	ae 01       	movw	r20, r28
    8ce4:	4f 5f       	subi	r20, 0xFF	; 255
    8ce6:	5f 4f       	sbci	r21, 0xFF	; 255
    8ce8:	0e 94 06 4d 	call	0x9a0c	; 0x9a0c <__ultoa_invert>
    8cec:	e8 2e       	mov	r14, r24
    8cee:	58 89       	ldd	r21, Y+16	; 0x10
    8cf0:	e5 1a       	sub	r14, r21
    8cf2:	8f e7       	ldi	r24, 0x7F	; 127
    8cf4:	f8 2e       	mov	r15, r24
    8cf6:	f1 22       	and	r15, r17
    8cf8:	f6 fe       	sbrs	r15, 6
    8cfa:	0b c0       	rjmp	.+22     	; 0x8d12 <vfprintf+0x642>
    8cfc:	8e ef       	ldi	r24, 0xFE	; 254
    8cfe:	f8 22       	and	r15, r24
    8d00:	e9 14       	cp	r14, r9
    8d02:	38 f4       	brcc	.+14     	; 0x8d12 <vfprintf+0x642>
    8d04:	f4 fe       	sbrs	r15, 4
    8d06:	07 c0       	rjmp	.+14     	; 0x8d16 <vfprintf+0x646>
    8d08:	f2 fc       	sbrc	r15, 2
    8d0a:	05 c0       	rjmp	.+10     	; 0x8d16 <vfprintf+0x646>
    8d0c:	9f ee       	ldi	r25, 0xEF	; 239
    8d0e:	f9 22       	and	r15, r25
    8d10:	02 c0       	rjmp	.+4      	; 0x8d16 <vfprintf+0x646>
    8d12:	1e 2d       	mov	r17, r14
    8d14:	01 c0       	rjmp	.+2      	; 0x8d18 <vfprintf+0x648>
    8d16:	19 2d       	mov	r17, r9
    8d18:	f4 fe       	sbrs	r15, 4
    8d1a:	0d c0       	rjmp	.+26     	; 0x8d36 <vfprintf+0x666>
    8d1c:	fe 01       	movw	r30, r28
    8d1e:	ee 0d       	add	r30, r14
    8d20:	f1 1d       	adc	r31, r1
    8d22:	80 81       	ld	r24, Z
    8d24:	80 33       	cpi	r24, 0x30	; 48
    8d26:	19 f4       	brne	.+6      	; 0x8d2e <vfprintf+0x65e>
    8d28:	e9 ee       	ldi	r30, 0xE9	; 233
    8d2a:	fe 22       	and	r15, r30
    8d2c:	08 c0       	rjmp	.+16     	; 0x8d3e <vfprintf+0x66e>
    8d2e:	1f 5f       	subi	r17, 0xFF	; 255
    8d30:	f2 fe       	sbrs	r15, 2
    8d32:	05 c0       	rjmp	.+10     	; 0x8d3e <vfprintf+0x66e>
    8d34:	03 c0       	rjmp	.+6      	; 0x8d3c <vfprintf+0x66c>
    8d36:	8f 2d       	mov	r24, r15
    8d38:	86 78       	andi	r24, 0x86	; 134
    8d3a:	09 f0       	breq	.+2      	; 0x8d3e <vfprintf+0x66e>
    8d3c:	1f 5f       	subi	r17, 0xFF	; 255
    8d3e:	0f 2d       	mov	r16, r15
    8d40:	f3 fc       	sbrc	r15, 3
    8d42:	14 c0       	rjmp	.+40     	; 0x8d6c <vfprintf+0x69c>
    8d44:	f0 fe       	sbrs	r15, 0
    8d46:	0f c0       	rjmp	.+30     	; 0x8d66 <vfprintf+0x696>
    8d48:	18 15       	cp	r17, r8
    8d4a:	10 f0       	brcs	.+4      	; 0x8d50 <vfprintf+0x680>
    8d4c:	9e 2c       	mov	r9, r14
    8d4e:	0b c0       	rjmp	.+22     	; 0x8d66 <vfprintf+0x696>
    8d50:	9e 2c       	mov	r9, r14
    8d52:	98 0c       	add	r9, r8
    8d54:	91 1a       	sub	r9, r17
    8d56:	18 2d       	mov	r17, r8
    8d58:	06 c0       	rjmp	.+12     	; 0x8d66 <vfprintf+0x696>
    8d5a:	80 e2       	ldi	r24, 0x20	; 32
    8d5c:	90 e0       	ldi	r25, 0x00	; 0
    8d5e:	b3 01       	movw	r22, r6
    8d60:	0e 94 97 4c 	call	0x992e	; 0x992e <fputc>
    8d64:	1f 5f       	subi	r17, 0xFF	; 255
    8d66:	18 15       	cp	r17, r8
    8d68:	c0 f3       	brcs	.-16     	; 0x8d5a <vfprintf+0x68a>
    8d6a:	04 c0       	rjmp	.+8      	; 0x8d74 <vfprintf+0x6a4>
    8d6c:	18 15       	cp	r17, r8
    8d6e:	10 f4       	brcc	.+4      	; 0x8d74 <vfprintf+0x6a4>
    8d70:	81 1a       	sub	r8, r17
    8d72:	01 c0       	rjmp	.+2      	; 0x8d76 <vfprintf+0x6a6>
    8d74:	88 24       	eor	r8, r8
    8d76:	04 ff       	sbrs	r16, 4
    8d78:	0f c0       	rjmp	.+30     	; 0x8d98 <vfprintf+0x6c8>
    8d7a:	80 e3       	ldi	r24, 0x30	; 48
    8d7c:	90 e0       	ldi	r25, 0x00	; 0
    8d7e:	b3 01       	movw	r22, r6
    8d80:	0e 94 97 4c 	call	0x992e	; 0x992e <fputc>
    8d84:	02 ff       	sbrs	r16, 2
    8d86:	1d c0       	rjmp	.+58     	; 0x8dc2 <vfprintf+0x6f2>
    8d88:	01 fd       	sbrc	r16, 1
    8d8a:	03 c0       	rjmp	.+6      	; 0x8d92 <vfprintf+0x6c2>
    8d8c:	88 e7       	ldi	r24, 0x78	; 120
    8d8e:	90 e0       	ldi	r25, 0x00	; 0
    8d90:	0e c0       	rjmp	.+28     	; 0x8dae <vfprintf+0x6de>
    8d92:	88 e5       	ldi	r24, 0x58	; 88
    8d94:	90 e0       	ldi	r25, 0x00	; 0
    8d96:	0b c0       	rjmp	.+22     	; 0x8dae <vfprintf+0x6de>
    8d98:	80 2f       	mov	r24, r16
    8d9a:	86 78       	andi	r24, 0x86	; 134
    8d9c:	91 f0       	breq	.+36     	; 0x8dc2 <vfprintf+0x6f2>
    8d9e:	01 ff       	sbrs	r16, 1
    8da0:	02 c0       	rjmp	.+4      	; 0x8da6 <vfprintf+0x6d6>
    8da2:	8b e2       	ldi	r24, 0x2B	; 43
    8da4:	01 c0       	rjmp	.+2      	; 0x8da8 <vfprintf+0x6d8>
    8da6:	80 e2       	ldi	r24, 0x20	; 32
    8da8:	f7 fc       	sbrc	r15, 7
    8daa:	8d e2       	ldi	r24, 0x2D	; 45
    8dac:	90 e0       	ldi	r25, 0x00	; 0
    8dae:	b3 01       	movw	r22, r6
    8db0:	0e 94 97 4c 	call	0x992e	; 0x992e <fputc>
    8db4:	06 c0       	rjmp	.+12     	; 0x8dc2 <vfprintf+0x6f2>
    8db6:	80 e3       	ldi	r24, 0x30	; 48
    8db8:	90 e0       	ldi	r25, 0x00	; 0
    8dba:	b3 01       	movw	r22, r6
    8dbc:	0e 94 97 4c 	call	0x992e	; 0x992e <fputc>
    8dc0:	9a 94       	dec	r9
    8dc2:	e9 14       	cp	r14, r9
    8dc4:	c0 f3       	brcs	.-16     	; 0x8db6 <vfprintf+0x6e6>
    8dc6:	ea 94       	dec	r14
    8dc8:	e1 e0       	ldi	r30, 0x01	; 1
    8dca:	f0 e0       	ldi	r31, 0x00	; 0
    8dcc:	ec 0f       	add	r30, r28
    8dce:	fd 1f       	adc	r31, r29
    8dd0:	ee 0d       	add	r30, r14
    8dd2:	f1 1d       	adc	r31, r1
    8dd4:	80 81       	ld	r24, Z
    8dd6:	90 e0       	ldi	r25, 0x00	; 0
    8dd8:	b3 01       	movw	r22, r6
    8dda:	0e 94 97 4c 	call	0x992e	; 0x992e <fputc>
    8dde:	ee 20       	and	r14, r14
    8de0:	91 f7       	brne	.-28     	; 0x8dc6 <vfprintf+0x6f6>
    8de2:	06 c0       	rjmp	.+12     	; 0x8df0 <vfprintf+0x720>
    8de4:	80 e2       	ldi	r24, 0x20	; 32
    8de6:	90 e0       	ldi	r25, 0x00	; 0
    8de8:	b3 01       	movw	r22, r6
    8dea:	0e 94 97 4c 	call	0x992e	; 0x992e <fputc>
    8dee:	8a 94       	dec	r8
    8df0:	88 20       	and	r8, r8
    8df2:	c1 f7       	brne	.-16     	; 0x8de4 <vfprintf+0x714>
    8df4:	99 cc       	rjmp	.-1742   	; 0x8728 <vfprintf+0x58>
    8df6:	f3 01       	movw	r30, r6
    8df8:	66 81       	ldd	r22, Z+6	; 0x06
    8dfa:	77 81       	ldd	r23, Z+7	; 0x07
    8dfc:	cb 01       	movw	r24, r22
    8dfe:	61 96       	adiw	r28, 0x11	; 17
    8e00:	0f b6       	in	r0, 0x3f	; 63
    8e02:	f8 94       	cli
    8e04:	de bf       	out	0x3e, r29	; 62
    8e06:	0f be       	out	0x3f, r0	; 63
    8e08:	cd bf       	out	0x3d, r28	; 61
    8e0a:	cf 91       	pop	r28
    8e0c:	df 91       	pop	r29
    8e0e:	1f 91       	pop	r17
    8e10:	0f 91       	pop	r16
    8e12:	ff 90       	pop	r15
    8e14:	ef 90       	pop	r14
    8e16:	df 90       	pop	r13
    8e18:	cf 90       	pop	r12
    8e1a:	bf 90       	pop	r11
    8e1c:	af 90       	pop	r10
    8e1e:	9f 90       	pop	r9
    8e20:	8f 90       	pop	r8
    8e22:	7f 90       	pop	r7
    8e24:	6f 90       	pop	r6
    8e26:	5f 90       	pop	r5
    8e28:	4f 90       	pop	r4
    8e2a:	3f 90       	pop	r3
    8e2c:	2f 90       	pop	r2
    8e2e:	08 95       	ret

00008e30 <__subsf3>:
    8e30:	50 58       	subi	r21, 0x80	; 128

00008e32 <__addsf3>:
    8e32:	bb 27       	eor	r27, r27
    8e34:	aa 27       	eor	r26, r26
    8e36:	0e d0       	rcall	.+28     	; 0x8e54 <__addsf3x>
    8e38:	48 c1       	rjmp	.+656    	; 0x90ca <__fp_round>
    8e3a:	39 d1       	rcall	.+626    	; 0x90ae <__fp_pscA>
    8e3c:	30 f0       	brcs	.+12     	; 0x8e4a <__addsf3+0x18>
    8e3e:	3e d1       	rcall	.+636    	; 0x90bc <__fp_pscB>
    8e40:	20 f0       	brcs	.+8      	; 0x8e4a <__addsf3+0x18>
    8e42:	31 f4       	brne	.+12     	; 0x8e50 <__addsf3+0x1e>
    8e44:	9f 3f       	cpi	r25, 0xFF	; 255
    8e46:	11 f4       	brne	.+4      	; 0x8e4c <__addsf3+0x1a>
    8e48:	1e f4       	brtc	.+6      	; 0x8e50 <__addsf3+0x1e>
    8e4a:	2e c1       	rjmp	.+604    	; 0x90a8 <__fp_nan>
    8e4c:	0e f4       	brtc	.+2      	; 0x8e50 <__addsf3+0x1e>
    8e4e:	e0 95       	com	r30
    8e50:	e7 fb       	bst	r30, 7
    8e52:	24 c1       	rjmp	.+584    	; 0x909c <__fp_inf>

00008e54 <__addsf3x>:
    8e54:	e9 2f       	mov	r30, r25
    8e56:	4a d1       	rcall	.+660    	; 0x90ec <__fp_split3>
    8e58:	80 f3       	brcs	.-32     	; 0x8e3a <__addsf3+0x8>
    8e5a:	ba 17       	cp	r27, r26
    8e5c:	62 07       	cpc	r22, r18
    8e5e:	73 07       	cpc	r23, r19
    8e60:	84 07       	cpc	r24, r20
    8e62:	95 07       	cpc	r25, r21
    8e64:	18 f0       	brcs	.+6      	; 0x8e6c <__addsf3x+0x18>
    8e66:	71 f4       	brne	.+28     	; 0x8e84 <__addsf3x+0x30>
    8e68:	9e f5       	brtc	.+102    	; 0x8ed0 <__addsf3x+0x7c>
    8e6a:	62 c1       	rjmp	.+708    	; 0x9130 <__fp_zero>
    8e6c:	0e f4       	brtc	.+2      	; 0x8e70 <__addsf3x+0x1c>
    8e6e:	e0 95       	com	r30
    8e70:	0b 2e       	mov	r0, r27
    8e72:	ba 2f       	mov	r27, r26
    8e74:	a0 2d       	mov	r26, r0
    8e76:	0b 01       	movw	r0, r22
    8e78:	b9 01       	movw	r22, r18
    8e7a:	90 01       	movw	r18, r0
    8e7c:	0c 01       	movw	r0, r24
    8e7e:	ca 01       	movw	r24, r20
    8e80:	a0 01       	movw	r20, r0
    8e82:	11 24       	eor	r1, r1
    8e84:	ff 27       	eor	r31, r31
    8e86:	59 1b       	sub	r21, r25
    8e88:	99 f0       	breq	.+38     	; 0x8eb0 <__addsf3x+0x5c>
    8e8a:	59 3f       	cpi	r21, 0xF9	; 249
    8e8c:	50 f4       	brcc	.+20     	; 0x8ea2 <__addsf3x+0x4e>
    8e8e:	50 3e       	cpi	r21, 0xE0	; 224
    8e90:	68 f1       	brcs	.+90     	; 0x8eec <__addsf3x+0x98>
    8e92:	1a 16       	cp	r1, r26
    8e94:	f0 40       	sbci	r31, 0x00	; 0
    8e96:	a2 2f       	mov	r26, r18
    8e98:	23 2f       	mov	r18, r19
    8e9a:	34 2f       	mov	r19, r20
    8e9c:	44 27       	eor	r20, r20
    8e9e:	58 5f       	subi	r21, 0xF8	; 248
    8ea0:	f3 cf       	rjmp	.-26     	; 0x8e88 <__addsf3x+0x34>
    8ea2:	46 95       	lsr	r20
    8ea4:	37 95       	ror	r19
    8ea6:	27 95       	ror	r18
    8ea8:	a7 95       	ror	r26
    8eaa:	f0 40       	sbci	r31, 0x00	; 0
    8eac:	53 95       	inc	r21
    8eae:	c9 f7       	brne	.-14     	; 0x8ea2 <__addsf3x+0x4e>
    8eb0:	7e f4       	brtc	.+30     	; 0x8ed0 <__addsf3x+0x7c>
    8eb2:	1f 16       	cp	r1, r31
    8eb4:	ba 0b       	sbc	r27, r26
    8eb6:	62 0b       	sbc	r22, r18
    8eb8:	73 0b       	sbc	r23, r19
    8eba:	84 0b       	sbc	r24, r20
    8ebc:	ba f0       	brmi	.+46     	; 0x8eec <__addsf3x+0x98>
    8ebe:	91 50       	subi	r25, 0x01	; 1
    8ec0:	a1 f0       	breq	.+40     	; 0x8eea <__addsf3x+0x96>
    8ec2:	ff 0f       	add	r31, r31
    8ec4:	bb 1f       	adc	r27, r27
    8ec6:	66 1f       	adc	r22, r22
    8ec8:	77 1f       	adc	r23, r23
    8eca:	88 1f       	adc	r24, r24
    8ecc:	c2 f7       	brpl	.-16     	; 0x8ebe <__addsf3x+0x6a>
    8ece:	0e c0       	rjmp	.+28     	; 0x8eec <__addsf3x+0x98>
    8ed0:	ba 0f       	add	r27, r26
    8ed2:	62 1f       	adc	r22, r18
    8ed4:	73 1f       	adc	r23, r19
    8ed6:	84 1f       	adc	r24, r20
    8ed8:	48 f4       	brcc	.+18     	; 0x8eec <__addsf3x+0x98>
    8eda:	87 95       	ror	r24
    8edc:	77 95       	ror	r23
    8ede:	67 95       	ror	r22
    8ee0:	b7 95       	ror	r27
    8ee2:	f7 95       	ror	r31
    8ee4:	9e 3f       	cpi	r25, 0xFE	; 254
    8ee6:	08 f0       	brcs	.+2      	; 0x8eea <__addsf3x+0x96>
    8ee8:	b3 cf       	rjmp	.-154    	; 0x8e50 <__addsf3+0x1e>
    8eea:	93 95       	inc	r25
    8eec:	88 0f       	add	r24, r24
    8eee:	08 f0       	brcs	.+2      	; 0x8ef2 <__addsf3x+0x9e>
    8ef0:	99 27       	eor	r25, r25
    8ef2:	ee 0f       	add	r30, r30
    8ef4:	97 95       	ror	r25
    8ef6:	87 95       	ror	r24
    8ef8:	08 95       	ret

00008efa <__divsf3>:
    8efa:	0c d0       	rcall	.+24     	; 0x8f14 <__divsf3x>
    8efc:	e6 c0       	rjmp	.+460    	; 0x90ca <__fp_round>
    8efe:	de d0       	rcall	.+444    	; 0x90bc <__fp_pscB>
    8f00:	40 f0       	brcs	.+16     	; 0x8f12 <__divsf3+0x18>
    8f02:	d5 d0       	rcall	.+426    	; 0x90ae <__fp_pscA>
    8f04:	30 f0       	brcs	.+12     	; 0x8f12 <__divsf3+0x18>
    8f06:	21 f4       	brne	.+8      	; 0x8f10 <__divsf3+0x16>
    8f08:	5f 3f       	cpi	r21, 0xFF	; 255
    8f0a:	19 f0       	breq	.+6      	; 0x8f12 <__divsf3+0x18>
    8f0c:	c7 c0       	rjmp	.+398    	; 0x909c <__fp_inf>
    8f0e:	51 11       	cpse	r21, r1
    8f10:	10 c1       	rjmp	.+544    	; 0x9132 <__fp_szero>
    8f12:	ca c0       	rjmp	.+404    	; 0x90a8 <__fp_nan>

00008f14 <__divsf3x>:
    8f14:	eb d0       	rcall	.+470    	; 0x90ec <__fp_split3>
    8f16:	98 f3       	brcs	.-26     	; 0x8efe <__divsf3+0x4>

00008f18 <__divsf3_pse>:
    8f18:	99 23       	and	r25, r25
    8f1a:	c9 f3       	breq	.-14     	; 0x8f0e <__divsf3+0x14>
    8f1c:	55 23       	and	r21, r21
    8f1e:	b1 f3       	breq	.-20     	; 0x8f0c <__divsf3+0x12>
    8f20:	95 1b       	sub	r25, r21
    8f22:	55 0b       	sbc	r21, r21
    8f24:	bb 27       	eor	r27, r27
    8f26:	aa 27       	eor	r26, r26
    8f28:	62 17       	cp	r22, r18
    8f2a:	73 07       	cpc	r23, r19
    8f2c:	84 07       	cpc	r24, r20
    8f2e:	38 f0       	brcs	.+14     	; 0x8f3e <__divsf3_pse+0x26>
    8f30:	9f 5f       	subi	r25, 0xFF	; 255
    8f32:	5f 4f       	sbci	r21, 0xFF	; 255
    8f34:	22 0f       	add	r18, r18
    8f36:	33 1f       	adc	r19, r19
    8f38:	44 1f       	adc	r20, r20
    8f3a:	aa 1f       	adc	r26, r26
    8f3c:	a9 f3       	breq	.-22     	; 0x8f28 <__divsf3_pse+0x10>
    8f3e:	33 d0       	rcall	.+102    	; 0x8fa6 <__divsf3_pse+0x8e>
    8f40:	0e 2e       	mov	r0, r30
    8f42:	3a f0       	brmi	.+14     	; 0x8f52 <__divsf3_pse+0x3a>
    8f44:	e0 e8       	ldi	r30, 0x80	; 128
    8f46:	30 d0       	rcall	.+96     	; 0x8fa8 <__divsf3_pse+0x90>
    8f48:	91 50       	subi	r25, 0x01	; 1
    8f4a:	50 40       	sbci	r21, 0x00	; 0
    8f4c:	e6 95       	lsr	r30
    8f4e:	00 1c       	adc	r0, r0
    8f50:	ca f7       	brpl	.-14     	; 0x8f44 <__divsf3_pse+0x2c>
    8f52:	29 d0       	rcall	.+82     	; 0x8fa6 <__divsf3_pse+0x8e>
    8f54:	fe 2f       	mov	r31, r30
    8f56:	27 d0       	rcall	.+78     	; 0x8fa6 <__divsf3_pse+0x8e>
    8f58:	66 0f       	add	r22, r22
    8f5a:	77 1f       	adc	r23, r23
    8f5c:	88 1f       	adc	r24, r24
    8f5e:	bb 1f       	adc	r27, r27
    8f60:	26 17       	cp	r18, r22
    8f62:	37 07       	cpc	r19, r23
    8f64:	48 07       	cpc	r20, r24
    8f66:	ab 07       	cpc	r26, r27
    8f68:	b0 e8       	ldi	r27, 0x80	; 128
    8f6a:	09 f0       	breq	.+2      	; 0x8f6e <__divsf3_pse+0x56>
    8f6c:	bb 0b       	sbc	r27, r27
    8f6e:	80 2d       	mov	r24, r0
    8f70:	bf 01       	movw	r22, r30
    8f72:	ff 27       	eor	r31, r31
    8f74:	93 58       	subi	r25, 0x83	; 131
    8f76:	5f 4f       	sbci	r21, 0xFF	; 255
    8f78:	2a f0       	brmi	.+10     	; 0x8f84 <__divsf3_pse+0x6c>
    8f7a:	9e 3f       	cpi	r25, 0xFE	; 254
    8f7c:	51 05       	cpc	r21, r1
    8f7e:	68 f0       	brcs	.+26     	; 0x8f9a <__divsf3_pse+0x82>
    8f80:	8d c0       	rjmp	.+282    	; 0x909c <__fp_inf>
    8f82:	d7 c0       	rjmp	.+430    	; 0x9132 <__fp_szero>
    8f84:	5f 3f       	cpi	r21, 0xFF	; 255
    8f86:	ec f3       	brlt	.-6      	; 0x8f82 <__divsf3_pse+0x6a>
    8f88:	98 3e       	cpi	r25, 0xE8	; 232
    8f8a:	dc f3       	brlt	.-10     	; 0x8f82 <__divsf3_pse+0x6a>
    8f8c:	86 95       	lsr	r24
    8f8e:	77 95       	ror	r23
    8f90:	67 95       	ror	r22
    8f92:	b7 95       	ror	r27
    8f94:	f7 95       	ror	r31
    8f96:	9f 5f       	subi	r25, 0xFF	; 255
    8f98:	c9 f7       	brne	.-14     	; 0x8f8c <__divsf3_pse+0x74>
    8f9a:	88 0f       	add	r24, r24
    8f9c:	91 1d       	adc	r25, r1
    8f9e:	96 95       	lsr	r25
    8fa0:	87 95       	ror	r24
    8fa2:	97 f9       	bld	r25, 7
    8fa4:	08 95       	ret
    8fa6:	e1 e0       	ldi	r30, 0x01	; 1
    8fa8:	66 0f       	add	r22, r22
    8faa:	77 1f       	adc	r23, r23
    8fac:	88 1f       	adc	r24, r24
    8fae:	bb 1f       	adc	r27, r27
    8fb0:	62 17       	cp	r22, r18
    8fb2:	73 07       	cpc	r23, r19
    8fb4:	84 07       	cpc	r24, r20
    8fb6:	ba 07       	cpc	r27, r26
    8fb8:	20 f0       	brcs	.+8      	; 0x8fc2 <__divsf3_pse+0xaa>
    8fba:	62 1b       	sub	r22, r18
    8fbc:	73 0b       	sbc	r23, r19
    8fbe:	84 0b       	sbc	r24, r20
    8fc0:	ba 0b       	sbc	r27, r26
    8fc2:	ee 1f       	adc	r30, r30
    8fc4:	88 f7       	brcc	.-30     	; 0x8fa8 <__divsf3_pse+0x90>
    8fc6:	e0 95       	com	r30
    8fc8:	08 95       	ret

00008fca <__fixunssfsi>:
    8fca:	98 d0       	rcall	.+304    	; 0x90fc <__fp_splitA>
    8fcc:	88 f0       	brcs	.+34     	; 0x8ff0 <__fixunssfsi+0x26>
    8fce:	9f 57       	subi	r25, 0x7F	; 127
    8fd0:	90 f0       	brcs	.+36     	; 0x8ff6 <__fixunssfsi+0x2c>
    8fd2:	b9 2f       	mov	r27, r25
    8fd4:	99 27       	eor	r25, r25
    8fd6:	b7 51       	subi	r27, 0x17	; 23
    8fd8:	a0 f0       	brcs	.+40     	; 0x9002 <__fixunssfsi+0x38>
    8fda:	d1 f0       	breq	.+52     	; 0x9010 <__fixunssfsi+0x46>
    8fdc:	66 0f       	add	r22, r22
    8fde:	77 1f       	adc	r23, r23
    8fe0:	88 1f       	adc	r24, r24
    8fe2:	99 1f       	adc	r25, r25
    8fe4:	1a f0       	brmi	.+6      	; 0x8fec <__fixunssfsi+0x22>
    8fe6:	ba 95       	dec	r27
    8fe8:	c9 f7       	brne	.-14     	; 0x8fdc <__fixunssfsi+0x12>
    8fea:	12 c0       	rjmp	.+36     	; 0x9010 <__fixunssfsi+0x46>
    8fec:	b1 30       	cpi	r27, 0x01	; 1
    8fee:	81 f0       	breq	.+32     	; 0x9010 <__fixunssfsi+0x46>
    8ff0:	9f d0       	rcall	.+318    	; 0x9130 <__fp_zero>
    8ff2:	b1 e0       	ldi	r27, 0x01	; 1
    8ff4:	08 95       	ret
    8ff6:	9c c0       	rjmp	.+312    	; 0x9130 <__fp_zero>
    8ff8:	67 2f       	mov	r22, r23
    8ffa:	78 2f       	mov	r23, r24
    8ffc:	88 27       	eor	r24, r24
    8ffe:	b8 5f       	subi	r27, 0xF8	; 248
    9000:	39 f0       	breq	.+14     	; 0x9010 <__fixunssfsi+0x46>
    9002:	b9 3f       	cpi	r27, 0xF9	; 249
    9004:	cc f3       	brlt	.-14     	; 0x8ff8 <__fixunssfsi+0x2e>
    9006:	86 95       	lsr	r24
    9008:	77 95       	ror	r23
    900a:	67 95       	ror	r22
    900c:	b3 95       	inc	r27
    900e:	d9 f7       	brne	.-10     	; 0x9006 <__fixunssfsi+0x3c>
    9010:	3e f4       	brtc	.+14     	; 0x9020 <__fixunssfsi+0x56>
    9012:	90 95       	com	r25
    9014:	80 95       	com	r24
    9016:	70 95       	com	r23
    9018:	61 95       	neg	r22
    901a:	7f 4f       	sbci	r23, 0xFF	; 255
    901c:	8f 4f       	sbci	r24, 0xFF	; 255
    901e:	9f 4f       	sbci	r25, 0xFF	; 255
    9020:	08 95       	ret

00009022 <__floatunsisf>:
    9022:	e8 94       	clt
    9024:	09 c0       	rjmp	.+18     	; 0x9038 <__floatsisf+0x12>

00009026 <__floatsisf>:
    9026:	97 fb       	bst	r25, 7
    9028:	3e f4       	brtc	.+14     	; 0x9038 <__floatsisf+0x12>
    902a:	90 95       	com	r25
    902c:	80 95       	com	r24
    902e:	70 95       	com	r23
    9030:	61 95       	neg	r22
    9032:	7f 4f       	sbci	r23, 0xFF	; 255
    9034:	8f 4f       	sbci	r24, 0xFF	; 255
    9036:	9f 4f       	sbci	r25, 0xFF	; 255
    9038:	99 23       	and	r25, r25
    903a:	a9 f0       	breq	.+42     	; 0x9066 <__floatsisf+0x40>
    903c:	f9 2f       	mov	r31, r25
    903e:	96 e9       	ldi	r25, 0x96	; 150
    9040:	bb 27       	eor	r27, r27
    9042:	93 95       	inc	r25
    9044:	f6 95       	lsr	r31
    9046:	87 95       	ror	r24
    9048:	77 95       	ror	r23
    904a:	67 95       	ror	r22
    904c:	b7 95       	ror	r27
    904e:	f1 11       	cpse	r31, r1
    9050:	f8 cf       	rjmp	.-16     	; 0x9042 <__floatsisf+0x1c>
    9052:	fa f4       	brpl	.+62     	; 0x9092 <__floatsisf+0x6c>
    9054:	bb 0f       	add	r27, r27
    9056:	11 f4       	brne	.+4      	; 0x905c <__floatsisf+0x36>
    9058:	60 ff       	sbrs	r22, 0
    905a:	1b c0       	rjmp	.+54     	; 0x9092 <__floatsisf+0x6c>
    905c:	6f 5f       	subi	r22, 0xFF	; 255
    905e:	7f 4f       	sbci	r23, 0xFF	; 255
    9060:	8f 4f       	sbci	r24, 0xFF	; 255
    9062:	9f 4f       	sbci	r25, 0xFF	; 255
    9064:	16 c0       	rjmp	.+44     	; 0x9092 <__floatsisf+0x6c>
    9066:	88 23       	and	r24, r24
    9068:	11 f0       	breq	.+4      	; 0x906e <__floatsisf+0x48>
    906a:	96 e9       	ldi	r25, 0x96	; 150
    906c:	11 c0       	rjmp	.+34     	; 0x9090 <__floatsisf+0x6a>
    906e:	77 23       	and	r23, r23
    9070:	21 f0       	breq	.+8      	; 0x907a <__floatsisf+0x54>
    9072:	9e e8       	ldi	r25, 0x8E	; 142
    9074:	87 2f       	mov	r24, r23
    9076:	76 2f       	mov	r23, r22
    9078:	05 c0       	rjmp	.+10     	; 0x9084 <__floatsisf+0x5e>
    907a:	66 23       	and	r22, r22
    907c:	71 f0       	breq	.+28     	; 0x909a <__floatsisf+0x74>
    907e:	96 e8       	ldi	r25, 0x86	; 134
    9080:	86 2f       	mov	r24, r22
    9082:	70 e0       	ldi	r23, 0x00	; 0
    9084:	60 e0       	ldi	r22, 0x00	; 0
    9086:	2a f0       	brmi	.+10     	; 0x9092 <__floatsisf+0x6c>
    9088:	9a 95       	dec	r25
    908a:	66 0f       	add	r22, r22
    908c:	77 1f       	adc	r23, r23
    908e:	88 1f       	adc	r24, r24
    9090:	da f7       	brpl	.-10     	; 0x9088 <__floatsisf+0x62>
    9092:	88 0f       	add	r24, r24
    9094:	96 95       	lsr	r25
    9096:	87 95       	ror	r24
    9098:	97 f9       	bld	r25, 7
    909a:	08 95       	ret

0000909c <__fp_inf>:
    909c:	97 f9       	bld	r25, 7
    909e:	9f 67       	ori	r25, 0x7F	; 127
    90a0:	80 e8       	ldi	r24, 0x80	; 128
    90a2:	70 e0       	ldi	r23, 0x00	; 0
    90a4:	60 e0       	ldi	r22, 0x00	; 0
    90a6:	08 95       	ret

000090a8 <__fp_nan>:
    90a8:	9f ef       	ldi	r25, 0xFF	; 255
    90aa:	80 ec       	ldi	r24, 0xC0	; 192
    90ac:	08 95       	ret

000090ae <__fp_pscA>:
    90ae:	00 24       	eor	r0, r0
    90b0:	0a 94       	dec	r0
    90b2:	16 16       	cp	r1, r22
    90b4:	17 06       	cpc	r1, r23
    90b6:	18 06       	cpc	r1, r24
    90b8:	09 06       	cpc	r0, r25
    90ba:	08 95       	ret

000090bc <__fp_pscB>:
    90bc:	00 24       	eor	r0, r0
    90be:	0a 94       	dec	r0
    90c0:	12 16       	cp	r1, r18
    90c2:	13 06       	cpc	r1, r19
    90c4:	14 06       	cpc	r1, r20
    90c6:	05 06       	cpc	r0, r21
    90c8:	08 95       	ret

000090ca <__fp_round>:
    90ca:	09 2e       	mov	r0, r25
    90cc:	03 94       	inc	r0
    90ce:	00 0c       	add	r0, r0
    90d0:	11 f4       	brne	.+4      	; 0x90d6 <__fp_round+0xc>
    90d2:	88 23       	and	r24, r24
    90d4:	52 f0       	brmi	.+20     	; 0x90ea <__fp_round+0x20>
    90d6:	bb 0f       	add	r27, r27
    90d8:	40 f4       	brcc	.+16     	; 0x90ea <__fp_round+0x20>
    90da:	bf 2b       	or	r27, r31
    90dc:	11 f4       	brne	.+4      	; 0x90e2 <__fp_round+0x18>
    90de:	60 ff       	sbrs	r22, 0
    90e0:	04 c0       	rjmp	.+8      	; 0x90ea <__fp_round+0x20>
    90e2:	6f 5f       	subi	r22, 0xFF	; 255
    90e4:	7f 4f       	sbci	r23, 0xFF	; 255
    90e6:	8f 4f       	sbci	r24, 0xFF	; 255
    90e8:	9f 4f       	sbci	r25, 0xFF	; 255
    90ea:	08 95       	ret

000090ec <__fp_split3>:
    90ec:	57 fd       	sbrc	r21, 7
    90ee:	90 58       	subi	r25, 0x80	; 128
    90f0:	44 0f       	add	r20, r20
    90f2:	55 1f       	adc	r21, r21
    90f4:	59 f0       	breq	.+22     	; 0x910c <__fp_splitA+0x10>
    90f6:	5f 3f       	cpi	r21, 0xFF	; 255
    90f8:	71 f0       	breq	.+28     	; 0x9116 <__fp_splitA+0x1a>
    90fa:	47 95       	ror	r20

000090fc <__fp_splitA>:
    90fc:	88 0f       	add	r24, r24
    90fe:	97 fb       	bst	r25, 7
    9100:	99 1f       	adc	r25, r25
    9102:	61 f0       	breq	.+24     	; 0x911c <__fp_splitA+0x20>
    9104:	9f 3f       	cpi	r25, 0xFF	; 255
    9106:	79 f0       	breq	.+30     	; 0x9126 <__fp_splitA+0x2a>
    9108:	87 95       	ror	r24
    910a:	08 95       	ret
    910c:	12 16       	cp	r1, r18
    910e:	13 06       	cpc	r1, r19
    9110:	14 06       	cpc	r1, r20
    9112:	55 1f       	adc	r21, r21
    9114:	f2 cf       	rjmp	.-28     	; 0x90fa <__fp_split3+0xe>
    9116:	46 95       	lsr	r20
    9118:	f1 df       	rcall	.-30     	; 0x90fc <__fp_splitA>
    911a:	08 c0       	rjmp	.+16     	; 0x912c <__fp_splitA+0x30>
    911c:	16 16       	cp	r1, r22
    911e:	17 06       	cpc	r1, r23
    9120:	18 06       	cpc	r1, r24
    9122:	99 1f       	adc	r25, r25
    9124:	f1 cf       	rjmp	.-30     	; 0x9108 <__fp_splitA+0xc>
    9126:	86 95       	lsr	r24
    9128:	71 05       	cpc	r23, r1
    912a:	61 05       	cpc	r22, r1
    912c:	08 94       	sec
    912e:	08 95       	ret

00009130 <__fp_zero>:
    9130:	e8 94       	clt

00009132 <__fp_szero>:
    9132:	bb 27       	eor	r27, r27
    9134:	66 27       	eor	r22, r22
    9136:	77 27       	eor	r23, r23
    9138:	cb 01       	movw	r24, r22
    913a:	97 f9       	bld	r25, 7
    913c:	08 95       	ret

0000913e <__gesf2>:
    913e:	28 d1       	rcall	.+592    	; 0x9390 <__fp_cmp>
    9140:	08 f4       	brcc	.+2      	; 0x9144 <__gesf2+0x6>
    9142:	8f ef       	ldi	r24, 0xFF	; 255
    9144:	08 95       	ret
    9146:	0e f0       	brts	.+2      	; 0x914a <__gesf2+0xc>
    9148:	47 c1       	rjmp	.+654    	; 0x93d8 <__fp_mpack>
    914a:	ae cf       	rjmp	.-164    	; 0x90a8 <__fp_nan>
    914c:	68 94       	set
    914e:	a6 cf       	rjmp	.-180    	; 0x909c <__fp_inf>

00009150 <log>:
    9150:	d5 df       	rcall	.-86     	; 0x90fc <__fp_splitA>
    9152:	c8 f3       	brcs	.-14     	; 0x9146 <__gesf2+0x8>
    9154:	99 23       	and	r25, r25
    9156:	d1 f3       	breq	.-12     	; 0x914c <__gesf2+0xe>
    9158:	c6 f3       	brts	.-16     	; 0x914a <__gesf2+0xc>
    915a:	df 93       	push	r29
    915c:	cf 93       	push	r28
    915e:	1f 93       	push	r17
    9160:	0f 93       	push	r16
    9162:	ff 92       	push	r15
    9164:	c9 2f       	mov	r28, r25
    9166:	dd 27       	eor	r29, r29
    9168:	88 23       	and	r24, r24
    916a:	2a f0       	brmi	.+10     	; 0x9176 <log+0x26>
    916c:	21 97       	sbiw	r28, 0x01	; 1
    916e:	66 0f       	add	r22, r22
    9170:	77 1f       	adc	r23, r23
    9172:	88 1f       	adc	r24, r24
    9174:	da f7       	brpl	.-10     	; 0x916c <log+0x1c>
    9176:	20 e0       	ldi	r18, 0x00	; 0
    9178:	30 e0       	ldi	r19, 0x00	; 0
    917a:	40 e8       	ldi	r20, 0x80	; 128
    917c:	5f eb       	ldi	r21, 0xBF	; 191
    917e:	9f e3       	ldi	r25, 0x3F	; 63
    9180:	88 39       	cpi	r24, 0x98	; 152
    9182:	20 f0       	brcs	.+8      	; 0x918c <log+0x3c>
    9184:	80 3e       	cpi	r24, 0xE0	; 224
    9186:	30 f0       	brcs	.+12     	; 0x9194 <log+0x44>
    9188:	21 96       	adiw	r28, 0x01	; 1
    918a:	8f 77       	andi	r24, 0x7F	; 127
    918c:	52 de       	rcall	.-860    	; 0x8e32 <__addsf3>
    918e:	e8 eb       	ldi	r30, 0xB8	; 184
    9190:	f0 e0       	ldi	r31, 0x00	; 0
    9192:	03 c0       	rjmp	.+6      	; 0x919a <log+0x4a>
    9194:	4e de       	rcall	.-868    	; 0x8e32 <__addsf3>
    9196:	e5 ee       	ldi	r30, 0xE5	; 229
    9198:	f0 e0       	ldi	r31, 0x00	; 0
    919a:	2c d1       	rcall	.+600    	; 0x93f4 <__fp_powser>
    919c:	8b 01       	movw	r16, r22
    919e:	be 01       	movw	r22, r28
    91a0:	ec 01       	movw	r28, r24
    91a2:	fb 2e       	mov	r15, r27
    91a4:	6f 57       	subi	r22, 0x7F	; 127
    91a6:	71 09       	sbc	r23, r1
    91a8:	75 95       	asr	r23
    91aa:	77 1f       	adc	r23, r23
    91ac:	88 0b       	sbc	r24, r24
    91ae:	99 0b       	sbc	r25, r25
    91b0:	3a df       	rcall	.-396    	; 0x9026 <__floatsisf>
    91b2:	28 e1       	ldi	r18, 0x18	; 24
    91b4:	32 e7       	ldi	r19, 0x72	; 114
    91b6:	41 e3       	ldi	r20, 0x31	; 49
    91b8:	5f e3       	ldi	r21, 0x3F	; 63
    91ba:	16 d0       	rcall	.+44     	; 0x91e8 <__mulsf3x>
    91bc:	af 2d       	mov	r26, r15
    91be:	98 01       	movw	r18, r16
    91c0:	ae 01       	movw	r20, r28
    91c2:	ff 90       	pop	r15
    91c4:	0f 91       	pop	r16
    91c6:	1f 91       	pop	r17
    91c8:	cf 91       	pop	r28
    91ca:	df 91       	pop	r29
    91cc:	43 de       	rcall	.-890    	; 0x8e54 <__addsf3x>
    91ce:	7d cf       	rjmp	.-262    	; 0x90ca <__fp_round>

000091d0 <__mulsf3>:
    91d0:	0b d0       	rcall	.+22     	; 0x91e8 <__mulsf3x>
    91d2:	7b cf       	rjmp	.-266    	; 0x90ca <__fp_round>
    91d4:	6c df       	rcall	.-296    	; 0x90ae <__fp_pscA>
    91d6:	28 f0       	brcs	.+10     	; 0x91e2 <__mulsf3+0x12>
    91d8:	71 df       	rcall	.-286    	; 0x90bc <__fp_pscB>
    91da:	18 f0       	brcs	.+6      	; 0x91e2 <__mulsf3+0x12>
    91dc:	95 23       	and	r25, r21
    91de:	09 f0       	breq	.+2      	; 0x91e2 <__mulsf3+0x12>
    91e0:	5d cf       	rjmp	.-326    	; 0x909c <__fp_inf>
    91e2:	62 cf       	rjmp	.-316    	; 0x90a8 <__fp_nan>
    91e4:	11 24       	eor	r1, r1
    91e6:	a5 cf       	rjmp	.-182    	; 0x9132 <__fp_szero>

000091e8 <__mulsf3x>:
    91e8:	81 df       	rcall	.-254    	; 0x90ec <__fp_split3>
    91ea:	a0 f3       	brcs	.-24     	; 0x91d4 <__mulsf3+0x4>

000091ec <__mulsf3_pse>:
    91ec:	95 9f       	mul	r25, r21
    91ee:	d1 f3       	breq	.-12     	; 0x91e4 <__mulsf3+0x14>
    91f0:	95 0f       	add	r25, r21
    91f2:	50 e0       	ldi	r21, 0x00	; 0
    91f4:	55 1f       	adc	r21, r21
    91f6:	62 9f       	mul	r22, r18
    91f8:	f0 01       	movw	r30, r0
    91fa:	72 9f       	mul	r23, r18
    91fc:	bb 27       	eor	r27, r27
    91fe:	f0 0d       	add	r31, r0
    9200:	b1 1d       	adc	r27, r1
    9202:	63 9f       	mul	r22, r19
    9204:	aa 27       	eor	r26, r26
    9206:	f0 0d       	add	r31, r0
    9208:	b1 1d       	adc	r27, r1
    920a:	aa 1f       	adc	r26, r26
    920c:	64 9f       	mul	r22, r20
    920e:	66 27       	eor	r22, r22
    9210:	b0 0d       	add	r27, r0
    9212:	a1 1d       	adc	r26, r1
    9214:	66 1f       	adc	r22, r22
    9216:	82 9f       	mul	r24, r18
    9218:	22 27       	eor	r18, r18
    921a:	b0 0d       	add	r27, r0
    921c:	a1 1d       	adc	r26, r1
    921e:	62 1f       	adc	r22, r18
    9220:	73 9f       	mul	r23, r19
    9222:	b0 0d       	add	r27, r0
    9224:	a1 1d       	adc	r26, r1
    9226:	62 1f       	adc	r22, r18
    9228:	83 9f       	mul	r24, r19
    922a:	a0 0d       	add	r26, r0
    922c:	61 1d       	adc	r22, r1
    922e:	22 1f       	adc	r18, r18
    9230:	74 9f       	mul	r23, r20
    9232:	33 27       	eor	r19, r19
    9234:	a0 0d       	add	r26, r0
    9236:	61 1d       	adc	r22, r1
    9238:	23 1f       	adc	r18, r19
    923a:	84 9f       	mul	r24, r20
    923c:	60 0d       	add	r22, r0
    923e:	21 1d       	adc	r18, r1
    9240:	82 2f       	mov	r24, r18
    9242:	76 2f       	mov	r23, r22
    9244:	6a 2f       	mov	r22, r26
    9246:	11 24       	eor	r1, r1
    9248:	9f 57       	subi	r25, 0x7F	; 127
    924a:	50 40       	sbci	r21, 0x00	; 0
    924c:	8a f0       	brmi	.+34     	; 0x9270 <__mulsf3_pse+0x84>
    924e:	e1 f0       	breq	.+56     	; 0x9288 <__mulsf3_pse+0x9c>
    9250:	88 23       	and	r24, r24
    9252:	4a f0       	brmi	.+18     	; 0x9266 <__mulsf3_pse+0x7a>
    9254:	ee 0f       	add	r30, r30
    9256:	ff 1f       	adc	r31, r31
    9258:	bb 1f       	adc	r27, r27
    925a:	66 1f       	adc	r22, r22
    925c:	77 1f       	adc	r23, r23
    925e:	88 1f       	adc	r24, r24
    9260:	91 50       	subi	r25, 0x01	; 1
    9262:	50 40       	sbci	r21, 0x00	; 0
    9264:	a9 f7       	brne	.-22     	; 0x9250 <__mulsf3_pse+0x64>
    9266:	9e 3f       	cpi	r25, 0xFE	; 254
    9268:	51 05       	cpc	r21, r1
    926a:	70 f0       	brcs	.+28     	; 0x9288 <__mulsf3_pse+0x9c>
    926c:	17 cf       	rjmp	.-466    	; 0x909c <__fp_inf>
    926e:	61 cf       	rjmp	.-318    	; 0x9132 <__fp_szero>
    9270:	5f 3f       	cpi	r21, 0xFF	; 255
    9272:	ec f3       	brlt	.-6      	; 0x926e <__mulsf3_pse+0x82>
    9274:	98 3e       	cpi	r25, 0xE8	; 232
    9276:	dc f3       	brlt	.-10     	; 0x926e <__mulsf3_pse+0x82>
    9278:	86 95       	lsr	r24
    927a:	77 95       	ror	r23
    927c:	67 95       	ror	r22
    927e:	b7 95       	ror	r27
    9280:	f7 95       	ror	r31
    9282:	e7 95       	ror	r30
    9284:	9f 5f       	subi	r25, 0xFF	; 255
    9286:	c1 f7       	brne	.-16     	; 0x9278 <__mulsf3_pse+0x8c>
    9288:	fe 2b       	or	r31, r30
    928a:	88 0f       	add	r24, r24
    928c:	91 1d       	adc	r25, r1
    928e:	96 95       	lsr	r25
    9290:	87 95       	ror	r24
    9292:	97 f9       	bld	r25, 7
    9294:	08 95       	ret

00009296 <pow>:
    9296:	fa 01       	movw	r30, r20
    9298:	ee 0f       	add	r30, r30
    929a:	ff 1f       	adc	r31, r31
    929c:	30 96       	adiw	r30, 0x00	; 0
    929e:	21 05       	cpc	r18, r1
    92a0:	31 05       	cpc	r19, r1
    92a2:	99 f1       	breq	.+102    	; 0x930a <pow+0x74>
    92a4:	61 15       	cp	r22, r1
    92a6:	71 05       	cpc	r23, r1
    92a8:	61 f4       	brne	.+24     	; 0x92c2 <pow+0x2c>
    92aa:	80 38       	cpi	r24, 0x80	; 128
    92ac:	bf e3       	ldi	r27, 0x3F	; 63
    92ae:	9b 07       	cpc	r25, r27
    92b0:	49 f1       	breq	.+82     	; 0x9304 <pow+0x6e>
    92b2:	68 94       	set
    92b4:	90 38       	cpi	r25, 0x80	; 128
    92b6:	81 05       	cpc	r24, r1
    92b8:	61 f0       	breq	.+24     	; 0x92d2 <pow+0x3c>
    92ba:	80 38       	cpi	r24, 0x80	; 128
    92bc:	bf ef       	ldi	r27, 0xFF	; 255
    92be:	9b 07       	cpc	r25, r27
    92c0:	41 f0       	breq	.+16     	; 0x92d2 <pow+0x3c>
    92c2:	99 23       	and	r25, r25
    92c4:	42 f5       	brpl	.+80     	; 0x9316 <pow+0x80>
    92c6:	ff 3f       	cpi	r31, 0xFF	; 255
    92c8:	e1 05       	cpc	r30, r1
    92ca:	31 05       	cpc	r19, r1
    92cc:	21 05       	cpc	r18, r1
    92ce:	11 f1       	breq	.+68     	; 0x9314 <pow+0x7e>
    92d0:	e8 94       	clt
    92d2:	08 94       	sec
    92d4:	e7 95       	ror	r30
    92d6:	d9 01       	movw	r26, r18
    92d8:	aa 23       	and	r26, r26
    92da:	29 f4       	brne	.+10     	; 0x92e6 <pow+0x50>
    92dc:	ab 2f       	mov	r26, r27
    92de:	be 2f       	mov	r27, r30
    92e0:	f8 5f       	subi	r31, 0xF8	; 248
    92e2:	d0 f3       	brcs	.-12     	; 0x92d8 <pow+0x42>
    92e4:	10 c0       	rjmp	.+32     	; 0x9306 <pow+0x70>
    92e6:	ff 5f       	subi	r31, 0xFF	; 255
    92e8:	70 f4       	brcc	.+28     	; 0x9306 <pow+0x70>
    92ea:	a6 95       	lsr	r26
    92ec:	e0 f7       	brcc	.-8      	; 0x92e6 <pow+0x50>
    92ee:	f7 39       	cpi	r31, 0x97	; 151
    92f0:	50 f0       	brcs	.+20     	; 0x9306 <pow+0x70>
    92f2:	19 f0       	breq	.+6      	; 0x92fa <pow+0x64>
    92f4:	ff 3a       	cpi	r31, 0xAF	; 175
    92f6:	38 f4       	brcc	.+14     	; 0x9306 <pow+0x70>
    92f8:	9f 77       	andi	r25, 0x7F	; 127
    92fa:	9f 93       	push	r25
    92fc:	0c d0       	rcall	.+24     	; 0x9316 <pow+0x80>
    92fe:	0f 90       	pop	r0
    9300:	07 fc       	sbrc	r0, 7
    9302:	90 58       	subi	r25, 0x80	; 128
    9304:	08 95       	ret
    9306:	3e f0       	brts	.+14     	; 0x9316 <pow+0x80>
    9308:	cf ce       	rjmp	.-610    	; 0x90a8 <__fp_nan>
    930a:	60 e0       	ldi	r22, 0x00	; 0
    930c:	70 e0       	ldi	r23, 0x00	; 0
    930e:	80 e8       	ldi	r24, 0x80	; 128
    9310:	9f e3       	ldi	r25, 0x3F	; 63
    9312:	08 95       	ret
    9314:	4f e7       	ldi	r20, 0x7F	; 127
    9316:	9f 77       	andi	r25, 0x7F	; 127
    9318:	5f 93       	push	r21
    931a:	4f 93       	push	r20
    931c:	3f 93       	push	r19
    931e:	2f 93       	push	r18
    9320:	17 df       	rcall	.-466    	; 0x9150 <log>
    9322:	2f 91       	pop	r18
    9324:	3f 91       	pop	r19
    9326:	4f 91       	pop	r20
    9328:	5f 91       	pop	r21
    932a:	52 df       	rcall	.-348    	; 0x91d0 <__mulsf3>
    932c:	05 c0       	rjmp	.+10     	; 0x9338 <exp>
    932e:	19 f4       	brne	.+6      	; 0x9336 <pow+0xa0>
    9330:	0e f0       	brts	.+2      	; 0x9334 <pow+0x9e>
    9332:	b4 ce       	rjmp	.-664    	; 0x909c <__fp_inf>
    9334:	fd ce       	rjmp	.-518    	; 0x9130 <__fp_zero>
    9336:	b8 ce       	rjmp	.-656    	; 0x90a8 <__fp_nan>

00009338 <exp>:
    9338:	e1 de       	rcall	.-574    	; 0x90fc <__fp_splitA>
    933a:	c8 f3       	brcs	.-14     	; 0x932e <pow+0x98>
    933c:	96 38       	cpi	r25, 0x86	; 134
    933e:	c0 f7       	brcc	.-16     	; 0x9330 <pow+0x9a>
    9340:	07 f8       	bld	r0, 7
    9342:	0f 92       	push	r0
    9344:	e8 94       	clt
    9346:	2b e3       	ldi	r18, 0x3B	; 59
    9348:	3a ea       	ldi	r19, 0xAA	; 170
    934a:	48 eb       	ldi	r20, 0xB8	; 184
    934c:	5f e7       	ldi	r21, 0x7F	; 127
    934e:	4e df       	rcall	.-356    	; 0x91ec <__mulsf3_pse>
    9350:	0f 92       	push	r0
    9352:	0f 92       	push	r0
    9354:	0f 92       	push	r0
    9356:	4d b7       	in	r20, 0x3d	; 61
    9358:	5e b7       	in	r21, 0x3e	; 62
    935a:	0f 92       	push	r0
    935c:	ad d0       	rcall	.+346    	; 0x94b8 <modf>
    935e:	e2 e1       	ldi	r30, 0x12	; 18
    9360:	f1 e0       	ldi	r31, 0x01	; 1
    9362:	48 d0       	rcall	.+144    	; 0x93f4 <__fp_powser>
    9364:	4f 91       	pop	r20
    9366:	5f 91       	pop	r21
    9368:	ef 91       	pop	r30
    936a:	ff 91       	pop	r31
    936c:	e5 95       	asr	r30
    936e:	ee 1f       	adc	r30, r30
    9370:	ff 1f       	adc	r31, r31
    9372:	49 f0       	breq	.+18     	; 0x9386 <exp+0x4e>
    9374:	fe 57       	subi	r31, 0x7E	; 126
    9376:	e0 68       	ori	r30, 0x80	; 128
    9378:	44 27       	eor	r20, r20
    937a:	ee 0f       	add	r30, r30
    937c:	44 1f       	adc	r20, r20
    937e:	fa 95       	dec	r31
    9380:	e1 f7       	brne	.-8      	; 0x937a <exp+0x42>
    9382:	41 95       	neg	r20
    9384:	55 0b       	sbc	r21, r21
    9386:	64 d0       	rcall	.+200    	; 0x9450 <ldexp>
    9388:	0f 90       	pop	r0
    938a:	07 fe       	sbrs	r0, 7
    938c:	58 c0       	rjmp	.+176    	; 0x943e <inverse>
    938e:	08 95       	ret

00009390 <__fp_cmp>:
    9390:	99 0f       	add	r25, r25
    9392:	00 08       	sbc	r0, r0
    9394:	55 0f       	add	r21, r21
    9396:	aa 0b       	sbc	r26, r26
    9398:	e0 e8       	ldi	r30, 0x80	; 128
    939a:	fe ef       	ldi	r31, 0xFE	; 254
    939c:	16 16       	cp	r1, r22
    939e:	17 06       	cpc	r1, r23
    93a0:	e8 07       	cpc	r30, r24
    93a2:	f9 07       	cpc	r31, r25
    93a4:	c0 f0       	brcs	.+48     	; 0x93d6 <__fp_cmp+0x46>
    93a6:	12 16       	cp	r1, r18
    93a8:	13 06       	cpc	r1, r19
    93aa:	e4 07       	cpc	r30, r20
    93ac:	f5 07       	cpc	r31, r21
    93ae:	98 f0       	brcs	.+38     	; 0x93d6 <__fp_cmp+0x46>
    93b0:	62 1b       	sub	r22, r18
    93b2:	73 0b       	sbc	r23, r19
    93b4:	84 0b       	sbc	r24, r20
    93b6:	95 0b       	sbc	r25, r21
    93b8:	39 f4       	brne	.+14     	; 0x93c8 <__fp_cmp+0x38>
    93ba:	0a 26       	eor	r0, r26
    93bc:	61 f0       	breq	.+24     	; 0x93d6 <__fp_cmp+0x46>
    93be:	23 2b       	or	r18, r19
    93c0:	24 2b       	or	r18, r20
    93c2:	25 2b       	or	r18, r21
    93c4:	21 f4       	brne	.+8      	; 0x93ce <__fp_cmp+0x3e>
    93c6:	08 95       	ret
    93c8:	0a 26       	eor	r0, r26
    93ca:	09 f4       	brne	.+2      	; 0x93ce <__fp_cmp+0x3e>
    93cc:	a1 40       	sbci	r26, 0x01	; 1
    93ce:	a6 95       	lsr	r26
    93d0:	8f ef       	ldi	r24, 0xFF	; 255
    93d2:	81 1d       	adc	r24, r1
    93d4:	81 1d       	adc	r24, r1
    93d6:	08 95       	ret

000093d8 <__fp_mpack>:
    93d8:	9f 3f       	cpi	r25, 0xFF	; 255
    93da:	31 f0       	breq	.+12     	; 0x93e8 <__fp_mpack_finite+0xc>

000093dc <__fp_mpack_finite>:
    93dc:	91 50       	subi	r25, 0x01	; 1
    93de:	20 f4       	brcc	.+8      	; 0x93e8 <__fp_mpack_finite+0xc>
    93e0:	87 95       	ror	r24
    93e2:	77 95       	ror	r23
    93e4:	67 95       	ror	r22
    93e6:	b7 95       	ror	r27
    93e8:	88 0f       	add	r24, r24
    93ea:	91 1d       	adc	r25, r1
    93ec:	96 95       	lsr	r25
    93ee:	87 95       	ror	r24
    93f0:	97 f9       	bld	r25, 7
    93f2:	08 95       	ret

000093f4 <__fp_powser>:
    93f4:	df 93       	push	r29
    93f6:	cf 93       	push	r28
    93f8:	1f 93       	push	r17
    93fa:	0f 93       	push	r16
    93fc:	ff 92       	push	r15
    93fe:	ef 92       	push	r14
    9400:	df 92       	push	r13
    9402:	7b 01       	movw	r14, r22
    9404:	8c 01       	movw	r16, r24
    9406:	68 94       	set
    9408:	05 c0       	rjmp	.+10     	; 0x9414 <__fp_powser+0x20>
    940a:	da 2e       	mov	r13, r26
    940c:	ef 01       	movw	r28, r30
    940e:	ec de       	rcall	.-552    	; 0x91e8 <__mulsf3x>
    9410:	fe 01       	movw	r30, r28
    9412:	e8 94       	clt
    9414:	a5 91       	lpm	r26, Z+
    9416:	25 91       	lpm	r18, Z+
    9418:	35 91       	lpm	r19, Z+
    941a:	45 91       	lpm	r20, Z+
    941c:	55 91       	lpm	r21, Z+
    941e:	ae f3       	brts	.-22     	; 0x940a <__fp_powser+0x16>
    9420:	ef 01       	movw	r28, r30
    9422:	18 dd       	rcall	.-1488   	; 0x8e54 <__addsf3x>
    9424:	fe 01       	movw	r30, r28
    9426:	97 01       	movw	r18, r14
    9428:	a8 01       	movw	r20, r16
    942a:	da 94       	dec	r13
    942c:	79 f7       	brne	.-34     	; 0x940c <__fp_powser+0x18>
    942e:	df 90       	pop	r13
    9430:	ef 90       	pop	r14
    9432:	ff 90       	pop	r15
    9434:	0f 91       	pop	r16
    9436:	1f 91       	pop	r17
    9438:	cf 91       	pop	r28
    943a:	df 91       	pop	r29
    943c:	08 95       	ret

0000943e <inverse>:
    943e:	9b 01       	movw	r18, r22
    9440:	ac 01       	movw	r20, r24
    9442:	60 e0       	ldi	r22, 0x00	; 0
    9444:	70 e0       	ldi	r23, 0x00	; 0
    9446:	80 e8       	ldi	r24, 0x80	; 128
    9448:	9f e3       	ldi	r25, 0x3F	; 63
    944a:	57 cd       	rjmp	.-1362   	; 0x8efa <__divsf3>
    944c:	27 ce       	rjmp	.-946    	; 0x909c <__fp_inf>
    944e:	c4 cf       	rjmp	.-120    	; 0x93d8 <__fp_mpack>

00009450 <ldexp>:
    9450:	55 de       	rcall	.-854    	; 0x90fc <__fp_splitA>
    9452:	e8 f3       	brcs	.-6      	; 0x944e <inverse+0x10>
    9454:	99 23       	and	r25, r25
    9456:	d9 f3       	breq	.-10     	; 0x944e <inverse+0x10>
    9458:	94 0f       	add	r25, r20
    945a:	51 1d       	adc	r21, r1
    945c:	bb f3       	brvs	.-18     	; 0x944c <inverse+0xe>
    945e:	91 50       	subi	r25, 0x01	; 1
    9460:	50 40       	sbci	r21, 0x00	; 0
    9462:	94 f0       	brlt	.+36     	; 0x9488 <ldexp+0x38>
    9464:	59 f0       	breq	.+22     	; 0x947c <ldexp+0x2c>
    9466:	88 23       	and	r24, r24
    9468:	32 f0       	brmi	.+12     	; 0x9476 <ldexp+0x26>
    946a:	66 0f       	add	r22, r22
    946c:	77 1f       	adc	r23, r23
    946e:	88 1f       	adc	r24, r24
    9470:	91 50       	subi	r25, 0x01	; 1
    9472:	50 40       	sbci	r21, 0x00	; 0
    9474:	c1 f7       	brne	.-16     	; 0x9466 <ldexp+0x16>
    9476:	9e 3f       	cpi	r25, 0xFE	; 254
    9478:	51 05       	cpc	r21, r1
    947a:	44 f7       	brge	.-48     	; 0x944c <inverse+0xe>
    947c:	88 0f       	add	r24, r24
    947e:	91 1d       	adc	r25, r1
    9480:	96 95       	lsr	r25
    9482:	87 95       	ror	r24
    9484:	97 f9       	bld	r25, 7
    9486:	08 95       	ret
    9488:	5f 3f       	cpi	r21, 0xFF	; 255
    948a:	ac f0       	brlt	.+42     	; 0x94b6 <ldexp+0x66>
    948c:	98 3e       	cpi	r25, 0xE8	; 232
    948e:	9c f0       	brlt	.+38     	; 0x94b6 <ldexp+0x66>
    9490:	bb 27       	eor	r27, r27
    9492:	86 95       	lsr	r24
    9494:	77 95       	ror	r23
    9496:	67 95       	ror	r22
    9498:	b7 95       	ror	r27
    949a:	08 f4       	brcc	.+2      	; 0x949e <ldexp+0x4e>
    949c:	b1 60       	ori	r27, 0x01	; 1
    949e:	93 95       	inc	r25
    94a0:	c1 f7       	brne	.-16     	; 0x9492 <ldexp+0x42>
    94a2:	bb 0f       	add	r27, r27
    94a4:	58 f7       	brcc	.-42     	; 0x947c <ldexp+0x2c>
    94a6:	11 f4       	brne	.+4      	; 0x94ac <ldexp+0x5c>
    94a8:	60 ff       	sbrs	r22, 0
    94aa:	e8 cf       	rjmp	.-48     	; 0x947c <ldexp+0x2c>
    94ac:	6f 5f       	subi	r22, 0xFF	; 255
    94ae:	7f 4f       	sbci	r23, 0xFF	; 255
    94b0:	8f 4f       	sbci	r24, 0xFF	; 255
    94b2:	9f 4f       	sbci	r25, 0xFF	; 255
    94b4:	e3 cf       	rjmp	.-58     	; 0x947c <ldexp+0x2c>
    94b6:	3d ce       	rjmp	.-902    	; 0x9132 <__fp_szero>

000094b8 <modf>:
    94b8:	fa 01       	movw	r30, r20
    94ba:	dc 01       	movw	r26, r24
    94bc:	aa 0f       	add	r26, r26
    94be:	bb 1f       	adc	r27, r27
    94c0:	9b 01       	movw	r18, r22
    94c2:	ac 01       	movw	r20, r24
    94c4:	bf 57       	subi	r27, 0x7F	; 127
    94c6:	28 f4       	brcc	.+10     	; 0x94d2 <modf+0x1a>
    94c8:	22 27       	eor	r18, r18
    94ca:	33 27       	eor	r19, r19
    94cc:	44 27       	eor	r20, r20
    94ce:	50 78       	andi	r21, 0x80	; 128
    94d0:	1f c0       	rjmp	.+62     	; 0x9510 <modf+0x58>
    94d2:	b7 51       	subi	r27, 0x17	; 23
    94d4:	88 f4       	brcc	.+34     	; 0x94f8 <modf+0x40>
    94d6:	ab 2f       	mov	r26, r27
    94d8:	00 24       	eor	r0, r0
    94da:	46 95       	lsr	r20
    94dc:	37 95       	ror	r19
    94de:	27 95       	ror	r18
    94e0:	01 1c       	adc	r0, r1
    94e2:	a3 95       	inc	r26
    94e4:	d2 f3       	brmi	.-12     	; 0x94da <modf+0x22>
    94e6:	00 20       	and	r0, r0
    94e8:	69 f0       	breq	.+26     	; 0x9504 <modf+0x4c>
    94ea:	22 0f       	add	r18, r18
    94ec:	33 1f       	adc	r19, r19
    94ee:	44 1f       	adc	r20, r20
    94f0:	b3 95       	inc	r27
    94f2:	da f3       	brmi	.-10     	; 0x94ea <modf+0x32>
    94f4:	0d d0       	rcall	.+26     	; 0x9510 <modf+0x58>
    94f6:	9c cc       	rjmp	.-1736   	; 0x8e30 <__subsf3>
    94f8:	61 30       	cpi	r22, 0x01	; 1
    94fa:	71 05       	cpc	r23, r1
    94fc:	a0 e8       	ldi	r26, 0x80	; 128
    94fe:	8a 07       	cpc	r24, r26
    9500:	b9 46       	sbci	r27, 0x69	; 105
    9502:	30 f4       	brcc	.+12     	; 0x9510 <modf+0x58>
    9504:	9b 01       	movw	r18, r22
    9506:	ac 01       	movw	r20, r24
    9508:	66 27       	eor	r22, r22
    950a:	77 27       	eor	r23, r23
    950c:	88 27       	eor	r24, r24
    950e:	90 78       	andi	r25, 0x80	; 128
    9510:	30 96       	adiw	r30, 0x00	; 0
    9512:	21 f0       	breq	.+8      	; 0x951c <modf+0x64>
    9514:	20 83       	st	Z, r18
    9516:	31 83       	std	Z+1, r19	; 0x01
    9518:	42 83       	std	Z+2, r20	; 0x02
    951a:	53 83       	std	Z+3, r21	; 0x03
    951c:	08 95       	ret

0000951e <__mulsi3>:
    951e:	62 9f       	mul	r22, r18
    9520:	d0 01       	movw	r26, r0
    9522:	73 9f       	mul	r23, r19
    9524:	f0 01       	movw	r30, r0
    9526:	82 9f       	mul	r24, r18
    9528:	e0 0d       	add	r30, r0
    952a:	f1 1d       	adc	r31, r1
    952c:	64 9f       	mul	r22, r20
    952e:	e0 0d       	add	r30, r0
    9530:	f1 1d       	adc	r31, r1
    9532:	92 9f       	mul	r25, r18
    9534:	f0 0d       	add	r31, r0
    9536:	83 9f       	mul	r24, r19
    9538:	f0 0d       	add	r31, r0
    953a:	74 9f       	mul	r23, r20
    953c:	f0 0d       	add	r31, r0
    953e:	65 9f       	mul	r22, r21
    9540:	f0 0d       	add	r31, r0
    9542:	99 27       	eor	r25, r25
    9544:	72 9f       	mul	r23, r18
    9546:	b0 0d       	add	r27, r0
    9548:	e1 1d       	adc	r30, r1
    954a:	f9 1f       	adc	r31, r25
    954c:	63 9f       	mul	r22, r19
    954e:	b0 0d       	add	r27, r0
    9550:	e1 1d       	adc	r30, r1
    9552:	f9 1f       	adc	r31, r25
    9554:	bd 01       	movw	r22, r26
    9556:	cf 01       	movw	r24, r30
    9558:	11 24       	eor	r1, r1
    955a:	08 95       	ret

0000955c <__udivmodhi4>:
    955c:	aa 1b       	sub	r26, r26
    955e:	bb 1b       	sub	r27, r27
    9560:	51 e1       	ldi	r21, 0x11	; 17
    9562:	07 c0       	rjmp	.+14     	; 0x9572 <__udivmodhi4_ep>

00009564 <__udivmodhi4_loop>:
    9564:	aa 1f       	adc	r26, r26
    9566:	bb 1f       	adc	r27, r27
    9568:	a6 17       	cp	r26, r22
    956a:	b7 07       	cpc	r27, r23
    956c:	10 f0       	brcs	.+4      	; 0x9572 <__udivmodhi4_ep>
    956e:	a6 1b       	sub	r26, r22
    9570:	b7 0b       	sbc	r27, r23

00009572 <__udivmodhi4_ep>:
    9572:	88 1f       	adc	r24, r24
    9574:	99 1f       	adc	r25, r25
    9576:	5a 95       	dec	r21
    9578:	a9 f7       	brne	.-22     	; 0x9564 <__udivmodhi4_loop>
    957a:	80 95       	com	r24
    957c:	90 95       	com	r25
    957e:	bc 01       	movw	r22, r24
    9580:	cd 01       	movw	r24, r26
    9582:	08 95       	ret

00009584 <__udivmodsi4>:
    9584:	a1 e2       	ldi	r26, 0x21	; 33
    9586:	1a 2e       	mov	r1, r26
    9588:	aa 1b       	sub	r26, r26
    958a:	bb 1b       	sub	r27, r27
    958c:	fd 01       	movw	r30, r26
    958e:	0d c0       	rjmp	.+26     	; 0x95aa <__udivmodsi4_ep>

00009590 <__udivmodsi4_loop>:
    9590:	aa 1f       	adc	r26, r26
    9592:	bb 1f       	adc	r27, r27
    9594:	ee 1f       	adc	r30, r30
    9596:	ff 1f       	adc	r31, r31
    9598:	a2 17       	cp	r26, r18
    959a:	b3 07       	cpc	r27, r19
    959c:	e4 07       	cpc	r30, r20
    959e:	f5 07       	cpc	r31, r21
    95a0:	20 f0       	brcs	.+8      	; 0x95aa <__udivmodsi4_ep>
    95a2:	a2 1b       	sub	r26, r18
    95a4:	b3 0b       	sbc	r27, r19
    95a6:	e4 0b       	sbc	r30, r20
    95a8:	f5 0b       	sbc	r31, r21

000095aa <__udivmodsi4_ep>:
    95aa:	66 1f       	adc	r22, r22
    95ac:	77 1f       	adc	r23, r23
    95ae:	88 1f       	adc	r24, r24
    95b0:	99 1f       	adc	r25, r25
    95b2:	1a 94       	dec	r1
    95b4:	69 f7       	brne	.-38     	; 0x9590 <__udivmodsi4_loop>
    95b6:	60 95       	com	r22
    95b8:	70 95       	com	r23
    95ba:	80 95       	com	r24
    95bc:	90 95       	com	r25
    95be:	9b 01       	movw	r18, r22
    95c0:	ac 01       	movw	r20, r24
    95c2:	bd 01       	movw	r22, r26
    95c4:	cf 01       	movw	r24, r30
    95c6:	08 95       	ret

000095c8 <__prologue_saves__>:
    95c8:	2f 92       	push	r2
    95ca:	3f 92       	push	r3
    95cc:	4f 92       	push	r4
    95ce:	5f 92       	push	r5
    95d0:	6f 92       	push	r6
    95d2:	7f 92       	push	r7
    95d4:	8f 92       	push	r8
    95d6:	9f 92       	push	r9
    95d8:	af 92       	push	r10
    95da:	bf 92       	push	r11
    95dc:	cf 92       	push	r12
    95de:	df 92       	push	r13
    95e0:	ef 92       	push	r14
    95e2:	ff 92       	push	r15
    95e4:	0f 93       	push	r16
    95e6:	1f 93       	push	r17
    95e8:	cf 93       	push	r28
    95ea:	df 93       	push	r29
    95ec:	cd b7       	in	r28, 0x3d	; 61
    95ee:	de b7       	in	r29, 0x3e	; 62
    95f0:	ca 1b       	sub	r28, r26
    95f2:	db 0b       	sbc	r29, r27
    95f4:	0f b6       	in	r0, 0x3f	; 63
    95f6:	f8 94       	cli
    95f8:	de bf       	out	0x3e, r29	; 62
    95fa:	0f be       	out	0x3f, r0	; 63
    95fc:	cd bf       	out	0x3d, r28	; 61
    95fe:	09 94       	ijmp

00009600 <__epilogue_restores__>:
    9600:	2a 88       	ldd	r2, Y+18	; 0x12
    9602:	39 88       	ldd	r3, Y+17	; 0x11
    9604:	48 88       	ldd	r4, Y+16	; 0x10
    9606:	5f 84       	ldd	r5, Y+15	; 0x0f
    9608:	6e 84       	ldd	r6, Y+14	; 0x0e
    960a:	7d 84       	ldd	r7, Y+13	; 0x0d
    960c:	8c 84       	ldd	r8, Y+12	; 0x0c
    960e:	9b 84       	ldd	r9, Y+11	; 0x0b
    9610:	aa 84       	ldd	r10, Y+10	; 0x0a
    9612:	b9 84       	ldd	r11, Y+9	; 0x09
    9614:	c8 84       	ldd	r12, Y+8	; 0x08
    9616:	df 80       	ldd	r13, Y+7	; 0x07
    9618:	ee 80       	ldd	r14, Y+6	; 0x06
    961a:	fd 80       	ldd	r15, Y+5	; 0x05
    961c:	0c 81       	ldd	r16, Y+4	; 0x04
    961e:	1b 81       	ldd	r17, Y+3	; 0x03
    9620:	aa 81       	ldd	r26, Y+2	; 0x02
    9622:	b9 81       	ldd	r27, Y+1	; 0x01
    9624:	ce 0f       	add	r28, r30
    9626:	d1 1d       	adc	r29, r1
    9628:	0f b6       	in	r0, 0x3f	; 63
    962a:	f8 94       	cli
    962c:	de bf       	out	0x3e, r29	; 62
    962e:	0f be       	out	0x3f, r0	; 63
    9630:	cd bf       	out	0x3d, r28	; 61
    9632:	ed 01       	movw	r28, r26
    9634:	08 95       	ret

00009636 <__ftoa_engine>:
    9636:	28 30       	cpi	r18, 0x08	; 8
    9638:	08 f0       	brcs	.+2      	; 0x963c <__ftoa_engine+0x6>
    963a:	27 e0       	ldi	r18, 0x07	; 7
    963c:	33 27       	eor	r19, r19
    963e:	da 01       	movw	r26, r20
    9640:	99 0f       	add	r25, r25
    9642:	31 1d       	adc	r19, r1
    9644:	87 fd       	sbrc	r24, 7
    9646:	91 60       	ori	r25, 0x01	; 1
    9648:	00 96       	adiw	r24, 0x00	; 0
    964a:	61 05       	cpc	r22, r1
    964c:	71 05       	cpc	r23, r1
    964e:	39 f4       	brne	.+14     	; 0x965e <__ftoa_engine+0x28>
    9650:	32 60       	ori	r19, 0x02	; 2
    9652:	2e 5f       	subi	r18, 0xFE	; 254
    9654:	3d 93       	st	X+, r19
    9656:	30 e3       	ldi	r19, 0x30	; 48
    9658:	2a 95       	dec	r18
    965a:	e1 f7       	brne	.-8      	; 0x9654 <__ftoa_engine+0x1e>
    965c:	08 95       	ret
    965e:	9f 3f       	cpi	r25, 0xFF	; 255
    9660:	30 f0       	brcs	.+12     	; 0x966e <__ftoa_engine+0x38>
    9662:	80 38       	cpi	r24, 0x80	; 128
    9664:	71 05       	cpc	r23, r1
    9666:	61 05       	cpc	r22, r1
    9668:	09 f0       	breq	.+2      	; 0x966c <__ftoa_engine+0x36>
    966a:	3c 5f       	subi	r19, 0xFC	; 252
    966c:	3c 5f       	subi	r19, 0xFC	; 252
    966e:	3d 93       	st	X+, r19
    9670:	91 30       	cpi	r25, 0x01	; 1
    9672:	08 f0       	brcs	.+2      	; 0x9676 <__ftoa_engine+0x40>
    9674:	80 68       	ori	r24, 0x80	; 128
    9676:	91 1d       	adc	r25, r1
    9678:	df 93       	push	r29
    967a:	cf 93       	push	r28
    967c:	1f 93       	push	r17
    967e:	0f 93       	push	r16
    9680:	ff 92       	push	r15
    9682:	ef 92       	push	r14
    9684:	19 2f       	mov	r17, r25
    9686:	98 7f       	andi	r25, 0xF8	; 248
    9688:	96 95       	lsr	r25
    968a:	e9 2f       	mov	r30, r25
    968c:	96 95       	lsr	r25
    968e:	96 95       	lsr	r25
    9690:	e9 0f       	add	r30, r25
    9692:	ff 27       	eor	r31, r31
    9694:	e1 53       	subi	r30, 0x31	; 49
    9696:	f6 4f       	sbci	r31, 0xF6	; 246
    9698:	99 27       	eor	r25, r25
    969a:	33 27       	eor	r19, r19
    969c:	ee 24       	eor	r14, r14
    969e:	ff 24       	eor	r15, r15
    96a0:	a7 01       	movw	r20, r14
    96a2:	e7 01       	movw	r28, r14
    96a4:	05 90       	lpm	r0, Z+
    96a6:	08 94       	sec
    96a8:	07 94       	ror	r0
    96aa:	28 f4       	brcc	.+10     	; 0x96b6 <__ftoa_engine+0x80>
    96ac:	36 0f       	add	r19, r22
    96ae:	e7 1e       	adc	r14, r23
    96b0:	f8 1e       	adc	r15, r24
    96b2:	49 1f       	adc	r20, r25
    96b4:	51 1d       	adc	r21, r1
    96b6:	66 0f       	add	r22, r22
    96b8:	77 1f       	adc	r23, r23
    96ba:	88 1f       	adc	r24, r24
    96bc:	99 1f       	adc	r25, r25
    96be:	06 94       	lsr	r0
    96c0:	a1 f7       	brne	.-24     	; 0x96aa <__ftoa_engine+0x74>
    96c2:	05 90       	lpm	r0, Z+
    96c4:	07 94       	ror	r0
    96c6:	28 f4       	brcc	.+10     	; 0x96d2 <__ftoa_engine+0x9c>
    96c8:	e7 0e       	add	r14, r23
    96ca:	f8 1e       	adc	r15, r24
    96cc:	49 1f       	adc	r20, r25
    96ce:	56 1f       	adc	r21, r22
    96d0:	c1 1d       	adc	r28, r1
    96d2:	77 0f       	add	r23, r23
    96d4:	88 1f       	adc	r24, r24
    96d6:	99 1f       	adc	r25, r25
    96d8:	66 1f       	adc	r22, r22
    96da:	06 94       	lsr	r0
    96dc:	a1 f7       	brne	.-24     	; 0x96c6 <__ftoa_engine+0x90>
    96de:	05 90       	lpm	r0, Z+
    96e0:	07 94       	ror	r0
    96e2:	28 f4       	brcc	.+10     	; 0x96ee <__ftoa_engine+0xb8>
    96e4:	f8 0e       	add	r15, r24
    96e6:	49 1f       	adc	r20, r25
    96e8:	56 1f       	adc	r21, r22
    96ea:	c7 1f       	adc	r28, r23
    96ec:	d1 1d       	adc	r29, r1
    96ee:	88 0f       	add	r24, r24
    96f0:	99 1f       	adc	r25, r25
    96f2:	66 1f       	adc	r22, r22
    96f4:	77 1f       	adc	r23, r23
    96f6:	06 94       	lsr	r0
    96f8:	a1 f7       	brne	.-24     	; 0x96e2 <__ftoa_engine+0xac>
    96fa:	05 90       	lpm	r0, Z+
    96fc:	07 94       	ror	r0
    96fe:	20 f4       	brcc	.+8      	; 0x9708 <__ftoa_engine+0xd2>
    9700:	49 0f       	add	r20, r25
    9702:	56 1f       	adc	r21, r22
    9704:	c7 1f       	adc	r28, r23
    9706:	d8 1f       	adc	r29, r24
    9708:	99 0f       	add	r25, r25
    970a:	66 1f       	adc	r22, r22
    970c:	77 1f       	adc	r23, r23
    970e:	88 1f       	adc	r24, r24
    9710:	06 94       	lsr	r0
    9712:	a9 f7       	brne	.-22     	; 0x96fe <__ftoa_engine+0xc8>
    9714:	84 91       	lpm	r24, Z+
    9716:	10 95       	com	r17
    9718:	17 70       	andi	r17, 0x07	; 7
    971a:	41 f0       	breq	.+16     	; 0x972c <__ftoa_engine+0xf6>
    971c:	d6 95       	lsr	r29
    971e:	c7 95       	ror	r28
    9720:	57 95       	ror	r21
    9722:	47 95       	ror	r20
    9724:	f7 94       	ror	r15
    9726:	e7 94       	ror	r14
    9728:	1a 95       	dec	r17
    972a:	c1 f7       	brne	.-16     	; 0x971c <__ftoa_engine+0xe6>
    972c:	e5 e7       	ldi	r30, 0x75	; 117
    972e:	f9 e0       	ldi	r31, 0x09	; 9
    9730:	68 94       	set
    9732:	15 90       	lpm	r1, Z+
    9734:	15 91       	lpm	r17, Z+
    9736:	35 91       	lpm	r19, Z+
    9738:	65 91       	lpm	r22, Z+
    973a:	95 91       	lpm	r25, Z+
    973c:	05 90       	lpm	r0, Z+
    973e:	7f e2       	ldi	r23, 0x2F	; 47
    9740:	73 95       	inc	r23
    9742:	e1 18       	sub	r14, r1
    9744:	f1 0a       	sbc	r15, r17
    9746:	43 0b       	sbc	r20, r19
    9748:	56 0b       	sbc	r21, r22
    974a:	c9 0b       	sbc	r28, r25
    974c:	d0 09       	sbc	r29, r0
    974e:	c0 f7       	brcc	.-16     	; 0x9740 <__ftoa_engine+0x10a>
    9750:	e1 0c       	add	r14, r1
    9752:	f1 1e       	adc	r15, r17
    9754:	43 1f       	adc	r20, r19
    9756:	56 1f       	adc	r21, r22
    9758:	c9 1f       	adc	r28, r25
    975a:	d0 1d       	adc	r29, r0
    975c:	7e f4       	brtc	.+30     	; 0x977c <__ftoa_engine+0x146>
    975e:	70 33       	cpi	r23, 0x30	; 48
    9760:	11 f4       	brne	.+4      	; 0x9766 <__ftoa_engine+0x130>
    9762:	8a 95       	dec	r24
    9764:	e6 cf       	rjmp	.-52     	; 0x9732 <__ftoa_engine+0xfc>
    9766:	e8 94       	clt
    9768:	01 50       	subi	r16, 0x01	; 1
    976a:	30 f0       	brcs	.+12     	; 0x9778 <__ftoa_engine+0x142>
    976c:	08 0f       	add	r16, r24
    976e:	0a f4       	brpl	.+2      	; 0x9772 <__ftoa_engine+0x13c>
    9770:	00 27       	eor	r16, r16
    9772:	02 17       	cp	r16, r18
    9774:	08 f4       	brcc	.+2      	; 0x9778 <__ftoa_engine+0x142>
    9776:	20 2f       	mov	r18, r16
    9778:	23 95       	inc	r18
    977a:	02 2f       	mov	r16, r18
    977c:	7a 33       	cpi	r23, 0x3A	; 58
    977e:	28 f0       	brcs	.+10     	; 0x978a <__ftoa_engine+0x154>
    9780:	79 e3       	ldi	r23, 0x39	; 57
    9782:	7d 93       	st	X+, r23
    9784:	2a 95       	dec	r18
    9786:	e9 f7       	brne	.-6      	; 0x9782 <__ftoa_engine+0x14c>
    9788:	10 c0       	rjmp	.+32     	; 0x97aa <__ftoa_engine+0x174>
    978a:	7d 93       	st	X+, r23
    978c:	2a 95       	dec	r18
    978e:	89 f6       	brne	.-94     	; 0x9732 <__ftoa_engine+0xfc>
    9790:	06 94       	lsr	r0
    9792:	97 95       	ror	r25
    9794:	67 95       	ror	r22
    9796:	37 95       	ror	r19
    9798:	17 95       	ror	r17
    979a:	17 94       	ror	r1
    979c:	e1 18       	sub	r14, r1
    979e:	f1 0a       	sbc	r15, r17
    97a0:	43 0b       	sbc	r20, r19
    97a2:	56 0b       	sbc	r21, r22
    97a4:	c9 0b       	sbc	r28, r25
    97a6:	d0 09       	sbc	r29, r0
    97a8:	98 f0       	brcs	.+38     	; 0x97d0 <__ftoa_engine+0x19a>
    97aa:	23 95       	inc	r18
    97ac:	7e 91       	ld	r23, -X
    97ae:	73 95       	inc	r23
    97b0:	7a 33       	cpi	r23, 0x3A	; 58
    97b2:	08 f0       	brcs	.+2      	; 0x97b6 <__ftoa_engine+0x180>
    97b4:	70 e3       	ldi	r23, 0x30	; 48
    97b6:	7c 93       	st	X, r23
    97b8:	20 13       	cpse	r18, r16
    97ba:	b8 f7       	brcc	.-18     	; 0x97aa <__ftoa_engine+0x174>
    97bc:	7e 91       	ld	r23, -X
    97be:	70 61       	ori	r23, 0x10	; 16
    97c0:	7d 93       	st	X+, r23
    97c2:	30 f0       	brcs	.+12     	; 0x97d0 <__ftoa_engine+0x19a>
    97c4:	83 95       	inc	r24
    97c6:	71 e3       	ldi	r23, 0x31	; 49
    97c8:	7d 93       	st	X+, r23
    97ca:	70 e3       	ldi	r23, 0x30	; 48
    97cc:	2a 95       	dec	r18
    97ce:	e1 f7       	brne	.-8      	; 0x97c8 <__ftoa_engine+0x192>
    97d0:	11 24       	eor	r1, r1
    97d2:	ef 90       	pop	r14
    97d4:	ff 90       	pop	r15
    97d6:	0f 91       	pop	r16
    97d8:	1f 91       	pop	r17
    97da:	cf 91       	pop	r28
    97dc:	df 91       	pop	r29
    97de:	99 27       	eor	r25, r25
    97e0:	87 fd       	sbrc	r24, 7
    97e2:	90 95       	com	r25
    97e4:	08 95       	ret

000097e6 <strnlen_P>:
    97e6:	fc 01       	movw	r30, r24
    97e8:	05 90       	lpm	r0, Z+
    97ea:	61 50       	subi	r22, 0x01	; 1
    97ec:	70 40       	sbci	r23, 0x00	; 0
    97ee:	01 10       	cpse	r0, r1
    97f0:	d8 f7       	brcc	.-10     	; 0x97e8 <strnlen_P+0x2>
    97f2:	80 95       	com	r24
    97f4:	90 95       	com	r25
    97f6:	8e 0f       	add	r24, r30
    97f8:	9f 1f       	adc	r25, r31
    97fa:	08 95       	ret

000097fc <strnlen>:
    97fc:	fc 01       	movw	r30, r24
    97fe:	61 50       	subi	r22, 0x01	; 1
    9800:	70 40       	sbci	r23, 0x00	; 0
    9802:	01 90       	ld	r0, Z+
    9804:	01 10       	cpse	r0, r1
    9806:	d8 f7       	brcc	.-10     	; 0x97fe <strnlen+0x2>
    9808:	80 95       	com	r24
    980a:	90 95       	com	r25
    980c:	8e 0f       	add	r24, r30
    980e:	9f 1f       	adc	r25, r31
    9810:	08 95       	ret

00009812 <fdevopen>:
    9812:	0f 93       	push	r16
    9814:	1f 93       	push	r17
    9816:	cf 93       	push	r28
    9818:	df 93       	push	r29
    981a:	8c 01       	movw	r16, r24
    981c:	eb 01       	movw	r28, r22
    981e:	00 97       	sbiw	r24, 0x00	; 0
    9820:	31 f4       	brne	.+12     	; 0x982e <fdevopen+0x1c>
    9822:	61 15       	cp	r22, r1
    9824:	71 05       	cpc	r23, r1
    9826:	19 f4       	brne	.+6      	; 0x982e <fdevopen+0x1c>
    9828:	20 e0       	ldi	r18, 0x00	; 0
    982a:	30 e0       	ldi	r19, 0x00	; 0
    982c:	38 c0       	rjmp	.+112    	; 0x989e <fdevopen+0x8c>
    982e:	81 e0       	ldi	r24, 0x01	; 1
    9830:	90 e0       	ldi	r25, 0x00	; 0
    9832:	6e e0       	ldi	r22, 0x0E	; 14
    9834:	70 e0       	ldi	r23, 0x00	; 0
    9836:	0e 94 79 4d 	call	0x9af2	; 0x9af2 <calloc>
    983a:	fc 01       	movw	r30, r24
    983c:	9c 01       	movw	r18, r24
    983e:	00 97       	sbiw	r24, 0x00	; 0
    9840:	71 f1       	breq	.+92     	; 0x989e <fdevopen+0x8c>
    9842:	80 e8       	ldi	r24, 0x80	; 128
    9844:	83 83       	std	Z+3, r24	; 0x03
    9846:	20 97       	sbiw	r28, 0x00	; 0
    9848:	71 f0       	breq	.+28     	; 0x9866 <fdevopen+0x54>
    984a:	d3 87       	std	Z+11, r29	; 0x0b
    984c:	c2 87       	std	Z+10, r28	; 0x0a
    984e:	81 e8       	ldi	r24, 0x81	; 129
    9850:	83 83       	std	Z+3, r24	; 0x03
    9852:	80 91 a5 08 	lds	r24, 0x08A5
    9856:	90 91 a6 08 	lds	r25, 0x08A6
    985a:	89 2b       	or	r24, r25
    985c:	21 f4       	brne	.+8      	; 0x9866 <fdevopen+0x54>
    985e:	f0 93 a6 08 	sts	0x08A6, r31
    9862:	e0 93 a5 08 	sts	0x08A5, r30
    9866:	01 15       	cp	r16, r1
    9868:	11 05       	cpc	r17, r1
    986a:	c9 f0       	breq	.+50     	; 0x989e <fdevopen+0x8c>
    986c:	11 87       	std	Z+9, r17	; 0x09
    986e:	00 87       	std	Z+8, r16	; 0x08
    9870:	83 81       	ldd	r24, Z+3	; 0x03
    9872:	82 60       	ori	r24, 0x02	; 2
    9874:	83 83       	std	Z+3, r24	; 0x03
    9876:	80 91 a7 08 	lds	r24, 0x08A7
    987a:	90 91 a8 08 	lds	r25, 0x08A8
    987e:	89 2b       	or	r24, r25
    9880:	71 f4       	brne	.+28     	; 0x989e <fdevopen+0x8c>
    9882:	f0 93 a8 08 	sts	0x08A8, r31
    9886:	e0 93 a7 08 	sts	0x08A7, r30
    988a:	80 91 a9 08 	lds	r24, 0x08A9
    988e:	90 91 aa 08 	lds	r25, 0x08AA
    9892:	89 2b       	or	r24, r25
    9894:	21 f4       	brne	.+8      	; 0x989e <fdevopen+0x8c>
    9896:	f0 93 aa 08 	sts	0x08AA, r31
    989a:	e0 93 a9 08 	sts	0x08A9, r30
    989e:	c9 01       	movw	r24, r18
    98a0:	df 91       	pop	r29
    98a2:	cf 91       	pop	r28
    98a4:	1f 91       	pop	r17
    98a6:	0f 91       	pop	r16
    98a8:	08 95       	ret

000098aa <fgetc>:
    98aa:	cf 93       	push	r28
    98ac:	df 93       	push	r29
    98ae:	ec 01       	movw	r28, r24
    98b0:	4b 81       	ldd	r20, Y+3	; 0x03
    98b2:	40 ff       	sbrs	r20, 0
    98b4:	1a c0       	rjmp	.+52     	; 0x98ea <fgetc+0x40>
    98b6:	46 ff       	sbrs	r20, 6
    98b8:	0a c0       	rjmp	.+20     	; 0x98ce <fgetc+0x24>
    98ba:	4f 7b       	andi	r20, 0xBF	; 191
    98bc:	4b 83       	std	Y+3, r20	; 0x03
    98be:	8e 81       	ldd	r24, Y+6	; 0x06
    98c0:	9f 81       	ldd	r25, Y+7	; 0x07
    98c2:	01 96       	adiw	r24, 0x01	; 1
    98c4:	9f 83       	std	Y+7, r25	; 0x07
    98c6:	8e 83       	std	Y+6, r24	; 0x06
    98c8:	8a 81       	ldd	r24, Y+2	; 0x02
    98ca:	28 2f       	mov	r18, r24
    98cc:	2b c0       	rjmp	.+86     	; 0x9924 <fgetc+0x7a>
    98ce:	42 ff       	sbrs	r20, 2
    98d0:	13 c0       	rjmp	.+38     	; 0x98f8 <fgetc+0x4e>
    98d2:	e8 81       	ld	r30, Y
    98d4:	f9 81       	ldd	r31, Y+1	; 0x01
    98d6:	80 81       	ld	r24, Z
    98d8:	28 2f       	mov	r18, r24
    98da:	33 27       	eor	r19, r19
    98dc:	27 fd       	sbrc	r18, 7
    98de:	30 95       	com	r19
    98e0:	21 15       	cp	r18, r1
    98e2:	31 05       	cpc	r19, r1
    98e4:	29 f4       	brne	.+10     	; 0x98f0 <fgetc+0x46>
    98e6:	40 62       	ori	r20, 0x20	; 32
    98e8:	4b 83       	std	Y+3, r20	; 0x03
    98ea:	2f ef       	ldi	r18, 0xFF	; 255
    98ec:	3f ef       	ldi	r19, 0xFF	; 255
    98ee:	1b c0       	rjmp	.+54     	; 0x9926 <fgetc+0x7c>
    98f0:	31 96       	adiw	r30, 0x01	; 1
    98f2:	f9 83       	std	Y+1, r31	; 0x01
    98f4:	e8 83       	st	Y, r30
    98f6:	11 c0       	rjmp	.+34     	; 0x991a <fgetc+0x70>
    98f8:	ea 85       	ldd	r30, Y+10	; 0x0a
    98fa:	fb 85       	ldd	r31, Y+11	; 0x0b
    98fc:	ce 01       	movw	r24, r28
    98fe:	09 95       	icall
    9900:	9c 01       	movw	r18, r24
    9902:	97 ff       	sbrs	r25, 7
    9904:	0a c0       	rjmp	.+20     	; 0x991a <fgetc+0x70>
    9906:	9b 81       	ldd	r25, Y+3	; 0x03
    9908:	2f 5f       	subi	r18, 0xFF	; 255
    990a:	3f 4f       	sbci	r19, 0xFF	; 255
    990c:	11 f0       	breq	.+4      	; 0x9912 <fgetc+0x68>
    990e:	80 e2       	ldi	r24, 0x20	; 32
    9910:	01 c0       	rjmp	.+2      	; 0x9914 <fgetc+0x6a>
    9912:	80 e1       	ldi	r24, 0x10	; 16
    9914:	89 2b       	or	r24, r25
    9916:	8b 83       	std	Y+3, r24	; 0x03
    9918:	e8 cf       	rjmp	.-48     	; 0x98ea <fgetc+0x40>
    991a:	8e 81       	ldd	r24, Y+6	; 0x06
    991c:	9f 81       	ldd	r25, Y+7	; 0x07
    991e:	01 96       	adiw	r24, 0x01	; 1
    9920:	9f 83       	std	Y+7, r25	; 0x07
    9922:	8e 83       	std	Y+6, r24	; 0x06
    9924:	30 e0       	ldi	r19, 0x00	; 0
    9926:	c9 01       	movw	r24, r18
    9928:	df 91       	pop	r29
    992a:	cf 91       	pop	r28
    992c:	08 95       	ret

0000992e <fputc>:
    992e:	0f 93       	push	r16
    9930:	1f 93       	push	r17
    9932:	cf 93       	push	r28
    9934:	df 93       	push	r29
    9936:	8c 01       	movw	r16, r24
    9938:	eb 01       	movw	r28, r22
    993a:	8b 81       	ldd	r24, Y+3	; 0x03
    993c:	81 ff       	sbrs	r24, 1
    993e:	1b c0       	rjmp	.+54     	; 0x9976 <fputc+0x48>
    9940:	82 ff       	sbrs	r24, 2
    9942:	0d c0       	rjmp	.+26     	; 0x995e <fputc+0x30>
    9944:	2e 81       	ldd	r18, Y+6	; 0x06
    9946:	3f 81       	ldd	r19, Y+7	; 0x07
    9948:	8c 81       	ldd	r24, Y+4	; 0x04
    994a:	9d 81       	ldd	r25, Y+5	; 0x05
    994c:	28 17       	cp	r18, r24
    994e:	39 07       	cpc	r19, r25
    9950:	64 f4       	brge	.+24     	; 0x996a <fputc+0x3c>
    9952:	e8 81       	ld	r30, Y
    9954:	f9 81       	ldd	r31, Y+1	; 0x01
    9956:	01 93       	st	Z+, r16
    9958:	f9 83       	std	Y+1, r31	; 0x01
    995a:	e8 83       	st	Y, r30
    995c:	06 c0       	rjmp	.+12     	; 0x996a <fputc+0x3c>
    995e:	e8 85       	ldd	r30, Y+8	; 0x08
    9960:	f9 85       	ldd	r31, Y+9	; 0x09
    9962:	80 2f       	mov	r24, r16
    9964:	09 95       	icall
    9966:	89 2b       	or	r24, r25
    9968:	31 f4       	brne	.+12     	; 0x9976 <fputc+0x48>
    996a:	8e 81       	ldd	r24, Y+6	; 0x06
    996c:	9f 81       	ldd	r25, Y+7	; 0x07
    996e:	01 96       	adiw	r24, 0x01	; 1
    9970:	9f 83       	std	Y+7, r25	; 0x07
    9972:	8e 83       	std	Y+6, r24	; 0x06
    9974:	02 c0       	rjmp	.+4      	; 0x997a <fputc+0x4c>
    9976:	0f ef       	ldi	r16, 0xFF	; 255
    9978:	1f ef       	ldi	r17, 0xFF	; 255
    997a:	c8 01       	movw	r24, r16
    997c:	df 91       	pop	r29
    997e:	cf 91       	pop	r28
    9980:	1f 91       	pop	r17
    9982:	0f 91       	pop	r16
    9984:	08 95       	ret

00009986 <printf>:
    9986:	df 93       	push	r29
    9988:	cf 93       	push	r28
    998a:	cd b7       	in	r28, 0x3d	; 61
    998c:	de b7       	in	r29, 0x3e	; 62
    998e:	fe 01       	movw	r30, r28
    9990:	35 96       	adiw	r30, 0x05	; 5
    9992:	61 91       	ld	r22, Z+
    9994:	71 91       	ld	r23, Z+
    9996:	80 91 a7 08 	lds	r24, 0x08A7
    999a:	90 91 a8 08 	lds	r25, 0x08A8
    999e:	af 01       	movw	r20, r30
    99a0:	0e 94 68 43 	call	0x86d0	; 0x86d0 <vfprintf>
    99a4:	cf 91       	pop	r28
    99a6:	df 91       	pop	r29
    99a8:	08 95       	ret

000099aa <sprintf>:
    99aa:	0f 93       	push	r16
    99ac:	1f 93       	push	r17
    99ae:	df 93       	push	r29
    99b0:	cf 93       	push	r28
    99b2:	cd b7       	in	r28, 0x3d	; 61
    99b4:	de b7       	in	r29, 0x3e	; 62
    99b6:	2e 97       	sbiw	r28, 0x0e	; 14
    99b8:	0f b6       	in	r0, 0x3f	; 63
    99ba:	f8 94       	cli
    99bc:	de bf       	out	0x3e, r29	; 62
    99be:	0f be       	out	0x3f, r0	; 63
    99c0:	cd bf       	out	0x3d, r28	; 61
    99c2:	0d 89       	ldd	r16, Y+21	; 0x15
    99c4:	1e 89       	ldd	r17, Y+22	; 0x16
    99c6:	86 e0       	ldi	r24, 0x06	; 6
    99c8:	8c 83       	std	Y+4, r24	; 0x04
    99ca:	1a 83       	std	Y+2, r17	; 0x02
    99cc:	09 83       	std	Y+1, r16	; 0x01
    99ce:	8f ef       	ldi	r24, 0xFF	; 255
    99d0:	9f e7       	ldi	r25, 0x7F	; 127
    99d2:	9e 83       	std	Y+6, r25	; 0x06
    99d4:	8d 83       	std	Y+5, r24	; 0x05
    99d6:	9e 01       	movw	r18, r28
    99d8:	27 5e       	subi	r18, 0xE7	; 231
    99da:	3f 4f       	sbci	r19, 0xFF	; 255
    99dc:	ce 01       	movw	r24, r28
    99de:	01 96       	adiw	r24, 0x01	; 1
    99e0:	6f 89       	ldd	r22, Y+23	; 0x17
    99e2:	78 8d       	ldd	r23, Y+24	; 0x18
    99e4:	a9 01       	movw	r20, r18
    99e6:	0e 94 68 43 	call	0x86d0	; 0x86d0 <vfprintf>
    99ea:	2f 81       	ldd	r18, Y+7	; 0x07
    99ec:	38 85       	ldd	r19, Y+8	; 0x08
    99ee:	02 0f       	add	r16, r18
    99f0:	13 1f       	adc	r17, r19
    99f2:	f8 01       	movw	r30, r16
    99f4:	10 82       	st	Z, r1
    99f6:	2e 96       	adiw	r28, 0x0e	; 14
    99f8:	0f b6       	in	r0, 0x3f	; 63
    99fa:	f8 94       	cli
    99fc:	de bf       	out	0x3e, r29	; 62
    99fe:	0f be       	out	0x3f, r0	; 63
    9a00:	cd bf       	out	0x3d, r28	; 61
    9a02:	cf 91       	pop	r28
    9a04:	df 91       	pop	r29
    9a06:	1f 91       	pop	r17
    9a08:	0f 91       	pop	r16
    9a0a:	08 95       	ret

00009a0c <__ultoa_invert>:
    9a0c:	fa 01       	movw	r30, r20
    9a0e:	aa 27       	eor	r26, r26
    9a10:	28 30       	cpi	r18, 0x08	; 8
    9a12:	51 f1       	breq	.+84     	; 0x9a68 <__ultoa_invert+0x5c>
    9a14:	20 31       	cpi	r18, 0x10	; 16
    9a16:	81 f1       	breq	.+96     	; 0x9a78 <__ultoa_invert+0x6c>
    9a18:	e8 94       	clt
    9a1a:	6f 93       	push	r22
    9a1c:	6e 7f       	andi	r22, 0xFE	; 254
    9a1e:	6e 5f       	subi	r22, 0xFE	; 254
    9a20:	7f 4f       	sbci	r23, 0xFF	; 255
    9a22:	8f 4f       	sbci	r24, 0xFF	; 255
    9a24:	9f 4f       	sbci	r25, 0xFF	; 255
    9a26:	af 4f       	sbci	r26, 0xFF	; 255
    9a28:	b1 e0       	ldi	r27, 0x01	; 1
    9a2a:	3e d0       	rcall	.+124    	; 0x9aa8 <__ultoa_invert+0x9c>
    9a2c:	b4 e0       	ldi	r27, 0x04	; 4
    9a2e:	3c d0       	rcall	.+120    	; 0x9aa8 <__ultoa_invert+0x9c>
    9a30:	67 0f       	add	r22, r23
    9a32:	78 1f       	adc	r23, r24
    9a34:	89 1f       	adc	r24, r25
    9a36:	9a 1f       	adc	r25, r26
    9a38:	a1 1d       	adc	r26, r1
    9a3a:	68 0f       	add	r22, r24
    9a3c:	79 1f       	adc	r23, r25
    9a3e:	8a 1f       	adc	r24, r26
    9a40:	91 1d       	adc	r25, r1
    9a42:	a1 1d       	adc	r26, r1
    9a44:	6a 0f       	add	r22, r26
    9a46:	71 1d       	adc	r23, r1
    9a48:	81 1d       	adc	r24, r1
    9a4a:	91 1d       	adc	r25, r1
    9a4c:	a1 1d       	adc	r26, r1
    9a4e:	20 d0       	rcall	.+64     	; 0x9a90 <__ultoa_invert+0x84>
    9a50:	09 f4       	brne	.+2      	; 0x9a54 <__ultoa_invert+0x48>
    9a52:	68 94       	set
    9a54:	3f 91       	pop	r19
    9a56:	2a e0       	ldi	r18, 0x0A	; 10
    9a58:	26 9f       	mul	r18, r22
    9a5a:	11 24       	eor	r1, r1
    9a5c:	30 19       	sub	r19, r0
    9a5e:	30 5d       	subi	r19, 0xD0	; 208
    9a60:	31 93       	st	Z+, r19
    9a62:	de f6       	brtc	.-74     	; 0x9a1a <__ultoa_invert+0xe>
    9a64:	cf 01       	movw	r24, r30
    9a66:	08 95       	ret
    9a68:	46 2f       	mov	r20, r22
    9a6a:	47 70       	andi	r20, 0x07	; 7
    9a6c:	40 5d       	subi	r20, 0xD0	; 208
    9a6e:	41 93       	st	Z+, r20
    9a70:	b3 e0       	ldi	r27, 0x03	; 3
    9a72:	0f d0       	rcall	.+30     	; 0x9a92 <__ultoa_invert+0x86>
    9a74:	c9 f7       	brne	.-14     	; 0x9a68 <__ultoa_invert+0x5c>
    9a76:	f6 cf       	rjmp	.-20     	; 0x9a64 <__ultoa_invert+0x58>
    9a78:	46 2f       	mov	r20, r22
    9a7a:	4f 70       	andi	r20, 0x0F	; 15
    9a7c:	40 5d       	subi	r20, 0xD0	; 208
    9a7e:	4a 33       	cpi	r20, 0x3A	; 58
    9a80:	18 f0       	brcs	.+6      	; 0x9a88 <__ultoa_invert+0x7c>
    9a82:	49 5d       	subi	r20, 0xD9	; 217
    9a84:	31 fd       	sbrc	r19, 1
    9a86:	40 52       	subi	r20, 0x20	; 32
    9a88:	41 93       	st	Z+, r20
    9a8a:	02 d0       	rcall	.+4      	; 0x9a90 <__ultoa_invert+0x84>
    9a8c:	a9 f7       	brne	.-22     	; 0x9a78 <__ultoa_invert+0x6c>
    9a8e:	ea cf       	rjmp	.-44     	; 0x9a64 <__ultoa_invert+0x58>
    9a90:	b4 e0       	ldi	r27, 0x04	; 4
    9a92:	a6 95       	lsr	r26
    9a94:	97 95       	ror	r25
    9a96:	87 95       	ror	r24
    9a98:	77 95       	ror	r23
    9a9a:	67 95       	ror	r22
    9a9c:	ba 95       	dec	r27
    9a9e:	c9 f7       	brne	.-14     	; 0x9a92 <__ultoa_invert+0x86>
    9aa0:	00 97       	sbiw	r24, 0x00	; 0
    9aa2:	61 05       	cpc	r22, r1
    9aa4:	71 05       	cpc	r23, r1
    9aa6:	08 95       	ret
    9aa8:	9b 01       	movw	r18, r22
    9aaa:	ac 01       	movw	r20, r24
    9aac:	0a 2e       	mov	r0, r26
    9aae:	06 94       	lsr	r0
    9ab0:	57 95       	ror	r21
    9ab2:	47 95       	ror	r20
    9ab4:	37 95       	ror	r19
    9ab6:	27 95       	ror	r18
    9ab8:	ba 95       	dec	r27
    9aba:	c9 f7       	brne	.-14     	; 0x9aae <__ultoa_invert+0xa2>
    9abc:	62 0f       	add	r22, r18
    9abe:	73 1f       	adc	r23, r19
    9ac0:	84 1f       	adc	r24, r20
    9ac2:	95 1f       	adc	r25, r21
    9ac4:	a0 1d       	adc	r26, r0
    9ac6:	08 95       	ret

00009ac8 <__eerd_byte_m128>:
    9ac8:	e1 99       	sbic	0x1c, 1	; 28
    9aca:	fe cf       	rjmp	.-4      	; 0x9ac8 <__eerd_byte_m128>
    9acc:	9f bb       	out	0x1f, r25	; 31
    9ace:	8e bb       	out	0x1e, r24	; 30
    9ad0:	e0 9a       	sbi	0x1c, 0	; 28
    9ad2:	99 27       	eor	r25, r25
    9ad4:	8d b3       	in	r24, 0x1d	; 29
    9ad6:	08 95       	ret

00009ad8 <__eewr_byte_m128>:
    9ad8:	26 2f       	mov	r18, r22

00009ada <__eewr_r18_m128>:
    9ada:	e1 99       	sbic	0x1c, 1	; 28
    9adc:	fe cf       	rjmp	.-4      	; 0x9ada <__eewr_r18_m128>
    9ade:	9f bb       	out	0x1f, r25	; 31
    9ae0:	8e bb       	out	0x1e, r24	; 30
    9ae2:	2d bb       	out	0x1d, r18	; 29
    9ae4:	0f b6       	in	r0, 0x3f	; 63
    9ae6:	f8 94       	cli
    9ae8:	e2 9a       	sbi	0x1c, 2	; 28
    9aea:	e1 9a       	sbi	0x1c, 1	; 28
    9aec:	0f be       	out	0x3f, r0	; 63
    9aee:	01 96       	adiw	r24, 0x01	; 1
    9af0:	08 95       	ret

00009af2 <calloc>:
    9af2:	0f 93       	push	r16
    9af4:	1f 93       	push	r17
    9af6:	cf 93       	push	r28
    9af8:	df 93       	push	r29
    9afa:	68 9f       	mul	r22, r24
    9afc:	80 01       	movw	r16, r0
    9afe:	69 9f       	mul	r22, r25
    9b00:	10 0d       	add	r17, r0
    9b02:	78 9f       	mul	r23, r24
    9b04:	10 0d       	add	r17, r0
    9b06:	11 24       	eor	r1, r1
    9b08:	c8 01       	movw	r24, r16
    9b0a:	0e 94 95 4d 	call	0x9b2a	; 0x9b2a <malloc>
    9b0e:	ec 01       	movw	r28, r24
    9b10:	00 97       	sbiw	r24, 0x00	; 0
    9b12:	29 f0       	breq	.+10     	; 0x9b1e <calloc+0x2c>
    9b14:	60 e0       	ldi	r22, 0x00	; 0
    9b16:	70 e0       	ldi	r23, 0x00	; 0
    9b18:	a8 01       	movw	r20, r16
    9b1a:	0e 94 9a 4e 	call	0x9d34	; 0x9d34 <memset>
    9b1e:	ce 01       	movw	r24, r28
    9b20:	df 91       	pop	r29
    9b22:	cf 91       	pop	r28
    9b24:	1f 91       	pop	r17
    9b26:	0f 91       	pop	r16
    9b28:	08 95       	ret

00009b2a <malloc>:
    9b2a:	cf 93       	push	r28
    9b2c:	df 93       	push	r29
    9b2e:	bc 01       	movw	r22, r24
    9b30:	82 30       	cpi	r24, 0x02	; 2
    9b32:	91 05       	cpc	r25, r1
    9b34:	10 f4       	brcc	.+4      	; 0x9b3a <malloc+0x10>
    9b36:	62 e0       	ldi	r22, 0x02	; 2
    9b38:	70 e0       	ldi	r23, 0x00	; 0
    9b3a:	a0 91 ad 08 	lds	r26, 0x08AD
    9b3e:	b0 91 ae 08 	lds	r27, 0x08AE
    9b42:	ed 01       	movw	r28, r26
    9b44:	e0 e0       	ldi	r30, 0x00	; 0
    9b46:	f0 e0       	ldi	r31, 0x00	; 0
    9b48:	40 e0       	ldi	r20, 0x00	; 0
    9b4a:	50 e0       	ldi	r21, 0x00	; 0
    9b4c:	21 c0       	rjmp	.+66     	; 0x9b90 <malloc+0x66>
    9b4e:	88 81       	ld	r24, Y
    9b50:	99 81       	ldd	r25, Y+1	; 0x01
    9b52:	86 17       	cp	r24, r22
    9b54:	97 07       	cpc	r25, r23
    9b56:	69 f4       	brne	.+26     	; 0x9b72 <malloc+0x48>
    9b58:	8a 81       	ldd	r24, Y+2	; 0x02
    9b5a:	9b 81       	ldd	r25, Y+3	; 0x03
    9b5c:	30 97       	sbiw	r30, 0x00	; 0
    9b5e:	19 f0       	breq	.+6      	; 0x9b66 <malloc+0x3c>
    9b60:	93 83       	std	Z+3, r25	; 0x03
    9b62:	82 83       	std	Z+2, r24	; 0x02
    9b64:	04 c0       	rjmp	.+8      	; 0x9b6e <malloc+0x44>
    9b66:	90 93 ae 08 	sts	0x08AE, r25
    9b6a:	80 93 ad 08 	sts	0x08AD, r24
    9b6e:	fe 01       	movw	r30, r28
    9b70:	34 c0       	rjmp	.+104    	; 0x9bda <malloc+0xb0>
    9b72:	68 17       	cp	r22, r24
    9b74:	79 07       	cpc	r23, r25
    9b76:	38 f4       	brcc	.+14     	; 0x9b86 <malloc+0x5c>
    9b78:	41 15       	cp	r20, r1
    9b7a:	51 05       	cpc	r21, r1
    9b7c:	19 f0       	breq	.+6      	; 0x9b84 <malloc+0x5a>
    9b7e:	84 17       	cp	r24, r20
    9b80:	95 07       	cpc	r25, r21
    9b82:	08 f4       	brcc	.+2      	; 0x9b86 <malloc+0x5c>
    9b84:	ac 01       	movw	r20, r24
    9b86:	fe 01       	movw	r30, r28
    9b88:	8a 81       	ldd	r24, Y+2	; 0x02
    9b8a:	9b 81       	ldd	r25, Y+3	; 0x03
    9b8c:	9c 01       	movw	r18, r24
    9b8e:	e9 01       	movw	r28, r18
    9b90:	20 97       	sbiw	r28, 0x00	; 0
    9b92:	e9 f6       	brne	.-70     	; 0x9b4e <malloc+0x24>
    9b94:	41 15       	cp	r20, r1
    9b96:	51 05       	cpc	r21, r1
    9b98:	a9 f1       	breq	.+106    	; 0x9c04 <malloc+0xda>
    9b9a:	ca 01       	movw	r24, r20
    9b9c:	86 1b       	sub	r24, r22
    9b9e:	97 0b       	sbc	r25, r23
    9ba0:	04 97       	sbiw	r24, 0x04	; 4
    9ba2:	08 f4       	brcc	.+2      	; 0x9ba6 <malloc+0x7c>
    9ba4:	ba 01       	movw	r22, r20
    9ba6:	e0 e0       	ldi	r30, 0x00	; 0
    9ba8:	f0 e0       	ldi	r31, 0x00	; 0
    9baa:	2a c0       	rjmp	.+84     	; 0x9c00 <malloc+0xd6>
    9bac:	8d 91       	ld	r24, X+
    9bae:	9c 91       	ld	r25, X
    9bb0:	11 97       	sbiw	r26, 0x01	; 1
    9bb2:	84 17       	cp	r24, r20
    9bb4:	95 07       	cpc	r25, r21
    9bb6:	f9 f4       	brne	.+62     	; 0x9bf6 <malloc+0xcc>
    9bb8:	64 17       	cp	r22, r20
    9bba:	75 07       	cpc	r23, r21
    9bbc:	81 f4       	brne	.+32     	; 0x9bde <malloc+0xb4>
    9bbe:	12 96       	adiw	r26, 0x02	; 2
    9bc0:	8d 91       	ld	r24, X+
    9bc2:	9c 91       	ld	r25, X
    9bc4:	13 97       	sbiw	r26, 0x03	; 3
    9bc6:	30 97       	sbiw	r30, 0x00	; 0
    9bc8:	19 f0       	breq	.+6      	; 0x9bd0 <malloc+0xa6>
    9bca:	93 83       	std	Z+3, r25	; 0x03
    9bcc:	82 83       	std	Z+2, r24	; 0x02
    9bce:	04 c0       	rjmp	.+8      	; 0x9bd8 <malloc+0xae>
    9bd0:	90 93 ae 08 	sts	0x08AE, r25
    9bd4:	80 93 ad 08 	sts	0x08AD, r24
    9bd8:	fd 01       	movw	r30, r26
    9bda:	32 96       	adiw	r30, 0x02	; 2
    9bdc:	4f c0       	rjmp	.+158    	; 0x9c7c <malloc+0x152>
    9bde:	ca 01       	movw	r24, r20
    9be0:	86 1b       	sub	r24, r22
    9be2:	97 0b       	sbc	r25, r23
    9be4:	fd 01       	movw	r30, r26
    9be6:	e8 0f       	add	r30, r24
    9be8:	f9 1f       	adc	r31, r25
    9bea:	61 93       	st	Z+, r22
    9bec:	71 93       	st	Z+, r23
    9bee:	02 97       	sbiw	r24, 0x02	; 2
    9bf0:	8d 93       	st	X+, r24
    9bf2:	9c 93       	st	X, r25
    9bf4:	43 c0       	rjmp	.+134    	; 0x9c7c <malloc+0x152>
    9bf6:	fd 01       	movw	r30, r26
    9bf8:	82 81       	ldd	r24, Z+2	; 0x02
    9bfa:	93 81       	ldd	r25, Z+3	; 0x03
    9bfc:	9c 01       	movw	r18, r24
    9bfe:	d9 01       	movw	r26, r18
    9c00:	10 97       	sbiw	r26, 0x00	; 0
    9c02:	a1 f6       	brne	.-88     	; 0x9bac <malloc+0x82>
    9c04:	80 91 ab 08 	lds	r24, 0x08AB
    9c08:	90 91 ac 08 	lds	r25, 0x08AC
    9c0c:	89 2b       	or	r24, r25
    9c0e:	41 f4       	brne	.+16     	; 0x9c20 <malloc+0xf6>
    9c10:	80 91 82 03 	lds	r24, 0x0382
    9c14:	90 91 83 03 	lds	r25, 0x0383
    9c18:	90 93 ac 08 	sts	0x08AC, r25
    9c1c:	80 93 ab 08 	sts	0x08AB, r24
    9c20:	40 91 84 03 	lds	r20, 0x0384
    9c24:	50 91 85 03 	lds	r21, 0x0385
    9c28:	41 15       	cp	r20, r1
    9c2a:	51 05       	cpc	r21, r1
    9c2c:	41 f4       	brne	.+16     	; 0x9c3e <malloc+0x114>
    9c2e:	4d b7       	in	r20, 0x3d	; 61
    9c30:	5e b7       	in	r21, 0x3e	; 62
    9c32:	80 91 80 03 	lds	r24, 0x0380
    9c36:	90 91 81 03 	lds	r25, 0x0381
    9c3a:	48 1b       	sub	r20, r24
    9c3c:	59 0b       	sbc	r21, r25
    9c3e:	20 91 ab 08 	lds	r18, 0x08AB
    9c42:	30 91 ac 08 	lds	r19, 0x08AC
    9c46:	24 17       	cp	r18, r20
    9c48:	35 07       	cpc	r19, r21
    9c4a:	b0 f4       	brcc	.+44     	; 0x9c78 <malloc+0x14e>
    9c4c:	ca 01       	movw	r24, r20
    9c4e:	82 1b       	sub	r24, r18
    9c50:	93 0b       	sbc	r25, r19
    9c52:	86 17       	cp	r24, r22
    9c54:	97 07       	cpc	r25, r23
    9c56:	80 f0       	brcs	.+32     	; 0x9c78 <malloc+0x14e>
    9c58:	ab 01       	movw	r20, r22
    9c5a:	4e 5f       	subi	r20, 0xFE	; 254
    9c5c:	5f 4f       	sbci	r21, 0xFF	; 255
    9c5e:	84 17       	cp	r24, r20
    9c60:	95 07       	cpc	r25, r21
    9c62:	50 f0       	brcs	.+20     	; 0x9c78 <malloc+0x14e>
    9c64:	42 0f       	add	r20, r18
    9c66:	53 1f       	adc	r21, r19
    9c68:	50 93 ac 08 	sts	0x08AC, r21
    9c6c:	40 93 ab 08 	sts	0x08AB, r20
    9c70:	f9 01       	movw	r30, r18
    9c72:	61 93       	st	Z+, r22
    9c74:	71 93       	st	Z+, r23
    9c76:	02 c0       	rjmp	.+4      	; 0x9c7c <malloc+0x152>
    9c78:	e0 e0       	ldi	r30, 0x00	; 0
    9c7a:	f0 e0       	ldi	r31, 0x00	; 0
    9c7c:	cf 01       	movw	r24, r30
    9c7e:	df 91       	pop	r29
    9c80:	cf 91       	pop	r28
    9c82:	08 95       	ret

00009c84 <free>:
    9c84:	cf 93       	push	r28
    9c86:	df 93       	push	r29
    9c88:	00 97       	sbiw	r24, 0x00	; 0
    9c8a:	09 f4       	brne	.+2      	; 0x9c8e <free+0xa>
    9c8c:	50 c0       	rjmp	.+160    	; 0x9d2e <free+0xaa>
    9c8e:	ec 01       	movw	r28, r24
    9c90:	22 97       	sbiw	r28, 0x02	; 2
    9c92:	1b 82       	std	Y+3, r1	; 0x03
    9c94:	1a 82       	std	Y+2, r1	; 0x02
    9c96:	a0 91 ad 08 	lds	r26, 0x08AD
    9c9a:	b0 91 ae 08 	lds	r27, 0x08AE
    9c9e:	10 97       	sbiw	r26, 0x00	; 0
    9ca0:	09 f1       	breq	.+66     	; 0x9ce4 <free+0x60>
    9ca2:	40 e0       	ldi	r20, 0x00	; 0
    9ca4:	50 e0       	ldi	r21, 0x00	; 0
    9ca6:	ac 17       	cp	r26, r28
    9ca8:	bd 07       	cpc	r27, r29
    9caa:	08 f1       	brcs	.+66     	; 0x9cee <free+0x6a>
    9cac:	bb 83       	std	Y+3, r27	; 0x03
    9cae:	aa 83       	std	Y+2, r26	; 0x02
    9cb0:	fe 01       	movw	r30, r28
    9cb2:	21 91       	ld	r18, Z+
    9cb4:	31 91       	ld	r19, Z+
    9cb6:	e2 0f       	add	r30, r18
    9cb8:	f3 1f       	adc	r31, r19
    9cba:	ae 17       	cp	r26, r30
    9cbc:	bf 07       	cpc	r27, r31
    9cbe:	79 f4       	brne	.+30     	; 0x9cde <free+0x5a>
    9cc0:	8d 91       	ld	r24, X+
    9cc2:	9c 91       	ld	r25, X
    9cc4:	11 97       	sbiw	r26, 0x01	; 1
    9cc6:	28 0f       	add	r18, r24
    9cc8:	39 1f       	adc	r19, r25
    9cca:	2e 5f       	subi	r18, 0xFE	; 254
    9ccc:	3f 4f       	sbci	r19, 0xFF	; 255
    9cce:	39 83       	std	Y+1, r19	; 0x01
    9cd0:	28 83       	st	Y, r18
    9cd2:	12 96       	adiw	r26, 0x02	; 2
    9cd4:	8d 91       	ld	r24, X+
    9cd6:	9c 91       	ld	r25, X
    9cd8:	13 97       	sbiw	r26, 0x03	; 3
    9cda:	9b 83       	std	Y+3, r25	; 0x03
    9cdc:	8a 83       	std	Y+2, r24	; 0x02
    9cde:	41 15       	cp	r20, r1
    9ce0:	51 05       	cpc	r21, r1
    9ce2:	71 f4       	brne	.+28     	; 0x9d00 <free+0x7c>
    9ce4:	d0 93 ae 08 	sts	0x08AE, r29
    9ce8:	c0 93 ad 08 	sts	0x08AD, r28
    9cec:	20 c0       	rjmp	.+64     	; 0x9d2e <free+0xaa>
    9cee:	12 96       	adiw	r26, 0x02	; 2
    9cf0:	8d 91       	ld	r24, X+
    9cf2:	9c 91       	ld	r25, X
    9cf4:	13 97       	sbiw	r26, 0x03	; 3
    9cf6:	ad 01       	movw	r20, r26
    9cf8:	00 97       	sbiw	r24, 0x00	; 0
    9cfa:	11 f0       	breq	.+4      	; 0x9d00 <free+0x7c>
    9cfc:	dc 01       	movw	r26, r24
    9cfe:	d3 cf       	rjmp	.-90     	; 0x9ca6 <free+0x22>
    9d00:	fa 01       	movw	r30, r20
    9d02:	d3 83       	std	Z+3, r29	; 0x03
    9d04:	c2 83       	std	Z+2, r28	; 0x02
    9d06:	21 91       	ld	r18, Z+
    9d08:	31 91       	ld	r19, Z+
    9d0a:	e2 0f       	add	r30, r18
    9d0c:	f3 1f       	adc	r31, r19
    9d0e:	ce 17       	cp	r28, r30
    9d10:	df 07       	cpc	r29, r31
    9d12:	69 f4       	brne	.+26     	; 0x9d2e <free+0xaa>
    9d14:	88 81       	ld	r24, Y
    9d16:	99 81       	ldd	r25, Y+1	; 0x01
    9d18:	28 0f       	add	r18, r24
    9d1a:	39 1f       	adc	r19, r25
    9d1c:	2e 5f       	subi	r18, 0xFE	; 254
    9d1e:	3f 4f       	sbci	r19, 0xFF	; 255
    9d20:	fa 01       	movw	r30, r20
    9d22:	31 83       	std	Z+1, r19	; 0x01
    9d24:	20 83       	st	Z, r18
    9d26:	8a 81       	ldd	r24, Y+2	; 0x02
    9d28:	9b 81       	ldd	r25, Y+3	; 0x03
    9d2a:	93 83       	std	Z+3, r25	; 0x03
    9d2c:	82 83       	std	Z+2, r24	; 0x02
    9d2e:	df 91       	pop	r29
    9d30:	cf 91       	pop	r28
    9d32:	08 95       	ret

00009d34 <memset>:
    9d34:	dc 01       	movw	r26, r24
    9d36:	01 c0       	rjmp	.+2      	; 0x9d3a <memset+0x6>
    9d38:	6d 93       	st	X+, r22
    9d3a:	41 50       	subi	r20, 0x01	; 1
    9d3c:	50 40       	sbci	r21, 0x00	; 0
    9d3e:	e0 f7       	brcc	.-8      	; 0x9d38 <memset+0x4>
    9d40:	08 95       	ret

00009d42 <_exit>:
    9d42:	f8 94       	cli

00009d44 <__stop_program>:
    9d44:	ff cf       	rjmp	.-2      	; 0x9d44 <__stop_program>
