   1               		.file	"nrk_task.c"
   2               	__SREG__ = 0x3f
   3               	__SP_H__ = 0x3e
   4               	__SP_L__ = 0x3d
   5               	__CCP__  = 0x34
   6               	__tmp_reg__ = 0
   7               	__zero_reg__ = 1
  15               	.Ltext0:
  16               	.global	nrk_get_high_ready_task_ID
  18               	nrk_get_high_ready_task_ID:
  19               	.LFB3:
  20               	.LM1:
  21               	/* prologue: function */
  22               	/* frame size = 0 */
  23               	.LM2:
  24 0000 E091 0000 		lds r30,_head_node
  25 0004 F091 0000 		lds r31,(_head_node)+1
  26               	.LM3:
  27 0008 8081      		ld r24,Z
  28               	/* epilogue start */
  29 000a 0895      		ret
  30               	.LFE3:
  32               	.global	nrk_print_readyQ
  34               	nrk_print_readyQ:
  35               	.LFB4:
  36               	.LM4:
  37               	/* prologue: function */
  38               	/* frame size = 0 */
  39               	.LM5:
  40 000c E091 0000 		lds r30,_head_node
  41 0010 F091 0000 		lds r31,(_head_node)+1
  42               	.LVL0:
  43 0014 00C0      		rjmp .L4
  44               	.L5:
  45               	.LM6:
  46 0016 0380      		ldd __tmp_reg__,Z+3
  47 0018 F481      		ldd r31,Z+4
  48 001a E02D      		mov r30,__tmp_reg__
  49               	.L4:
  50               	.LM7:
  51 001c 3097      		sbiw r30,0
  52 001e 01F4      		brne .L5
  53               	/* epilogue start */
  54               	.LM8:
  55 0020 0895      		ret
  56               	.LFE4:
  58               	.global	nrk_rem_from_readyQ
  60               	nrk_rem_from_readyQ:
  61               	.LFB6:
  62               	.LM9:
  63               	.LVL1:
  64 0022 CF93      		push r28
  65 0024 DF93      		push r29
  66               	/* prologue: function */
  67               	/* frame size = 0 */
  68               	.LM10:
  69 0026 A091 0000 		lds r26,_head_node
  70 002a B091 0000 		lds r27,(_head_node)+1
  71               	.LVL2:
  72 002e 1097      		sbiw r26,0
  73 0030 01F4      		brne .+2
  74 0032 00C0      		rjmp .L16
  75               	.LM11:
  76 0034 282F      		mov r18,r24
  77 0036 3327      		clr r19
  78 0038 27FD      		sbrc r18,7
  79 003a 3095      		com r19
  80 003c 8C91      		ld r24,X
  81               	.LVL3:
  82 003e 90E0      		ldi r25,lo8(0)
  83 0040 8217      		cp r24,r18
  84 0042 9307      		cpc r25,r19
  85 0044 01F4      		brne .L17
  86               	.LM12:
  87 0046 1396      		adiw r26,3
  88 0048 ED91      		ld r30,X+
  89 004a FC91      		ld r31,X
  90 004c 1497      		sbiw r26,3+1
  91 004e F093 0000 		sts (_head_node)+1,r31
  92 0052 E093 0000 		sts _head_node,r30
  93               	.LM13:
  94 0056 1282      		std Z+2,__zero_reg__
  95 0058 1182      		std Z+1,__zero_reg__
  96 005a 00C0      		rjmp .L10
  97               	.L11:
  98               	.LM14:
  99 005c DA01      		movw r26,r20
 100               	.LM15:
 101 005e 4115      		cp r20,__zero_reg__
 102 0060 5105      		cpc r21,__zero_reg__
 103 0062 01F0      		breq .L16
 104               	.L17:
 105 0064 8C91      		ld r24,X
 106 0066 90E0      		ldi r25,lo8(0)
 107 0068 1396      		adiw r26,3
 108 006a 4C91      		ld r20,X
 109 006c 1397      		sbiw r26,3
 110 006e 1496      		adiw r26,4
 111 0070 5C91      		ld r21,X
 112 0072 1497      		sbiw r26,4
 113 0074 8217      		cp r24,r18
 114 0076 9307      		cpc r25,r19
 115 0078 01F4      		brne .L11
 116 007a 00C0      		rjmp .L19
 117               	.L15:
 118               	.LM16:
 119 007c FA83      		std Y+2,r31
 120 007e E983      		std Y+1,r30
 121               	.L10:
 122               	.LM17:
 123 0080 E091 0000 		lds r30,_free_node
 124 0084 F091 0000 		lds r31,(_free_node)+1
 125 0088 3097      		sbiw r30,0
 126 008a 01F4      		brne .L13
 127               	.LM18:
 128 008c B093 0000 		sts (_free_node)+1,r27
 129 0090 A093 0000 		sts _free_node,r26
 130               	.LM19:
 131 0094 1496      		adiw r26,3+1
 132 0096 1C92      		st X,__zero_reg__
 133 0098 1E92      		st -X,__zero_reg__
 134 009a 1397      		sbiw r26,3
 135 009c 00C0      		rjmp .L14
 136               	.L13:
 137               	.LM20:
 138 009e 1496      		adiw r26,3+1
 139 00a0 FC93      		st X,r31
 140 00a2 EE93      		st -X,r30
 141 00a4 1397      		sbiw r26,3
 142               	.LM21:
 143 00a6 B283      		std Z+2,r27
 144 00a8 A183      		std Z+1,r26
 145               	.LM22:
 146 00aa B093 0000 		sts (_free_node)+1,r27
 147 00ae A093 0000 		sts _free_node,r26
 148               	.L14:
 149               	.LM23:
 150 00b2 E091 0000 		lds r30,_free_node
 151 00b6 F091 0000 		lds r31,(_free_node)+1
 152 00ba 1282      		std Z+2,__zero_reg__
 153 00bc 1182      		std Z+1,__zero_reg__
 154 00be 00C0      		rjmp .L16
 155               	.L19:
 156               	.LM24:
 157 00c0 1196      		adiw r26,1
 158 00c2 ED91      		ld r30,X+
 159 00c4 FC91      		ld r31,X
 160 00c6 1297      		sbiw r26,1+1
 161 00c8 4383      		std Z+3,r20
 162 00ca 5483      		std Z+4,r21
 163               	.LM25:
 164 00cc 1396      		adiw r26,3
 165 00ce CD91      		ld r28,X+
 166 00d0 DC91      		ld r29,X
 167 00d2 1497      		sbiw r26,3+1
 168 00d4 2097      		sbiw r28,0
 169 00d6 01F4      		brne .L15
 170 00d8 00C0      		rjmp .L10
 171               	.LVL4:
 172               	.L16:
 173               	/* epilogue start */
 174               	.LM26:
 175 00da DF91      		pop r29
 176 00dc CF91      		pop r28
 177 00de 0895      		ret
 178               	.LFE6:
 180               	.global	nrk_get_pid
 182               	nrk_get_pid:
 183               	.LFB18:
 184               	.LM27:
 185               	/* prologue: function */
 186               	/* frame size = 0 */
 187               	.LM28:
 188 00e0 E091 0000 		lds r30,nrk_cur_task_TCB
 189 00e4 F091 0000 		lds r31,(nrk_cur_task_TCB)+1
 190               	.LM29:
 191 00e8 8085      		ldd r24,Z+8
 192               	/* epilogue start */
 193 00ea 0895      		ret
 194               	.LFE18:
 196               	.global	_nrk_wait_for_scheduler
 198               	_nrk_wait_for_scheduler:
 199               	.LFB16:
 200               	.LM30:
 201               	/* prologue: function */
 202               	/* frame size = 0 */
 203               	.L23:
 204               	.LM31:
 205 00ec 0E94 0000 		call nrk_idle
 206               	.LM32:
 207 00f0 E091 0000 		lds r30,nrk_cur_task_TCB
 208 00f4 F091 0000 		lds r31,(nrk_cur_task_TCB)+1
 209 00f8 8581      		ldd r24,Z+5
 210 00fa 8823      		tst r24
 211 00fc 01F4      		brne .L23
 212               	/* epilogue start */
 213               	.LM33:
 214 00fe 0895      		ret
 215               	.LFE16:
 217               	.global	nrk_wait
 219               	nrk_wait:
 220               	.LFB15:
 221               	.LM34:
 222 0100 FF92      		push r15
 223 0102 0F93      		push r16
 224 0104 1F93      		push r17
 225 0106 DF93      		push r29
 226 0108 CF93      		push r28
 227 010a CDB7      		in r28,__SP_L__
 228 010c DEB7      		in r29,__SP_H__
 229 010e 2897      		sbiw r28,8
 230 0110 0FB6      		in __tmp_reg__,__SREG__
 231 0112 F894      		cli
 232 0114 DEBF      		out __SP_H__,r29
 233 0116 0FBE      		out __SREG__,__tmp_reg__
 234 0118 CDBF      		out __SP_L__,r28
 235               	/* prologue: function */
 236               	/* frame size = 8 */
 237 011a 2983      		std Y+1,r18
 238 011c 3A83      		std Y+2,r19
 239 011e 4B83      		std Y+3,r20
 240 0120 5C83      		std Y+4,r21
 241 0122 6D83      		std Y+5,r22
 242 0124 7E83      		std Y+6,r23
 243 0126 8F83      		std Y+7,r24
 244 0128 9887      		std Y+8,r25
 245               	.LM35:
 246 012a 0E94 0000 		call nrk_stack_check
 247               	.LM36:
 248 012e 0E94 0000 		call nrk_int_disable
 249               	.LM37:
 250 0132 E091 0000 		lds r30,nrk_cur_task_TCB
 251 0136 F091 0000 		lds r31,(nrk_cur_task_TCB)+1
 252 013a 81E0      		ldi r24,lo8(1)
 253 013c 8583      		std Z+5,r24
 254               	.LM38:
 255 013e 81E0      		ldi r24,lo8(1)
 256 0140 90E0      		ldi r25,hi8(1)
 257 0142 92A3      		std Z+34,r25
 258 0144 81A3      		std Z+33,r24
 259               	.LM39:
 260 0146 0E94 0000 		call _nrk_os_timer_get
 261 014a F82E      		mov r15,r24
 262               	.LVL5:
 263               	.LM40:
 264 014c CE01      		movw r24,r28
 265 014e 0196      		adiw r24,1
 266 0150 0E94 0000 		call _nrk_time_to_ticks
 267               	.LM41:
 268 0154 E091 0000 		lds r30,nrk_cur_task_TCB
 269 0158 F091 0000 		lds r31,(nrk_cur_task_TCB)+1
 270 015c 0F2D      		mov r16,r15
 271 015e 10E0      		ldi r17,lo8(0)
 272               	.LVL6:
 273 0160 800F      		add r24,r16
 274 0162 911F      		adc r25,r17
 275 0164 908F      		std Z+24,r25
 276 0166 878B      		std Z+23,r24
 277               	.LM42:
 278 0168 87EF      		ldi r24,lo8(-9)
 279 016a 8F15      		cp r24,r15
 280 016c 00F0      		brlo .L27
 281               	.LM43:
 282 016e 0E94 0000 		call _nrk_get_next_wakeup
 283 0172 0F5F      		subi r16,lo8(-(1))
 284 0174 1F4F      		sbci r17,hi8(-(1))
 285               	.LVL7:
 286 0176 90E0      		ldi r25,lo8(0)
 287 0178 0817      		cp r16,r24
 288 017a 1907      		cpc r17,r25
 289 017c 04F4      		brge .L27
 290               	.LM44:
 291 017e 8F2D      		mov r24,r15
 292 0180 8E5F      		subi r24,lo8(-(2))
 293               	.LVL8:
 294               	.LM45:
 295 0182 8093 0000 		sts _nrk_prev_timer_val,r24
 296               	.LM46:
 297 0186 0E94 0000 		call _nrk_set_next_wakeup
 298               	.LVL9:
 299               	.L27:
 300               	.LM47:
 301 018a 0E94 0000 		call nrk_int_enable
 302               	.LM48:
 303 018e 0E94 0000 		call _nrk_wait_for_scheduler
 304               	.LM49:
 305 0192 81E0      		ldi r24,lo8(1)
 306               	/* epilogue start */
 307 0194 2896      		adiw r28,8
 308 0196 0FB6      		in __tmp_reg__,__SREG__
 309 0198 F894      		cli
 310 019a DEBF      		out __SP_H__,r29
 311 019c 0FBE      		out __SREG__,__tmp_reg__
 312 019e CDBF      		out __SP_L__,r28
 313 01a0 CF91      		pop r28
 314 01a2 DF91      		pop r29
 315 01a4 1F91      		pop r17
 316               	.LVL10:
 317 01a6 0F91      		pop r16
 318               	.LVL11:
 319 01a8 FF90      		pop r15
 320               	.LVL12:
 321 01aa 0895      		ret
 322               	.LFE15:
 324               	.global	nrk_wait_until
 326               	nrk_wait_until:
 327               	.LFB17:
 328               	.LM50:
 329 01ac 8F92      		push r8
 330 01ae 9F92      		push r9
 331 01b0 AF92      		push r10
 332 01b2 BF92      		push r11
 333 01b4 CF92      		push r12
 334 01b6 DF92      		push r13
 335 01b8 EF92      		push r14
 336 01ba FF92      		push r15
 337 01bc 0F93      		push r16
 338 01be 1F93      		push r17
 339 01c0 DF93      		push r29
 340 01c2 CF93      		push r28
 341 01c4 CDB7      		in r28,__SP_L__
 342 01c6 DEB7      		in r29,__SP_H__
 343 01c8 6097      		sbiw r28,16
 344 01ca 0FB6      		in __tmp_reg__,__SREG__
 345 01cc F894      		cli
 346 01ce DEBF      		out __SP_H__,r29
 347 01d0 0FBE      		out __SREG__,__tmp_reg__
 348 01d2 CDBF      		out __SP_L__,r28
 349               	/* prologue: function */
 350               	/* frame size = 16 */
 351 01d4 2987      		std Y+9,r18
 352 01d6 3A87      		std Y+10,r19
 353 01d8 4B87      		std Y+11,r20
 354 01da 5C87      		std Y+12,r21
 355 01dc 6D87      		std Y+13,r22
 356 01de 7E87      		std Y+14,r23
 357 01e0 8F87      		std Y+15,r24
 358 01e2 988B      		std Y+16,r25
 359               	.LM51:
 360 01e4 CE01      		movw r24,r28
 361 01e6 0196      		adiw r24,1
 362 01e8 0E94 0000 		call nrk_time_get
 363               	.LM52:
 364 01ec CE01      		movw r24,r28
 365 01ee 0996      		adiw r24,9
 366 01f0 0985      		ldd r16,Y+9
 367 01f2 1A85      		ldd r17,Y+10
 368 01f4 2B85      		ldd r18,Y+11
 369 01f6 3C85      		ldd r19,Y+12
 370 01f8 4D85      		ldd r20,Y+13
 371 01fa 5E85      		ldd r21,Y+14
 372 01fc 6F85      		ldd r22,Y+15
 373 01fe 7889      		ldd r23,Y+16
 374 0200 8980      		ldd r8,Y+1
 375 0202 9A80      		ldd r9,Y+2
 376 0204 AB80      		ldd r10,Y+3
 377 0206 BC80      		ldd r11,Y+4
 378 0208 CD80      		ldd r12,Y+5
 379 020a DE80      		ldd r13,Y+6
 380 020c EF80      		ldd r14,Y+7
 381 020e F884      		ldd r15,Y+8
 382 0210 0E94 0000 		call nrk_time_sub
 383               	.LM53:
 384 0214 8F3F      		cpi r24,lo8(-1)
 385 0216 01F0      		breq .L31
 386               	.LM54:
 387 0218 2985      		ldd r18,Y+9
 388 021a 3A85      		ldd r19,Y+10
 389 021c 4B85      		ldd r20,Y+11
 390 021e 5C85      		ldd r21,Y+12
 391 0220 6D85      		ldd r22,Y+13
 392 0222 7E85      		ldd r23,Y+14
 393 0224 8F85      		ldd r24,Y+15
 394 0226 9889      		ldd r25,Y+16
 395 0228 0E94 0000 		call nrk_wait
 396 022c 81E0      		ldi r24,lo8(1)
 397               	.L31:
 398               	/* epilogue start */
 399               	.LM55:
 400 022e 6096      		adiw r28,16
 401 0230 0FB6      		in __tmp_reg__,__SREG__
 402 0232 F894      		cli
 403 0234 DEBF      		out __SP_H__,r29
 404 0236 0FBE      		out __SREG__,__tmp_reg__
 405 0238 CDBF      		out __SP_L__,r28
 406 023a CF91      		pop r28
 407 023c DF91      		pop r29
 408 023e 1F91      		pop r17
 409 0240 0F91      		pop r16
 410 0242 FF90      		pop r15
 411 0244 EF90      		pop r14
 412 0246 DF90      		pop r13
 413 0248 CF90      		pop r12
 414 024a BF90      		pop r11
 415 024c AF90      		pop r10
 416 024e 9F90      		pop r9
 417 0250 8F90      		pop r8
 418 0252 0895      		ret
 419               	.LFE17:
 421               	.global	nrk_wait_until_nw
 423               	nrk_wait_until_nw:
 424               	.LFB14:
 425               	.LM56:
 426 0254 1F93      		push r17
 427               	/* prologue: function */
 428               	/* frame size = 0 */
 429               	.LM57:
 430 0256 0E94 0000 		call nrk_int_disable
 431               	.LM58:
 432 025a E091 0000 		lds r30,nrk_cur_task_TCB
 433 025e F091 0000 		lds r31,(nrk_cur_task_TCB)+1
 434 0262 81E0      		ldi r24,lo8(1)
 435 0264 8583      		std Z+5,r24
 436               	.LM59:
 437 0266 8683      		std Z+6,r24
 438               	.LM60:
 439 0268 0E94 0000 		call _nrk_os_timer_get
 440 026c 182F      		mov r17,r24
 441               	.LVL13:
 442               	.LM61:
 443 026e 883F      		cpi r24,lo8(-8)
 444 0270 00F4      		brsh .L34
 445               	.LVL14:
 446               	.LM62:
 447 0272 0E94 0000 		call _nrk_get_next_wakeup
 448               	.LVL15:
 449 0276 212F      		mov r18,r17
 450 0278 30E0      		ldi r19,lo8(0)
 451               	.LVL16:
 452 027a 2F5F      		subi r18,lo8(-(1))
 453 027c 3F4F      		sbci r19,hi8(-(1))
 454               	.LVL17:
 455 027e 90E0      		ldi r25,lo8(0)
 456 0280 2817      		cp r18,r24
 457 0282 3907      		cpc r19,r25
 458 0284 04F4      		brge .L34
 459               	.LM63:
 460 0286 812F      		mov r24,r17
 461 0288 8E5F      		subi r24,lo8(-(2))
 462               	.LVL18:
 463               	.LM64:
 464 028a 8093 0000 		sts _nrk_prev_timer_val,r24
 465               	.LM65:
 466 028e 0E94 0000 		call _nrk_set_next_wakeup
 467               	.LVL19:
 468               	.L34:
 469               	.LM66:
 470 0292 0E94 0000 		call nrk_int_enable
 471               	.LVL20:
 472               	.LM67:
 473 0296 0E94 0000 		call _nrk_wait_for_scheduler
 474               	.LM68:
 475 029a 81E0      		ldi r24,lo8(1)
 476               	/* epilogue start */
 477 029c 1F91      		pop r17
 478               	.LVL21:
 479 029e 0895      		ret
 480               	.LFE14:
 482               	.global	nrk_set_next_wakeup
 484               	nrk_set_next_wakeup:
 485               	.LFB13:
 486               	.LM69:
 487 02a0 1F93      		push r17
 488 02a2 DF93      		push r29
 489 02a4 CF93      		push r28
 490 02a6 CDB7      		in r28,__SP_L__
 491 02a8 DEB7      		in r29,__SP_H__
 492 02aa 2897      		sbiw r28,8
 493 02ac 0FB6      		in __tmp_reg__,__SREG__
 494 02ae F894      		cli
 495 02b0 DEBF      		out __SP_H__,r29
 496 02b2 0FBE      		out __SREG__,__tmp_reg__
 497 02b4 CDBF      		out __SP_L__,r28
 498               	/* prologue: function */
 499               	/* frame size = 8 */
 500 02b6 2983      		std Y+1,r18
 501 02b8 3A83      		std Y+2,r19
 502 02ba 4B83      		std Y+3,r20
 503 02bc 5C83      		std Y+4,r21
 504 02be 6D83      		std Y+5,r22
 505 02c0 7E83      		std Y+6,r23
 506 02c2 8F83      		std Y+7,r24
 507 02c4 9887      		std Y+8,r25
 508               	.LM70:
 509 02c6 0E94 0000 		call nrk_int_disable
 510               	.LM71:
 511 02ca 0E94 0000 		call _nrk_os_timer_get
 512 02ce 182F      		mov r17,r24
 513               	.LVL22:
 514               	.LM72:
 515 02d0 CE01      		movw r24,r28
 516 02d2 0196      		adiw r24,1
 517 02d4 0E94 0000 		call _nrk_time_to_ticks
 518               	.LM73:
 519 02d8 8330      		cpi r24,3
 520 02da 9105      		cpc r25,__zero_reg__
 521               	.LVL23:
 522 02dc 00F4      		brsh .L37
 523 02de 8FEF      		ldi r24,lo8(-1)
 524               	.LVL24:
 525 02e0 00C0      		rjmp .L38
 526               	.LVL25:
 527               	.L37:
 528               	.LM74:
 529 02e2 E091 0000 		lds r30,nrk_cur_task_TCB
 530 02e6 F091 0000 		lds r31,(nrk_cur_task_TCB)+1
 531 02ea 810F      		add r24,r17
 532 02ec 911D      		adc r25,__zero_reg__
 533 02ee 908F      		std Z+24,r25
 534 02f0 878B      		std Z+23,r24
 535               	.LM75:
 536 02f2 0E94 0000 		call nrk_int_enable
 537               	.LVL26:
 538 02f6 81E0      		ldi r24,lo8(1)
 539               	.L38:
 540               	/* epilogue start */
 541               	.LM76:
 542 02f8 2896      		adiw r28,8
 543 02fa 0FB6      		in __tmp_reg__,__SREG__
 544 02fc F894      		cli
 545 02fe DEBF      		out __SP_H__,r29
 546 0300 0FBE      		out __SREG__,__tmp_reg__
 547 0302 CDBF      		out __SP_L__,r28
 548 0304 CF91      		pop r28
 549 0306 DF91      		pop r29
 550 0308 1F91      		pop r17
 551               	.LVL27:
 552 030a 0895      		ret
 553               	.LFE13:
 555               	.global	nrk_wait_until_ticks
 557               	nrk_wait_until_ticks:
 558               	.LFB12:
 559               	.LM77:
 560               	.LVL28:
 561 030c 0F93      		push r16
 562 030e 1F93      		push r17
 563               	/* prologue: function */
 564               	/* frame size = 0 */
 565 0310 8C01      		movw r16,r24
 566               	.LM78:
 567 0312 0E94 0000 		call nrk_int_disable
 568               	.LVL29:
 569               	.LM79:
 570 0316 E091 0000 		lds r30,nrk_cur_task_TCB
 571 031a F091 0000 		lds r31,(nrk_cur_task_TCB)+1
 572 031e 81E0      		ldi r24,lo8(1)
 573 0320 8583      		std Z+5,r24
 574               	.LM80:
 575 0322 108F      		std Z+24,r17
 576 0324 078B      		std Z+23,r16
 577               	.LM81:
 578 0326 0E94 0000 		call _nrk_os_timer_get
 579 032a 082F      		mov r16,r24
 580               	.LVL30:
 581               	.LM82:
 582 032c 883F      		cpi r24,lo8(-8)
 583 032e 00F4      		brsh .L41
 584               	.LVL31:
 585               	.LM83:
 586 0330 0E94 0000 		call _nrk_get_next_wakeup
 587               	.LVL32:
 588 0334 202F      		mov r18,r16
 589 0336 30E0      		ldi r19,lo8(0)
 590               	.LVL33:
 591 0338 2F5F      		subi r18,lo8(-(1))
 592 033a 3F4F      		sbci r19,hi8(-(1))
 593               	.LVL34:
 594 033c 90E0      		ldi r25,lo8(0)
 595 033e 2817      		cp r18,r24
 596 0340 3907      		cpc r19,r25
 597 0342 04F4      		brge .L41
 598               	.LM84:
 599 0344 802F      		mov r24,r16
 600 0346 8E5F      		subi r24,lo8(-(2))
 601               	.LVL35:
 602               	.LM85:
 603 0348 8093 0000 		sts _nrk_prev_timer_val,r24
 604               	.LM86:
 605 034c 0E94 0000 		call _nrk_set_next_wakeup
 606               	.LVL36:
 607               	.L41:
 608               	.LM87:
 609 0350 0E94 0000 		call nrk_int_enable
 610               	.LVL37:
 611               	.LM88:
 612 0354 0E94 0000 		call _nrk_wait_for_scheduler
 613               	.LM89:
 614 0358 81E0      		ldi r24,lo8(1)
 615               	/* epilogue start */
 616 035a 1F91      		pop r17
 617 035c 0F91      		pop r16
 618               	.LVL38:
 619 035e 0895      		ret
 620               	.LFE12:
 622               	.global	nrk_wait_ticks
 624               	nrk_wait_ticks:
 625               	.LFB11:
 626               	.LM90:
 627               	.LVL39:
 628 0360 FF92      		push r15
 629 0362 0F93      		push r16
 630 0364 1F93      		push r17
 631 0366 CF93      		push r28
 632 0368 DF93      		push r29
 633               	/* prologue: function */
 634               	/* frame size = 0 */
 635 036a 8C01      		movw r16,r24
 636               	.LM91:
 637 036c 0E94 0000 		call nrk_int_disable
 638               	.LVL40:
 639               	.LM92:
 640 0370 E091 0000 		lds r30,nrk_cur_task_TCB
 641 0374 F091 0000 		lds r31,(nrk_cur_task_TCB)+1
 642 0378 81E0      		ldi r24,lo8(1)
 643 037a 8583      		std Z+5,r24
 644               	.LM93:
 645 037c 0E94 0000 		call _nrk_os_timer_get
 646 0380 F82E      		mov r15,r24
 647               	.LVL41:
 648               	.LM94:
 649 0382 E091 0000 		lds r30,nrk_cur_task_TCB
 650 0386 F091 0000 		lds r31,(nrk_cur_task_TCB)+1
 651 038a C82F      		mov r28,r24
 652 038c D0E0      		ldi r29,lo8(0)
 653               	.LVL42:
 654 038e 0C0F      		add r16,r28
 655 0390 1D1F      		adc r17,r29
 656 0392 108F      		std Z+24,r17
 657 0394 078B      		std Z+23,r16
 658               	.LM95:
 659 0396 87EF      		ldi r24,lo8(-9)
 660 0398 8F15      		cp r24,r15
 661 039a 00F0      		brlo .L44
 662               	.LM96:
 663 039c 0E94 0000 		call _nrk_get_next_wakeup
 664 03a0 2196      		adiw r28,1
 665               	.LVL43:
 666 03a2 90E0      		ldi r25,lo8(0)
 667 03a4 C817      		cp r28,r24
 668 03a6 D907      		cpc r29,r25
 669 03a8 04F4      		brge .L44
 670               	.LM97:
 671 03aa 8F2D      		mov r24,r15
 672 03ac 8E5F      		subi r24,lo8(-(2))
 673               	.LVL44:
 674               	.LM98:
 675 03ae 8093 0000 		sts _nrk_prev_timer_val,r24
 676               	.LM99:
 677 03b2 0E94 0000 		call _nrk_set_next_wakeup
 678               	.LVL45:
 679               	.L44:
 680               	.LM100:
 681 03b6 0E94 0000 		call nrk_int_enable
 682               	.LM101:
 683 03ba 0E94 0000 		call _nrk_wait_for_scheduler
 684               	.LM102:
 685 03be 81E0      		ldi r24,lo8(1)
 686               	/* epilogue start */
 687 03c0 DF91      		pop r29
 688               	.LVL46:
 689 03c2 CF91      		pop r28
 690               	.LVL47:
 691 03c4 1F91      		pop r17
 692 03c6 0F91      		pop r16
 693               	.LVL48:
 694 03c8 FF90      		pop r15
 695               	.LVL49:
 696 03ca 0895      		ret
 697               	.LFE11:
 699               	.global	nrk_wait_until_next_n_periods
 701               	nrk_wait_until_next_n_periods:
 702               	.LFB10:
 703               	.LM103:
 704               	.LVL50:
 705 03cc 1F93      		push r17
 706 03ce CF93      		push r28
 707 03d0 DF93      		push r29
 708               	/* prologue: function */
 709               	/* frame size = 0 */
 710 03d2 EC01      		movw r28,r24
 711               	.LM104:
 712 03d4 0E94 0000 		call nrk_stack_check
 713               	.LVL51:
 714               	.LM105:
 715 03d8 2097      		sbiw r28,0
 716 03da 01F4      		brne .L47
 717 03dc C1E0      		ldi r28,lo8(1)
 718 03de D0E0      		ldi r29,hi8(1)
 719               	.L47:
 720               	.LM106:
 721 03e0 0E94 0000 		call nrk_int_disable
 722               	.LM107:
 723 03e4 E091 0000 		lds r30,nrk_cur_task_TCB
 724 03e8 F091 0000 		lds r31,(nrk_cur_task_TCB)+1
 725 03ec 81E0      		ldi r24,lo8(1)
 726 03ee 8583      		std Z+5,r24
 727               	.LM108:
 728 03f0 D2A3      		std Z+34,r29
 729 03f2 C1A3      		std Z+33,r28
 730               	.LM109:
 731 03f4 0E94 0000 		call _nrk_os_timer_get
 732 03f8 182F      		mov r17,r24
 733               	.LVL52:
 734               	.LM110:
 735 03fa 883F      		cpi r24,lo8(-8)
 736 03fc 00F4      		brsh .L48
 737               	.LVL53:
 738               	.LM111:
 739 03fe 0E94 0000 		call _nrk_get_next_wakeup
 740               	.LVL54:
 741 0402 212F      		mov r18,r17
 742 0404 30E0      		ldi r19,lo8(0)
 743               	.LVL55:
 744 0406 2F5F      		subi r18,lo8(-(1))
 745 0408 3F4F      		sbci r19,hi8(-(1))
 746               	.LVL56:
 747 040a 90E0      		ldi r25,lo8(0)
 748 040c 2817      		cp r18,r24
 749 040e 3907      		cpc r19,r25
 750 0410 04F4      		brge .L48
 751               	.LM112:
 752 0412 812F      		mov r24,r17
 753 0414 8E5F      		subi r24,lo8(-(2))
 754               	.LVL57:
 755               	.LM113:
 756 0416 8093 0000 		sts _nrk_prev_timer_val,r24
 757               	.LM114:
 758 041a 0E94 0000 		call _nrk_set_next_wakeup
 759               	.LVL58:
 760               	.L48:
 761               	.LM115:
 762 041e 0E94 0000 		call nrk_int_enable
 763               	.LVL59:
 764               	.LM116:
 765 0422 0E94 0000 		call _nrk_wait_for_scheduler
 766               	.LM117:
 767 0426 81E0      		ldi r24,lo8(1)
 768               	/* epilogue start */
 769 0428 DF91      		pop r29
 770 042a CF91      		pop r28
 771               	.LVL60:
 772 042c 1F91      		pop r17
 773               	.LVL61:
 774 042e 0895      		ret
 775               	.LFE10:
 777               	.global	nrk_wait_until_next_period
 779               	nrk_wait_until_next_period:
 780               	.LFB9:
 781               	.LM118:
 782 0430 1F93      		push r17
 783               	/* prologue: function */
 784               	/* frame size = 0 */
 785               	.LM119:
 786 0432 0E94 0000 		call nrk_stack_check
 787               	.LM120:
 788 0436 0E94 0000 		call nrk_int_disable
 789               	.LM121:
 790 043a E091 0000 		lds r30,nrk_cur_task_TCB
 791 043e F091 0000 		lds r31,(nrk_cur_task_TCB)+1
 792 0442 81E0      		ldi r24,lo8(1)
 793 0444 90E0      		ldi r25,hi8(1)
 794 0446 92A3      		std Z+34,r25
 795 0448 81A3      		std Z+33,r24
 796               	.LM122:
 797 044a 81E0      		ldi r24,lo8(1)
 798 044c 8583      		std Z+5,r24
 799               	.LM123:
 800 044e 818D      		ldd r24,Z+25
 801 0450 928D      		ldd r25,Z+26
 802 0452 908F      		std Z+24,r25
 803 0454 878B      		std Z+23,r24
 804               	.LM124:
 805 0456 0E94 0000 		call _nrk_os_timer_get
 806 045a 182F      		mov r17,r24
 807               	.LVL62:
 808               	.LM125:
 809 045c 883F      		cpi r24,lo8(-8)
 810 045e 00F4      		brsh .L51
 811               	.LVL63:
 812               	.LM126:
 813 0460 0E94 0000 		call _nrk_get_next_wakeup
 814               	.LVL64:
 815 0464 212F      		mov r18,r17
 816 0466 30E0      		ldi r19,lo8(0)
 817               	.LVL65:
 818 0468 2F5F      		subi r18,lo8(-(1))
 819 046a 3F4F      		sbci r19,hi8(-(1))
 820               	.LVL66:
 821 046c 90E0      		ldi r25,lo8(0)
 822 046e 2817      		cp r18,r24
 823 0470 3907      		cpc r19,r25
 824 0472 04F4      		brge .L51
 825               	.LM127:
 826 0474 812F      		mov r24,r17
 827 0476 8E5F      		subi r24,lo8(-(2))
 828               	.LVL67:
 829               	.LM128:
 830 0478 8093 0000 		sts _nrk_prev_timer_val,r24
 831               	.LM129:
 832 047c 0E94 0000 		call _nrk_set_next_wakeup
 833               	.LVL68:
 834               	.L51:
 835               	.LM130:
 836 0480 0E94 0000 		call nrk_int_enable
 837               	.LVL69:
 838               	.LM131:
 839 0484 0E94 0000 		call _nrk_wait_for_scheduler
 840               	.LM132:
 841 0488 81E0      		ldi r24,lo8(1)
 842               	/* epilogue start */
 843 048a 1F91      		pop r17
 844               	.LVL70:
 845 048c 0895      		ret
 846               	.LFE9:
 848               	.global	nrk_terminate_task
 850               	nrk_terminate_task:
 851               	.LFB8:
 852               	.LM133:
 853               	/* prologue: function */
 854               	/* frame size = 0 */
 855               	.LM134:
 856 048e E091 0000 		lds r30,nrk_cur_task_TCB
 857 0492 F091 0000 		lds r31,(nrk_cur_task_TCB)+1
 858 0496 8085      		ldd r24,Z+8
 859 0498 0E94 0000 		call nrk_rem_from_readyQ
 860               	.LM135:
 861 049c E091 0000 		lds r30,nrk_cur_task_TCB
 862 04a0 F091 0000 		lds r31,(nrk_cur_task_TCB)+1
 863 04a4 84E0      		ldi r24,lo8(4)
 864 04a6 8187      		std Z+9,r24
 865               	.LM136:
 866 04a8 0E94 0000 		call nrk_wait_until_next_period
 867               	.LM137:
 868 04ac 81E0      		ldi r24,lo8(1)
 869               	/* epilogue start */
 870 04ae 0895      		ret
 871               	.LFE8:
 873               	.global	nrk_add_to_readyQ
 875               	nrk_add_to_readyQ:
 876               	.LFB5:
 877               	.LM138:
 878               	.LVL71:
 879 04b0 BF92      		push r11
 880 04b2 CF92      		push r12
 881 04b4 DF92      		push r13
 882 04b6 EF92      		push r14
 883 04b8 FF92      		push r15
 884 04ba 0F93      		push r16
 885 04bc 1F93      		push r17
 886 04be CF93      		push r28
 887 04c0 DF93      		push r29
 888               	/* prologue: function */
 889               	/* frame size = 0 */
 890 04c2 B82E      		mov r11,r24
 891               	.LM139:
 892 04c4 0091 0000 		lds r16,_head_node
 893 04c8 1091 0000 		lds r17,(_head_node)+1
 894               	.LVL72:
 895               	.LM140:
 896 04cc C091 0000 		lds r28,_free_node
 897 04d0 D091 0000 		lds r29,(_free_node)+1
 898               	.LVL73:
 899               	.LM141:
 900 04d4 2097      		sbiw r28,0
 901 04d6 01F4      		brne .+2
 902 04d8 00C0      		rjmp .L65
 903               	.LVL74:
 904               	.LM142:
 905 04da 0115      		cp r16,__zero_reg__
 906 04dc 1105      		cpc r17,__zero_reg__
 907 04de 01F4      		brne .+2
 908 04e0 00C0      		rjmp .L57
 909               	.LM143:
 910 04e2 0E94 0000 		call system_ceiling
 911               	.LM144:
 912 04e6 2B2D      		mov r18,r11
 913 04e8 3327      		clr r19
 914 04ea 27FD      		sbrc r18,7
 915 04ec 3095      		com r19
 916 04ee 83E2      		ldi r24,lo8(35)
 917 04f0 90E0      		ldi r25,hi8(35)
 918 04f2 289F      		mul r18,r24
 919 04f4 F001      		movw r30,r0
 920 04f6 299F      		mul r18,r25
 921 04f8 F00D      		add r31,r0
 922 04fa 389F      		mul r19,r24
 923 04fc F00D      		add r31,r0
 924 04fe 1124      		clr r1
 925 0500 E050      		subi r30,lo8(-(nrk_task_TCB))
 926 0502 F040      		sbci r31,hi8(-(nrk_task_TCB))
 927 0504 8589      		ldd r24,Z+21
 928 0506 90E0      		ldi r25,lo8(0)
 929 0508 A0E0      		ldi r26,lo8(0)
 930 050a B0E0      		ldi r27,hi8(0)
 931 050c 2091 0000 		lds r18,systemCeiling
 932 0510 3091 0000 		lds r19,(systemCeiling)+1
 933 0514 4091 0000 		lds r20,(systemCeiling)+2
 934 0518 5091 0000 		lds r21,(systemCeiling)+3
 935 051c 2817      		cp r18,r24
 936 051e 3907      		cpc r19,r25
 937 0520 4A07      		cpc r20,r26
 938 0522 5B07      		cpc r21,r27
 939 0524 00F4      		brsh .+2
 940 0526 00C0      		rjmp .L57
 941               	.LM145:
 942 0528 C18C      		ldd r12,Z+25
 943 052a D28C      		ldd r13,Z+26
 944 052c 43E2      		ldi r20,lo8(35)
 945 052e 50E0      		ldi r21,hi8(35)
 946               	.LM146:
 947 0530 BF01      		movw r22,r30
 948 0532 665F      		subi r22,lo8(-(10))
 949 0534 7F4F      		sbci r23,hi8(-(10))
 950               	.LM147:
 951 0536 84E0      		ldi r24,lo8(4)
 952 0538 E82E      		mov r14,r24
 953 053a F12C      		mov r15,__zero_reg__
 954 053c EE0E      		add r14,r30
 955 053e FF1E      		adc r15,r31
 956               	.LM148:
 957 0540 DF01      		movw r26,r30
 958 0542 1B96      		adiw r26,11
 959               	.L60:
 960               	.LM149:
 961 0544 F801      		movw r30,r16
 962 0546 8081      		ld r24,Z
 963 0548 282F      		mov r18,r24
 964 054a 30E0      		ldi r19,lo8(0)
 965 054c 249F      		mul r18,r20
 966 054e F001      		movw r30,r0
 967 0550 259F      		mul r18,r21
 968 0552 F00D      		add r31,r0
 969 0554 349F      		mul r19,r20
 970 0556 F00D      		add r31,r0
 971 0558 1124      		clr r1
 972 055a E050      		subi r30,lo8(-(nrk_task_TCB))
 973 055c F040      		sbci r31,hi8(-(nrk_task_TCB))
 974 055e 818D      		ldd r24,Z+25
 975 0560 928D      		ldd r25,Z+26
 976 0562 C816      		cp r12,r24
 977 0564 D906      		cpc r13,r25
 978 0566 00F0      		brlo .L57
 979               	.LM150:
 980 0568 8481      		ldd r24,Z+4
 981 056a 8823      		tst r24
 982 056c 01F0      		breq .L58
 983               	.LM151:
 984 056e 9385      		ldd r25,Z+11
 985 0570 FB01      		movw r30,r22
 986 0572 8081      		ld r24,Z
 987 0574 9817      		cp r25,r24
 988 0576 00F0      		brlo .L57
 989               	.L58:
 990               	.LM152:
 991 0578 F701      		movw r30,r14
 992 057a 8081      		ld r24,Z
 993 057c 8823      		tst r24
 994 057e 01F0      		breq .L59
 995               	.LM153:
 996 0580 249F      		mul r18,r20
 997 0582 F001      		movw r30,r0
 998 0584 259F      		mul r18,r21
 999 0586 F00D      		add r31,r0
 1000 0588 349F      		mul r19,r20
 1001 058a F00D      		add r31,r0
 1002 058c 1124      		clr r1
 1003 058e E050      		subi r30,lo8(-(nrk_task_TCB))
 1004 0590 F040      		sbci r31,hi8(-(nrk_task_TCB))
 1005 0592 9285      		ldd r25,Z+10
 1006 0594 8C91      		ld r24,X
 1007 0596 9817      		cp r25,r24
 1008 0598 00F0      		brlo .L57
 1009               	.L59:
 1010               	.LM154:
 1011 059a 249F      		mul r18,r20
 1012 059c F001      		movw r30,r0
 1013 059e 259F      		mul r18,r21
 1014 05a0 F00D      		add r31,r0
 1015 05a2 349F      		mul r19,r20
 1016 05a4 F00D      		add r31,r0
 1017 05a6 1124      		clr r1
 1018 05a8 E050      		subi r30,lo8(-(nrk_task_TCB))
 1019 05aa F040      		sbci r31,hi8(-(nrk_task_TCB))
 1020 05ac 9285      		ldd r25,Z+10
 1021 05ae FB01      		movw r30,r22
 1022 05b0 8081      		ld r24,Z
 1023 05b2 9817      		cp r25,r24
 1024 05b4 00F0      		brlo .L57
 1025               	.LM155:
 1026 05b6 F801      		movw r30,r16
 1027 05b8 0381      		ldd r16,Z+3
 1028 05ba 1481      		ldd r17,Z+4
 1029               	.LM156:
 1030 05bc 0115      		cp r16,__zero_reg__
 1031 05be 1105      		cpc r17,__zero_reg__
 1032 05c0 01F4      		brne .L60
 1033               	.LVL75:
 1034               	.L57:
 1035               	.LM157:
 1036 05c2 B882      		st Y,r11
 1037               	.LM158:
 1038 05c4 E091 0000 		lds r30,_free_node
 1039 05c8 F091 0000 		lds r31,(_free_node)+1
 1040 05cc 0380      		ldd __tmp_reg__,Z+3
 1041 05ce F481      		ldd r31,Z+4
 1042 05d0 E02D      		mov r30,__tmp_reg__
 1043 05d2 F093 0000 		sts (_free_node)+1,r31
 1044 05d6 E093 0000 		sts _free_node,r30
 1045               	.LM159:
 1046 05da 8091 0000 		lds r24,_head_node
 1047 05de 9091 0000 		lds r25,(_head_node)+1
 1048 05e2 0817      		cp r16,r24
 1049 05e4 1907      		cpc r17,r25
 1050 05e6 01F4      		brne .L61
 1051               	.LM160:
 1052 05e8 0115      		cp r16,__zero_reg__
 1053 05ea 1105      		cpc r17,__zero_reg__
 1054 05ec 01F0      		breq .L62
 1055               	.LM161:
 1056 05ee 1C83      		std Y+4,r17
 1057 05f0 0B83      		std Y+3,r16
 1058               	.LM162:
 1059 05f2 1A82      		std Y+2,__zero_reg__
 1060 05f4 1982      		std Y+1,__zero_reg__
 1061               	.LM163:
 1062 05f6 D801      		movw r26,r16
 1063 05f8 1296      		adiw r26,1+1
 1064 05fa DC93      		st X,r29
 1065 05fc CE93      		st -X,r28
 1066 05fe 1197      		sbiw r26,1
 1067 0600 00C0      		rjmp .L63
 1068               	.L62:
 1069               	.LM164:
 1070 0602 1C82      		std Y+4,__zero_reg__
 1071 0604 1B82      		std Y+3,__zero_reg__
 1072               	.LM165:
 1073 0606 1A82      		std Y+2,__zero_reg__
 1074 0608 1982      		std Y+1,__zero_reg__
 1075               	.LM166:
 1076 060a D283      		std Z+2,r29
 1077 060c C183      		std Z+1,r28
 1078               	.L63:
 1079               	.LM167:
 1080 060e D093 0000 		sts (_head_node)+1,r29
 1081 0612 C093 0000 		sts _head_node,r28
 1082 0616 00C0      		rjmp .L65
 1083               	.L61:
 1084 0618 D801      		movw r26,r16
 1085 061a 1196      		adiw r26,1
 1086 061c 8D91      		ld r24,X+
 1087 061e 9C91      		ld r25,X
 1088 0620 1297      		sbiw r26,1+1
 1089               	.LM168:
 1090 0622 0E17      		cp r16,r30
 1091 0624 1F07      		cpc r17,r31
 1092 0626 01F0      		breq .L64
 1093               	.LM169:
 1094 0628 9A83      		std Y+2,r25
 1095 062a 8983      		std Y+1,r24
 1096               	.LM170:
 1097 062c 1C83      		std Y+4,r17
 1098 062e 0B83      		std Y+3,r16
 1099               	.LM171:
 1100 0630 1196      		adiw r26,1
 1101 0632 ED91      		ld r30,X+
 1102 0634 FC91      		ld r31,X
 1103 0636 1297      		sbiw r26,1+1
 1104 0638 D483      		std Z+4,r29
 1105 063a C383      		std Z+3,r28
 1106               	.LM172:
 1107 063c 1296      		adiw r26,1+1
 1108 063e DC93      		st X,r29
 1109 0640 CE93      		st -X,r28
 1110 0642 1197      		sbiw r26,1
 1111 0644 00C0      		rjmp .L65
 1112               	.L64:
 1113               	.LM173:
 1114 0646 1C82      		std Y+4,__zero_reg__
 1115 0648 1B82      		std Y+3,__zero_reg__
 1116               	.LM174:
 1117 064a 9A83      		std Y+2,r25
 1118 064c 8983      		std Y+1,r24
 1119               	.LM175:
 1120 064e F801      		movw r30,r16
 1121 0650 D283      		std Z+2,r29
 1122 0652 C183      		std Z+1,r28
 1123               	.LVL76:
 1124               	.L65:
 1125               	/* epilogue start */
 1126               	.LM176:
 1127 0654 DF91      		pop r29
 1128 0656 CF91      		pop r28
 1129               	.LVL77:
 1130 0658 1F91      		pop r17
 1131 065a 0F91      		pop r16
 1132               	.LVL78:
 1133 065c FF90      		pop r15
 1134 065e EF90      		pop r14
 1135 0660 DF90      		pop r13
 1136 0662 CF90      		pop r12
 1137 0664 BF90      		pop r11
 1138               	.LVL79:
 1139 0666 0895      		ret
 1140               	.LFE5:
 1142               	.global	nrk_activate_task
 1144               	nrk_activate_task:
 1145               	.LFB7:
 1146               	.LM177:
 1147               	.LVL80:
 1148 0668 EF92      		push r14
 1149 066a FF92      		push r15
 1150 066c 0F93      		push r16
 1151 066e 1F93      		push r17
 1152 0670 CF93      		push r28
 1153 0672 DF93      		push r29
 1154               	/* prologue: function */
 1155               	/* frame size = 0 */
 1156 0674 EC01      		movw r28,r24
 1157               	.LM178:
 1158 0676 6981      		ldd r22,Y+1
 1159 0678 7A81      		ldd r23,Y+2
 1160 067a 4B81      		ldd r20,Y+3
 1161 067c 5C81      		ldd r21,Y+4
 1162 067e 8D81      		ldd r24,Y+5
 1163 0680 9E81      		ldd r25,Y+6
 1164               	.LVL81:
 1165 0682 0E94 0000 		call nrk_task_stk_init
 1166 0686 BC01      		movw r22,r24
 1167               	.LVL82:
 1168               	.LM179:
 1169 0688 8F81      		ldd r24,Y+7
 1170 068a 8823      		tst r24
 1171 068c 01F0      		breq .L68
 1172               	.LM180:
 1173 068e 4B81      		ldd r20,Y+3
 1174 0690 5C81      		ldd r21,Y+4
 1175 0692 CE01      		movw r24,r28
 1176 0694 20E0      		ldi r18,lo8(0)
 1177 0696 30E0      		ldi r19,hi8(0)
 1178 0698 00E0      		ldi r16,lo8(0)
 1179 069a 10E0      		ldi r17,hi8(0)
 1180 069c EE24      		clr r14
 1181 069e FF24      		clr r15
 1182 06a0 0E94 0000 		call nrk_TCB_init
 1183               	.LVL83:
 1184               	.LM181:
 1185 06a4 1F82      		std Y+7,__zero_reg__
 1186 06a6 00C0      		rjmp .L69
 1187               	.LVL84:
 1188               	.L68:
 1189               	.LM182:
 1190 06a8 8881      		ld r24,Y
 1191 06aa 9927      		clr r25
 1192 06ac 87FD      		sbrc r24,7
 1193 06ae 9095      		com r25
 1194 06b0 23E2      		ldi r18,lo8(35)
 1195 06b2 30E0      		ldi r19,hi8(35)
 1196 06b4 829F      		mul r24,r18
 1197 06b6 F001      		movw r30,r0
 1198 06b8 839F      		mul r24,r19
 1199 06ba F00D      		add r31,r0
 1200 06bc 929F      		mul r25,r18
 1201 06be F00D      		add r31,r0
 1202 06c0 1124      		clr r1
 1203 06c2 E050      		subi r30,lo8(-(nrk_task_TCB))
 1204 06c4 F040      		sbci r31,hi8(-(nrk_task_TCB))
 1205 06c6 8185      		ldd r24,Z+9
 1206 06c8 8330      		cpi r24,lo8(3)
 1207 06ca 01F0      		breq .L70
 1208 06cc 8FEF      		ldi r24,lo8(-1)
 1209 06ce 00C0      		rjmp .L71
 1210               	.L70:
 1211               	.LM183:
 1212 06d0 7183      		std Z+1,r23
 1213 06d2 6083      		st Z,r22
 1214               	.L69:
 1215               	.LM184:
 1216 06d4 8881      		ld r24,Y
 1217 06d6 9927      		clr r25
 1218 06d8 87FD      		sbrc r24,7
 1219 06da 9095      		com r25
 1220 06dc 23E2      		ldi r18,lo8(35)
 1221 06de 30E0      		ldi r19,hi8(35)
 1222 06e0 829F      		mul r24,r18
 1223 06e2 F001      		movw r30,r0
 1224 06e4 839F      		mul r24,r19
 1225 06e6 F00D      		add r31,r0
 1226 06e8 929F      		mul r25,r18
 1227 06ea F00D      		add r31,r0
 1228 06ec 1124      		clr r1
 1229 06ee E050      		subi r30,lo8(-(nrk_task_TCB))
 1230 06f0 F040      		sbci r31,hi8(-(nrk_task_TCB))
 1231 06f2 8789      		ldd r24,Z+23
 1232 06f4 908D      		ldd r25,Z+24
 1233 06f6 892B      		or r24,r25
 1234 06f8 01F4      		brne .L74
 1235               	.L72:
 1236               	.LM185:
 1237 06fa 82E0      		ldi r24,lo8(2)
 1238 06fc 8187      		std Z+9,r24
 1239               	.LM186:
 1240 06fe 8881      		ld r24,Y
 1241 0700 0E94 0000 		call nrk_add_to_readyQ
 1242               	.LVL85:
 1243               	.L74:
 1244 0704 81E0      		ldi r24,lo8(1)
 1245               	.L71:
 1246               	/* epilogue start */
 1247               	.LM187:
 1248 0706 DF91      		pop r29
 1249 0708 CF91      		pop r28
 1250               	.LVL86:
 1251 070a 1F91      		pop r17
 1252 070c 0F91      		pop r16
 1253 070e FF90      		pop r15
 1254 0710 EF90      		pop r14
 1255 0712 0895      		ret
 1256               	.LFE7:
 1258               		.comm systemCeiling,4,1
 1259               		.comm _nrk_signal_list,4,1
 1260               		.comm nrk_idle_task_stk,128,1
 1261               		.comm nrk_kernel_stk_ptr,2,1
 1262               		.comm nrk_task_TCB,175,1
 1263               		.comm nrk_wakeup_signal,1,1
 1264               		.comm _nrk_readyQ,30,1
 1265               		.comm _free_node,2,1
 1266               		.comm _head_node,2,1
 1267               		.comm nrk_cur_task_prio,1,1
 1268               		.comm nrk_cur_task_TCB,2,1
 1269               		.comm nrk_high_ready_prio,1,1
 1270               		.comm nrk_high_ready_TCB,2,1
 1271               		.comm _nrk_resource_cnt,1,1
 1272               		.comm nrk_system_time,8,1
 1273               		.comm _nrk_prev_timer_val,1,1
 1274               		.comm _nrk_time_trigger,1,1
 1275               		.comm app_timer0_callback,2,1
 1276               		.comm app_timer0_prescale,1,1
 1277               		.comm _nrk_cpu_state,1,1
 1278               		.comm next_next_wakeup,2,1
 1279               		.comm error_task,1,1
 1280               		.comm error_num,1,1
 1281               		.comm nrk_sem_list,3,1
 1426               	.Letext0:
DEFINED SYMBOLS
                            *ABS*:00000000 nrk_task.c
C:\cygwin\tmp/ccWlqPPj.s:2      *ABS*:0000003f __SREG__
C:\cygwin\tmp/ccWlqPPj.s:3      *ABS*:0000003e __SP_H__
C:\cygwin\tmp/ccWlqPPj.s:4      *ABS*:0000003d __SP_L__
C:\cygwin\tmp/ccWlqPPj.s:5      *ABS*:00000034 __CCP__
C:\cygwin\tmp/ccWlqPPj.s:6      *ABS*:00000000 __tmp_reg__
C:\cygwin\tmp/ccWlqPPj.s:7      *ABS*:00000001 __zero_reg__
C:\cygwin\tmp/ccWlqPPj.s:18     .text:00000000 nrk_get_high_ready_task_ID
                            *COM*:00000002 _head_node
C:\cygwin\tmp/ccWlqPPj.s:34     .text:0000000c nrk_print_readyQ
C:\cygwin\tmp/ccWlqPPj.s:60     .text:00000022 nrk_rem_from_readyQ
                            *COM*:00000002 _free_node
C:\cygwin\tmp/ccWlqPPj.s:182    .text:000000e0 nrk_get_pid
                            *COM*:00000002 nrk_cur_task_TCB
C:\cygwin\tmp/ccWlqPPj.s:198    .text:000000ec _nrk_wait_for_scheduler
C:\cygwin\tmp/ccWlqPPj.s:219    .text:00000100 nrk_wait
                            *COM*:00000001 _nrk_prev_timer_val
C:\cygwin\tmp/ccWlqPPj.s:326    .text:000001ac nrk_wait_until
C:\cygwin\tmp/ccWlqPPj.s:423    .text:00000254 nrk_wait_until_nw
C:\cygwin\tmp/ccWlqPPj.s:484    .text:000002a0 nrk_set_next_wakeup
C:\cygwin\tmp/ccWlqPPj.s:557    .text:0000030c nrk_wait_until_ticks
C:\cygwin\tmp/ccWlqPPj.s:624    .text:00000360 nrk_wait_ticks
C:\cygwin\tmp/ccWlqPPj.s:701    .text:000003cc nrk_wait_until_next_n_periods
C:\cygwin\tmp/ccWlqPPj.s:779    .text:00000430 nrk_wait_until_next_period
C:\cygwin\tmp/ccWlqPPj.s:850    .text:0000048e nrk_terminate_task
C:\cygwin\tmp/ccWlqPPj.s:875    .text:000004b0 nrk_add_to_readyQ
                            *COM*:000000af nrk_task_TCB
                            *COM*:00000004 systemCeiling
C:\cygwin\tmp/ccWlqPPj.s:1144   .text:00000668 nrk_activate_task
                            *COM*:00000004 _nrk_signal_list
                            *COM*:00000080 nrk_idle_task_stk
                            *COM*:00000002 nrk_kernel_stk_ptr
                            *COM*:00000001 nrk_wakeup_signal
                            *COM*:0000001e _nrk_readyQ
                            *COM*:00000001 nrk_cur_task_prio
                            *COM*:00000001 nrk_high_ready_prio
                            *COM*:00000002 nrk_high_ready_TCB
                            *COM*:00000001 _nrk_resource_cnt
                            *COM*:00000008 nrk_system_time
                            *COM*:00000001 _nrk_time_trigger
                            *COM*:00000002 app_timer0_callback
                            *COM*:00000001 app_timer0_prescale
                            *COM*:00000001 _nrk_cpu_state
                            *COM*:00000002 next_next_wakeup
                            *COM*:00000001 error_task
                            *COM*:00000001 error_num
                            *COM*:00000003 nrk_sem_list

UNDEFINED SYMBOLS
nrk_idle
nrk_stack_check
nrk_int_disable
_nrk_os_timer_get
_nrk_time_to_ticks
_nrk_get_next_wakeup
_nrk_set_next_wakeup
nrk_int_enable
nrk_time_get
nrk_time_sub
system_ceiling
nrk_task_stk_init
nrk_TCB_init
__do_clear_bss
