   1               		.file	"basic_rf.c"
   2               	__SREG__ = 0x3f
   3               	__SP_H__ = 0x3e
   4               	__SP_L__ = 0x3d
   5               	__CCP__  = 0x34
   6               	__tmp_reg__ = 0
   7               	__zero_reg__ = 1
  15               	.Ltext0:
  16               	.global	rf_power_down
  18               	rf_power_down:
  19               	.LFB5:
  20               	.LM1:
  21               	/* prologue: function */
  22               	/* frame size = 0 */
  23               	.LM2:
  24               	/* #APP */
  25               	 ;  68 "../../../src/radio/cc2420/source/basic_rf.c" 1
  26 0000 F894      		cli
  27               		
  28               	 ;  0 "" 2
  29               	.LM3:
  30               	/* #NOAPP */
  31 0002 C098      		cbi 56-32,0
  32 0004 87E0      		ldi r24,lo8(7)
  33 0006 8FB9      		out 47-32,r24
  34               	.L2:
  35 0008 779B      		sbis 46-32,7
  36 000a 00C0      		rjmp .L2
  37 000c C09A      		sbi 56-32,0
  38               	.LM4:
  39 000e C098      		cbi 56-32,0
  40 0010 86E0      		ldi r24,lo8(6)
  41 0012 8FB9      		out 47-32,r24
  42               	.L3:
  43 0014 779B      		sbis 46-32,7
  44 0016 00C0      		rjmp .L3
  45 0018 C09A      		sbi 56-32,0
  46               	.LM5:
  47               	/* #APP */
  48               	 ;  71 "../../../src/radio/cc2420/source/basic_rf.c" 1
  49 001a 7894      		sei
  50               		
  51               	 ;  0 "" 2
  52               	/* epilogue start */
  53               	.LM6:
  54               	/* #NOAPP */
  55 001c 0895      		ret
  56               	.LFE5:
  58               	.global	rf_security_last_pkt_status
  60               	rf_security_last_pkt_status:
  61               	.LFB7:
  62               	.LM7:
  63               	/* prologue: function */
  64               	/* frame size = 0 */
  65               	.LM8:
  66 001e 8091 0000 		lds r24,last_pkt_encrypted
  67               	/* epilogue start */
  68 0022 0895      		ret
  69               	.LFE7:
  71               	.global	rf_security_set_ctr_counter
  73               	rf_security_set_ctr_counter:
  74               	.LFB8:
  75               	.LM9:
  76               	.LVL0:
  77               	/* prologue: function */
  78               	/* frame size = 0 */
  79 0024 DC01      		movw r26,r24
  80               	.LM10:
  81 0026 C098      		cbi 56-32,0
  82 0028 89EC      		ldi r24,lo8(-55)
  83               	.LVL1:
  84 002a 8FB9      		out 47-32,r24
  85               	.L10:
  86 002c 779B      		sbis 46-32,7
  87 002e 00C0      		rjmp .L10
  88 0030 80E8      		ldi r24,lo8(-128)
  89 0032 8FB9      		out 47-32,r24
  90               	.L11:
  91 0034 779B      		sbis 46-32,7
  92 0036 00C0      		rjmp .L11
  93 0038 92E0      		ldi r25,lo8(2)
  94               	.LVL2:
  95               	.L13:
  96 003a 9150      		subi r25,lo8(-(-1))
  97 003c FD01      		movw r30,r26
  98 003e E90F      		add r30,r25
  99 0040 F11D      		adc r31,__zero_reg__
 100 0042 8081      		ld r24,Z
 101 0044 8FB9      		out 47-32,r24
 102               	.L12:
 103 0046 779B      		sbis 46-32,7
 104 0048 00C0      		rjmp .L12
 105 004a 9923      		tst r25
 106 004c 01F4      		brne .L13
 107 004e C09A      		sbi 56-32,0
 108               	.LM11:
 109 0050 C098      		cbi 56-32,0
 110 0052 8BEC      		ldi r24,lo8(-53)
 111 0054 8FB9      		out 47-32,r24
 112               	.L14:
 113 0056 779B      		sbis 46-32,7
 114 0058 00C0      		rjmp .L14
 115 005a 80E8      		ldi r24,lo8(-128)
 116 005c 8FB9      		out 47-32,r24
 117               	.L15:
 118 005e 779B      		sbis 46-32,7
 119 0060 00C0      		rjmp .L15
 120 0062 92E0      		ldi r25,lo8(2)
 121               	.LVL3:
 122               	.L17:
 123 0064 9150      		subi r25,lo8(-(-1))
 124 0066 FD01      		movw r30,r26
 125 0068 E90F      		add r30,r25
 126 006a F11D      		adc r31,__zero_reg__
 127 006c 8281      		ldd r24,Z+2
 128 006e 8FB9      		out 47-32,r24
 129               	.L16:
 130 0070 779B      		sbis 46-32,7
 131 0072 00C0      		rjmp .L16
 132 0074 9923      		tst r25
 133 0076 01F4      		brne .L17
 134 0078 C09A      		sbi 56-32,0
 135               	.LM12:
 136 007a 8C91      		ld r24,X
 137 007c 8093 0000 		sts tx_ctr,r24
 138               	.LM13:
 139 0080 1196      		adiw r26,1
 140 0082 8C91      		ld r24,X
 141 0084 1197      		sbiw r26,1
 142 0086 8093 0000 		sts tx_ctr+1,r24
 143               	.LM14:
 144 008a 1296      		adiw r26,2
 145 008c 8C91      		ld r24,X
 146 008e 1297      		sbiw r26,2
 147 0090 8093 0000 		sts tx_ctr+2,r24
 148               	.LM15:
 149 0094 1396      		adiw r26,3
 150 0096 8C91      		ld r24,X
 151 0098 8093 0000 		sts tx_ctr+3,r24
 152               	/* epilogue start */
 153               	.LM16:
 154 009c 0895      		ret
 155               	.LFE8:
 157               	.global	rf_security_enable
 159               	rf_security_enable:
 160               	.LFB10:
 161               	.LM17:
 162               	.LVL4:
 163               	/* prologue: function */
 164               	/* frame size = 0 */
 165               	.LM18:
 166 009e C098      		cbi 56-32,0
 167 00a0 89E1      		ldi r24,lo8(25)
 168               	.LVL5:
 169 00a2 8FB9      		out 47-32,r24
 170               	.L28:
 171 00a4 779B      		sbis 46-32,7
 172 00a6 00C0      		rjmp .L28
 173 00a8 83E0      		ldi r24,lo8(3)
 174 00aa 8FB9      		out 47-32,r24
 175               	.L29:
 176 00ac 779B      		sbis 46-32,7
 177 00ae 00C0      		rjmp .L29
 178 00b0 86E0      		ldi r24,lo8(6)
 179 00b2 8FB9      		out 47-32,r24
 180               	.L30:
 181 00b4 779B      		sbis 46-32,7
 182 00b6 00C0      		rjmp .L30
 183 00b8 C09A      		sbi 56-32,0
 184               	.LM19:
 185 00ba C098      		cbi 56-32,0
 186 00bc 8AE1      		ldi r24,lo8(26)
 187 00be 8FB9      		out 47-32,r24
 188               	.L31:
 189 00c0 779B      		sbis 46-32,7
 190 00c2 00C0      		rjmp .L31
 191 00c4 8EE0      		ldi r24,lo8(14)
 192 00c6 8FB9      		out 47-32,r24
 193               	.L32:
 194 00c8 779B      		sbis 46-32,7
 195 00ca 00C0      		rjmp .L32
 196 00cc 8EE0      		ldi r24,lo8(14)
 197 00ce 8FB9      		out 47-32,r24
 198               	.L33:
 199 00d0 779B      		sbis 46-32,7
 200 00d2 00C0      		rjmp .L33
 201 00d4 C09A      		sbi 56-32,0
 202               	.LM20:
 203 00d6 81E0      		ldi r24,lo8(1)
 204 00d8 8093 0000 		sts security_enable,r24
 205               	/* epilogue start */
 206               	.LM21:
 207 00dc 0895      		ret
 208               	.LFE10:
 210               	.global	rf_security_disable
 212               	rf_security_disable:
 213               	.LFB11:
 214               	.LM22:
 215               	/* prologue: function */
 216               	/* frame size = 0 */
 217               	.LM23:
 218 00de C098      		cbi 56-32,0
 219 00e0 89E1      		ldi r24,lo8(25)
 220 00e2 8FB9      		out 47-32,r24
 221               	.L42:
 222 00e4 779B      		sbis 46-32,7
 223 00e6 00C0      		rjmp .L42
 224 00e8 81E0      		ldi r24,lo8(1)
 225 00ea 8FB9      		out 47-32,r24
 226               	.L43:
 227 00ec 779B      		sbis 46-32,7
 228 00ee 00C0      		rjmp .L43
 229 00f0 84EC      		ldi r24,lo8(-60)
 230 00f2 8FB9      		out 47-32,r24
 231               	.L44:
 232 00f4 779B      		sbis 46-32,7
 233 00f6 00C0      		rjmp .L44
 234 00f8 C09A      		sbi 56-32,0
 235               	.LM24:
 236 00fa 1092 0000 		sts security_enable,__zero_reg__
 237               	/* epilogue start */
 238               	.LM25:
 239 00fe 0895      		ret
 240               	.LFE11:
 242               	.global	rf_get_sem
 244               	rf_get_sem:
 245               	.LFB12:
 246               	.LM26:
 247               	/* prologue: function */
 248               	/* frame size = 0 */
 249               	.LM27:
 250 0100 8091 0000 		lds r24,radio_sem
 251 0104 9091 0000 		lds r25,radio_sem+1
 252               	/* epilogue start */
 253 0108 0895      		ret
 254               	.LFE12:
 256               	.global	rf_tx_power
 258               	rf_tx_power:
 259               	.LFB13:
 260               	.LM28:
 261               	.LVL6:
 262               	/* prologue: function */
 263               	/* frame size = 0 */
 264               	.LM29:
 265 010a 282F      		mov r18,r24
 266               	.LVL7:
 267 010c 30E0      		ldi r19,lo8(0)
 268               	.LVL8:
 269 010e 2F71      		andi r18,lo8(31)
 270 0110 3070      		andi r19,hi8(31)
 271               	.LVL9:
 272 0112 206E      		ori r18,lo8(-24352)
 273 0114 306A      		ori r19,hi8(-24352)
 274               	.LM30:
 275 0116 C098      		cbi 56-32,0
 276 0118 85E1      		ldi r24,lo8(21)
 277               	.LVL10:
 278 011a 8FB9      		out 47-32,r24
 279               	.L52:
 280 011c 779B      		sbis 46-32,7
 281 011e 00C0      		rjmp .L52
 282 0120 3FB9      		out 47-32,r19
 283               	.L53:
 284 0122 779B      		sbis 46-32,7
 285 0124 00C0      		rjmp .L53
 286 0126 2FB9      		out 47-32,r18
 287               	.L54:
 288 0128 779B      		sbis 46-32,7
 289 012a 00C0      		rjmp .L54
 290 012c C09A      		sbi 56-32,0
 291               	/* epilogue start */
 292               	.LM31:
 293 012e 0895      		ret
 294               	.LFE13:
 296               	.global	rf_addr_decode_enable
 298               	rf_addr_decode_enable:
 299               	.LFB15:
 300               	.LM32:
 301               	/* prologue: function */
 302               	/* frame size = 0 */
 303               	.LM33:
 304 0130 2091 0000 		lds r18,mdmctrl0
 305 0134 3091 0000 		lds r19,(mdmctrl0)+1
 306 0138 3860      		ori r19,hi8(2048)
 307 013a 3093 0000 		sts (mdmctrl0)+1,r19
 308 013e 2093 0000 		sts mdmctrl0,r18
 309               	.LM34:
 310 0142 C098      		cbi 56-32,0
 311 0144 81E1      		ldi r24,lo8(17)
 312 0146 8FB9      		out 47-32,r24
 313               	.L60:
 314 0148 779B      		sbis 46-32,7
 315 014a 00C0      		rjmp .L60
 316 014c 3FB9      		out 47-32,r19
 317               	.L61:
 318 014e 779B      		sbis 46-32,7
 319 0150 00C0      		rjmp .L61
 320 0152 2FB9      		out 47-32,r18
 321               	.L62:
 322 0154 779B      		sbis 46-32,7
 323 0156 00C0      		rjmp .L62
 324 0158 C09A      		sbi 56-32,0
 325               	/* epilogue start */
 326               	.LM35:
 327 015a 0895      		ret
 328               	.LFE15:
 330               	.global	rf_addr_decode_disable
 332               	rf_addr_decode_disable:
 333               	.LFB16:
 334               	.LM36:
 335               	/* prologue: function */
 336               	/* frame size = 0 */
 337               	.LM37:
 338 015c 2091 0000 		lds r18,mdmctrl0
 339 0160 3091 0000 		lds r19,(mdmctrl0)+1
 340 0164 377F      		andi r19,hi8(-2049)
 341 0166 3093 0000 		sts (mdmctrl0)+1,r19
 342 016a 2093 0000 		sts mdmctrl0,r18
 343               	.LM38:
 344 016e C098      		cbi 56-32,0
 345 0170 81E1      		ldi r24,lo8(17)
 346 0172 8FB9      		out 47-32,r24
 347               	.L68:
 348 0174 779B      		sbis 46-32,7
 349 0176 00C0      		rjmp .L68
 350 0178 3FB9      		out 47-32,r19
 351               	.L69:
 352 017a 779B      		sbis 46-32,7
 353 017c 00C0      		rjmp .L69
 354 017e 2FB9      		out 47-32,r18
 355               	.L70:
 356 0180 779B      		sbis 46-32,7
 357 0182 00C0      		rjmp .L70
 358 0184 C09A      		sbi 56-32,0
 359               	/* epilogue start */
 360               	.LM39:
 361 0186 0895      		ret
 362               	.LFE16:
 364               	.global	rf_auto_ack_enable
 366               	rf_auto_ack_enable:
 367               	.LFB17:
 368               	.LM40:
 369               	/* prologue: function */
 370               	/* frame size = 0 */
 371               	.LM41:
 372 0188 81E0      		ldi r24,lo8(1)
 373 018a 8093 0000 		sts auto_ack_enable,r24
 374               	.LM42:
 375 018e 2091 0000 		lds r18,mdmctrl0
 376 0192 3091 0000 		lds r19,(mdmctrl0)+1
 377 0196 2061      		ori r18,lo8(16)
 378 0198 3093 0000 		sts (mdmctrl0)+1,r19
 379 019c 2093 0000 		sts mdmctrl0,r18
 380               	.LM43:
 381 01a0 C098      		cbi 56-32,0
 382 01a2 81E1      		ldi r24,lo8(17)
 383 01a4 8FB9      		out 47-32,r24
 384               	.L76:
 385 01a6 779B      		sbis 46-32,7
 386 01a8 00C0      		rjmp .L76
 387 01aa 3FB9      		out 47-32,r19
 388               	.L77:
 389 01ac 779B      		sbis 46-32,7
 390 01ae 00C0      		rjmp .L77
 391 01b0 2FB9      		out 47-32,r18
 392               	.L78:
 393 01b2 779B      		sbis 46-32,7
 394 01b4 00C0      		rjmp .L78
 395 01b6 C09A      		sbi 56-32,0
 396               	/* epilogue start */
 397               	.LM44:
 398 01b8 0895      		ret
 399               	.LFE17:
 401               	.global	rf_auto_ack_disable
 403               	rf_auto_ack_disable:
 404               	.LFB18:
 405               	.LM45:
 406               	/* prologue: function */
 407               	/* frame size = 0 */
 408               	.LM46:
 409 01ba 1092 0000 		sts auto_ack_enable,__zero_reg__
 410               	.LM47:
 411 01be 2091 0000 		lds r18,mdmctrl0
 412 01c2 3091 0000 		lds r19,(mdmctrl0)+1
 413 01c6 2F7E      		andi r18,lo8(-17)
 414 01c8 3093 0000 		sts (mdmctrl0)+1,r19
 415 01cc 2093 0000 		sts mdmctrl0,r18
 416               	.LM48:
 417 01d0 C098      		cbi 56-32,0
 418 01d2 81E1      		ldi r24,lo8(17)
 419 01d4 8FB9      		out 47-32,r24
 420               	.L84:
 421 01d6 779B      		sbis 46-32,7
 422 01d8 00C0      		rjmp .L84
 423 01da 3FB9      		out 47-32,r19
 424               	.L85:
 425 01dc 779B      		sbis 46-32,7
 426 01de 00C0      		rjmp .L85
 427 01e0 2FB9      		out 47-32,r18
 428               	.L86:
 429 01e2 779B      		sbis 46-32,7
 430 01e4 00C0      		rjmp .L86
 431 01e6 C09A      		sbi 56-32,0
 432               	/* epilogue start */
 433               	.LM49:
 434 01e8 0895      		ret
 435               	.LFE18:
 437               	.global	rf_rx_on
 439               	rf_rx_on:
 440               	.LFB22:
 441               	.LM50:
 442               	/* prologue: function */
 443               	/* frame size = 0 */
 444               	.LM51:
 445 01ea 81E0      		ldi r24,lo8(1)
 446 01ec 8093 0000 		sts rfSettings+8,r24
 447               	.LM52:
 448 01f0 C098      		cbi 56-32,0
 449 01f2 83E0      		ldi r24,lo8(3)
 450 01f4 8FB9      		out 47-32,r24
 451               	.L92:
 452 01f6 779B      		sbis 46-32,7
 453 01f8 00C0      		rjmp .L92
 454 01fa C09A      		sbi 56-32,0
 455               	.LM53:
 456 01fc C098      		cbi 56-32,0
 457 01fe 88E0      		ldi r24,lo8(8)
 458 0200 8FB9      		out 47-32,r24
 459               	.L93:
 460 0202 779B      		sbis 46-32,7
 461 0204 00C0      		rjmp .L93
 462 0206 C09A      		sbi 56-32,0
 463               	.LM54:
 464 0208 1092 0000 		sts rx_ready,__zero_reg__
 465               	/* epilogue start */
 466               	.LM55:
 467 020c 0895      		ret
 468               	.LFE22:
 470               	.global	rf_polling_rx_on
 472               	rf_polling_rx_on:
 473               	.LFB23:
 474               	.LM56:
 475               	/* prologue: function */
 476               	/* frame size = 0 */
 477               	.LM57:
 478 020e 81E0      		ldi r24,lo8(1)
 479 0210 8093 0000 		sts rfSettings+8,r24
 480               	.LM58:
 481 0214 C098      		cbi 56-32,0
 482 0216 83E0      		ldi r24,lo8(3)
 483 0218 8FB9      		out 47-32,r24
 484               	.L98:
 485 021a 779B      		sbis 46-32,7
 486 021c 00C0      		rjmp .L98
 487 021e C09A      		sbi 56-32,0
 488               	.LM59:
 489 0220 C098      		cbi 56-32,0
 490 0222 88E0      		ldi r24,lo8(8)
 491 0224 8FB9      		out 47-32,r24
 492               	.L99:
 493 0226 779B      		sbis 46-32,7
 494 0228 00C0      		rjmp .L99
 495 022a C09A      		sbi 56-32,0
 496               	.LM60:
 497 022c 1092 0000 		sts rx_ready,__zero_reg__
 498               	/* epilogue start */
 499               	.LM61:
 500 0230 0895      		ret
 501               	.LFE23:
 503               	.global	rf_rx_off
 505               	rf_rx_off:
 506               	.LFB24:
 507               	.LM62:
 508               	/* prologue: function */
 509               	/* frame size = 0 */
 510               	.LM63:
 511 0232 1092 0000 		sts rfSettings+8,__zero_reg__
 512               	.LM64:
 513 0236 C098      		cbi 56-32,0
 514 0238 86E0      		ldi r24,lo8(6)
 515 023a 8FB9      		out 47-32,r24
 516               	.L104:
 517 023c 779B      		sbis 46-32,7
 518 023e 00C0      		rjmp .L104
 519 0240 C09A      		sbi 56-32,0
 520               	.LM65:
 521 0242 1092 0000 		sts rx_ready,__zero_reg__
 522               	/* epilogue start */
 523               	.LM66:
 524 0246 0895      		ret
 525               	.LFE24:
 527               	.global	rf_busy
 529               	rf_busy:
 530               	.LFB27:
 531               	.LM67:
 532               	/* prologue: function */
 533               	/* frame size = 0 */
 534               	.LM68:
 535 0248 80B3      		in r24,48-32
 536 024a 90E0      		ldi r25,lo8(0)
 537 024c 24E0      		ldi r18,4
 538 024e 9695      	1:	lsr r25
 539 0250 8795      		ror r24
 540 0252 2A95      		dec r18
 541 0254 01F4      		brne 1b
 542               	.LM69:
 543 0256 8170      		andi r24,lo8(1)
 544               	/* epilogue start */
 545 0258 0895      		ret
 546               	.LFE27:
 548               	.global	rf_rx_check_fifop
 550               	rf_rx_check_fifop:
 551               	.LFB28:
 552               	.LM70:
 553               	/* prologue: function */
 554               	/* frame size = 0 */
 555               	.LM71:
 556 025a 81B1      		in r24,33-32
 557 025c 90E0      		ldi r25,lo8(0)
 558 025e 36E0      		ldi r19,6
 559 0260 9695      	1:	lsr r25
 560 0262 8795      		ror r24
 561 0264 3A95      		dec r19
 562 0266 01F4      		brne 1b
 563               	.LM72:
 564 0268 8170      		andi r24,lo8(1)
 565               	/* epilogue start */
 566 026a 0895      		ret
 567               	.LFE28:
 569               	.global	rf_rx_check_sfd
 571               	rf_rx_check_sfd:
 572               	.LFB29:
 573               	.LM73:
 574               	/* prologue: function */
 575               	/* frame size = 0 */
 576               	.LM74:
 577 026c 80B3      		in r24,48-32
 578 026e 90E0      		ldi r25,lo8(0)
 579 0270 44E0      		ldi r20,4
 580 0272 9695      	1:	lsr r25
 581 0274 8795      		ror r24
 582 0276 4A95      		dec r20
 583 0278 01F4      		brne 1b
 584               	.LM75:
 585 027a 8170      		andi r24,lo8(1)
 586               	/* epilogue start */
 587 027c 0895      		ret
 588               	.LFE29:
 590               	.global	rf_polling_rx_packet
 592               	rf_polling_rx_packet:
 593               	.LFB30:
 594               	.LM76:
 595 027e DF93      		push r29
 596 0280 CF93      		push r28
 597 0282 00D0      		rcall .
 598 0284 00D0      		rcall .
 599 0286 0F92      		push __tmp_reg__
 600 0288 CDB7      		in r28,__SP_L__
 601 028a DEB7      		in r29,__SP_H__
 602               	/* prologue: function */
 603               	/* frame size = 5 */
 604               	.LM77:
 605 028c 0E99      		sbic 33-32,6
 606 028e 00C0      		rjmp .L114
 607 0290 80E0      		ldi r24,lo8(0)
 608 0292 00C0      		rjmp .L115
 609               	.L114:
 610               	.LBB2:
 611               	.LM78:
 612 0294 1092 0000 		sts last_pkt_encrypted,__zero_reg__
 613               	.LM79:
 614 0298 0E9B      		sbis 33-32,6
 615 029a 00C0      		rjmp .L116
 616 029c B799      		sbic 54-32,7
 617 029e 00C0      		rjmp .L116
 618               	.LM80:
 619 02a0 C098      		cbi 56-32,0
 620 02a2 8FE7      		ldi r24,lo8(127)
 621 02a4 8FB9      		out 47-32,r24
 622               	.L117:
 623 02a6 779B      		sbis 46-32,7
 624 02a8 00C0      		rjmp .L117
 625 02aa 1FB8      		out 47-32,__zero_reg__
 626               	.L118:
 627 02ac 779B      		sbis 46-32,7
 628 02ae 00C0      		rjmp .L118
 629 02b0 8FB1      		in r24,47-32
 630               	.LVL11:
 631 02b2 C09A      		sbi 56-32,0
 632               	.LM81:
 633 02b4 C098      		cbi 56-32,0
 634 02b6 88E0      		ldi r24,lo8(8)
 635               	.LVL12:
 636 02b8 8FB9      		out 47-32,r24
 637               	.L119:
 638 02ba 779B      		sbis 46-32,7
 639 02bc 00C0      		rjmp .L119
 640 02be C09A      		sbi 56-32,0
 641               	.LM82:
 642 02c0 C098      		cbi 56-32,0
 643 02c2 88E0      		ldi r24,lo8(8)
 644 02c4 8FB9      		out 47-32,r24
 645               	.L120:
 646 02c6 779B      		sbis 46-32,7
 647 02c8 00C0      		rjmp .L120
 648 02ca C09A      		sbi 56-32,0
 649 02cc 8FEF      		ldi r24,lo8(-1)
 650 02ce 00C0      		rjmp .L115
 651               	.L116:
 652               	.LM83:
 653 02d0 C098      		cbi 56-32,0
 654 02d2 8FE7      		ldi r24,lo8(127)
 655 02d4 8FB9      		out 47-32,r24
 656               	.L121:
 657 02d6 779B      		sbis 46-32,7
 658 02d8 00C0      		rjmp .L121
 659 02da 1FB8      		out 47-32,__zero_reg__
 660               	.L122:
 661 02dc 779B      		sbis 46-32,7
 662 02de 00C0      		rjmp .L122
 663 02e0 4FB1      		in r20,47-32
 664               	.LVL13:
 665 02e2 C09A      		sbi 56-32,0
 666               	.LM84:
 667 02e4 4F77      		andi r20,lo8(127)
 668               	.LM85:
 669 02e6 01F4      		brne .L123
 670               	.LM86:
 671 02e8 C098      		cbi 56-32,0
 672 02ea 8FE7      		ldi r24,lo8(127)
 673 02ec 8FB9      		out 47-32,r24
 674               	.L124:
 675 02ee 779B      		sbis 46-32,7
 676 02f0 00C0      		rjmp .L124
 677 02f2 1FB8      		out 47-32,__zero_reg__
 678               	.L125:
 679 02f4 779B      		sbis 46-32,7
 680 02f6 00C0      		rjmp .L125
 681 02f8 8FB1      		in r24,47-32
 682               	.LVL14:
 683 02fa C09A      		sbi 56-32,0
 684               	.LM87:
 685 02fc C098      		cbi 56-32,0
 686 02fe 88E0      		ldi r24,lo8(8)
 687               	.LVL15:
 688 0300 8FB9      		out 47-32,r24
 689               	.L126:
 690 0302 779B      		sbis 46-32,7
 691 0304 00C0      		rjmp .L126
 692 0306 C09A      		sbi 56-32,0
 693               	.LM88:
 694 0308 C098      		cbi 56-32,0
 695 030a 88E0      		ldi r24,lo8(8)
 696 030c 8FB9      		out 47-32,r24
 697               	.L127:
 698 030e 779B      		sbis 46-32,7
 699 0310 00C0      		rjmp .L127
 700 0312 C09A      		sbi 56-32,0
 701 0314 8EEF      		ldi r24,lo8(-2)
 702 0316 00C0      		rjmp .L115
 703               	.L123:
 704               	.LM89:
 705 0318 4C30      		cpi r20,lo8(12)
 706 031a 04F0      		brlt .L128
 707 031c E091 0000 		lds r30,rfSettings
 708 0320 F091 0000 		lds r31,(rfSettings)+1
 709 0324 242F      		mov r18,r20
 710 0326 3327      		clr r19
 711 0328 27FD      		sbrc r18,7
 712 032a 3095      		com r19
 713               	.LVL16:
 714 032c 2B50      		subi r18,lo8(-(-11))
 715 032e 3040      		sbci r19,hi8(-(-11))
 716               	.LVL17:
 717 0330 8481      		ldd r24,Z+4
 718 0332 9927      		clr r25
 719 0334 87FD      		sbrc r24,7
 720 0336 9095      		com r25
 721 0338 8217      		cp r24,r18
 722 033a 9307      		cpc r25,r19
 723 033c 04F4      		brge .L129
 724               	.LVL18:
 725               	.L128:
 726               	.LM90:
 727 033e C098      		cbi 56-32,0
 728 0340 8FE7      		ldi r24,lo8(127)
 729 0342 8FB9      		out 47-32,r24
 730               	.L130:
 731 0344 779B      		sbis 46-32,7
 732 0346 00C0      		rjmp .L130
 733 0348 50E0      		ldi r21,lo8(0)
 734               	.LVL19:
 735               	.LBB3:
 736 034a 242F      		mov r18,r20
 737 034c 3327      		clr r19
 738 034e 27FD      		sbrc r18,7
 739 0350 3095      		com r19
 740               	.LVL20:
 741 0352 00C0      		rjmp .L131
 742               	.LVL21:
 743               	.L134:
 744 0354 1FB8      		out 47-32,__zero_reg__
 745               	.L132:
 746 0356 779B      		sbis 46-32,7
 747 0358 00C0      		rjmp .L132
 748 035a 5F5F      		subi r21,lo8(-(1))
 749               	.LVL22:
 750               	.L131:
 751 035c 852F      		mov r24,r21
 752 035e 90E0      		ldi r25,lo8(0)
 753 0360 8217      		cp r24,r18
 754 0362 9307      		cpc r25,r19
 755 0364 04F4      		brge .L133
 756               	.LVL23:
 757 0366 B799      		sbic 54-32,7
 758 0368 00C0      		rjmp .L134
 759               	.L133:
 760               	.LBE3:
 761 036a C09A      		sbi 56-32,0
 762               	.LM91:
 763 036c C098      		cbi 56-32,0
 764 036e 8FE7      		ldi r24,lo8(127)
 765               	.LVL24:
 766 0370 8FB9      		out 47-32,r24
 767               	.L135:
 768 0372 779B      		sbis 46-32,7
 769 0374 00C0      		rjmp .L135
 770 0376 1FB8      		out 47-32,__zero_reg__
 771               	.L136:
 772 0378 779B      		sbis 46-32,7
 773 037a 00C0      		rjmp .L136
 774 037c 8FB1      		in r24,47-32
 775               	.LVL25:
 776 037e C09A      		sbi 56-32,0
 777               	.LM92:
 778 0380 C098      		cbi 56-32,0
 779 0382 88E0      		ldi r24,lo8(8)
 780               	.LVL26:
 781 0384 8FB9      		out 47-32,r24
 782               	.L137:
 783 0386 779B      		sbis 46-32,7
 784 0388 00C0      		rjmp .L137
 785 038a C09A      		sbi 56-32,0
 786               	.LM93:
 787 038c C098      		cbi 56-32,0
 788 038e 88E0      		ldi r24,lo8(8)
 789 0390 8FB9      		out 47-32,r24
 790               	.L138:
 791 0392 779B      		sbis 46-32,7
 792 0394 00C0      		rjmp .L138
 793 0396 C09A      		sbi 56-32,0
 794 0398 8DEF      		ldi r24,lo8(-3)
 795 039a 00C0      		rjmp .L115
 796               	.LVL27:
 797               	.L129:
 798               	.LM94:
 799 039c E091 0000 		lds r30,rfSettings
 800 03a0 F091 0000 		lds r31,(rfSettings)+1
 801 03a4 4C50      		subi r20,lo8(-(-12))
 802               	.LVL28:
 803 03a6 4383      		std Z+3,r20
 804               	.LM95:
 805 03a8 C098      		cbi 56-32,0
 806 03aa 8FE7      		ldi r24,lo8(127)
 807 03ac 8FB9      		out 47-32,r24
 808               	.L139:
 809 03ae 779B      		sbis 46-32,7
 810 03b0 00C0      		rjmp .L139
 811 03b2 FE01      		movw r30,r28
 812 03b4 3296      		adiw r30,2
 813               	.LBB4:
 814 03b6 9F01      		movw r18,r30
 815 03b8 2E5F      		subi r18,lo8(-(2))
 816 03ba 3F4F      		sbci r19,hi8(-(2))
 817               	.L141:
 818 03bc 1FB8      		out 47-32,__zero_reg__
 819               	.L140:
 820 03be 779B      		sbis 46-32,7
 821 03c0 00C0      		rjmp .L140
 822 03c2 8FB1      		in r24,47-32
 823 03c4 8193      		st Z+,r24
 824 03c6 E217      		cp r30,r18
 825 03c8 F307      		cpc r31,r19
 826 03ca 01F4      		brne .L141
 827               	.LBE4:
 828 03cc C09A      		sbi 56-32,0
 829               	.LM96:
 830 03ce E091 0000 		lds r30,rfSettings
 831 03d2 F091 0000 		lds r31,(rfSettings)+1
 832 03d6 8A81      		ldd r24,Y+2
 833 03d8 9B81      		ldd r25,Y+3
 834               	.LVL29:
 835 03da 55E0      		ldi r21,5
 836 03dc 9695      	1:	lsr r25
 837 03de 8795      		ror r24
 838 03e0 5A95      		dec r21
 839 03e2 01F4      		brne 1b
 840               	.LVL30:
 841 03e4 8170      		andi r24,lo8(1)
 842               	.LVL31:
 843 03e6 8783      		std Z+7,r24
 844               	.LM97:
 845 03e8 C098      		cbi 56-32,0
 846 03ea 8FE7      		ldi r24,lo8(127)
 847 03ec 8FB9      		out 47-32,r24
 848               	.L142:
 849 03ee 779B      		sbis 46-32,7
 850 03f0 00C0      		rjmp .L142
 851 03f2 1FB8      		out 47-32,__zero_reg__
 852               	.L143:
 853 03f4 779B      		sbis 46-32,7
 854 03f6 00C0      		rjmp .L143
 855 03f8 E091 0000 		lds r30,rfSettings
 856 03fc F091 0000 		lds r31,(rfSettings)+1
 857 0400 8FB1      		in r24,47-32
 858 0402 8083      		st Z,r24
 859 0404 C09A      		sbi 56-32,0
 860               	.LM98:
 861 0406 C098      		cbi 56-32,0
 862 0408 8FE7      		ldi r24,lo8(127)
 863 040a 8FB9      		out 47-32,r24
 864               	.L144:
 865 040c 779B      		sbis 46-32,7
 866 040e 00C0      		rjmp .L144
 867 0410 80E0      		ldi r24,lo8(0)
 868               	.LVL32:
 869 0412 00C0      		rjmp .L145
 870               	.L148:
 871               	.LBB5:
 872 0414 1FB8      		out 47-32,__zero_reg__
 873               	.L146:
 874 0416 779B      		sbis 46-32,7
 875 0418 00C0      		rjmp .L146
 876 041a 8F5F      		subi r24,lo8(-(1))
 877 041c 8430      		cpi r24,lo8(4)
 878 041e 01F0      		breq .L147
 879               	.L145:
 880 0420 B799      		sbic 54-32,7
 881 0422 00C0      		rjmp .L148
 882               	.L147:
 883               	.LBE5:
 884 0424 C09A      		sbi 56-32,0
 885               	.LM99:
 886 0426 C098      		cbi 56-32,0
 887 0428 8FE7      		ldi r24,lo8(127)
 888               	.LVL33:
 889 042a 8FB9      		out 47-32,r24
 890               	.L149:
 891 042c 779B      		sbis 46-32,7
 892 042e 00C0      		rjmp .L149
 893 0430 20E0      		ldi r18,lo8(0)
 894 0432 30E0      		ldi r19,hi8(0)
 895               	.L151:
 896               	.LBB6:
 897 0434 1FB8      		out 47-32,__zero_reg__
 898               	.L150:
 899 0436 779B      		sbis 46-32,7
 900 0438 00C0      		rjmp .L150
 901 043a E091 0000 		lds r30,rfSettings
 902 043e F091 0000 		lds r31,(rfSettings)+1
 903 0442 8FB1      		in r24,47-32
 904 0444 E20F      		add r30,r18
 905 0446 F31F      		adc r31,r19
 906 0448 8183      		std Z+1,r24
 907 044a 2F5F      		subi r18,lo8(-(1))
 908 044c 3F4F      		sbci r19,hi8(-(1))
 909 044e 2230      		cpi r18,2
 910 0450 3105      		cpc r19,__zero_reg__
 911 0452 01F4      		brne .L151
 912               	.LBE6:
 913 0454 C09A      		sbi 56-32,0
 914               	.LM100:
 915 0456 8A81      		ldd r24,Y+2
 916               	.LVL34:
 917 0458 83FF      		sbrs r24,3
 918 045a 00C0      		rjmp .L152
 919               	.LVL35:
 920               	.LBB7:
 921               	.LM101:
 922 045c C098      		cbi 56-32,0
 923 045e 8FE7      		ldi r24,lo8(127)
 924               	.LVL36:
 925 0460 8FB9      		out 47-32,r24
 926               	.L153:
 927 0462 779B      		sbis 46-32,7
 928 0464 00C0      		rjmp .L153
 929 0466 E0E0      		ldi r30,lo8(rx_ctr)
 930 0468 F0E0      		ldi r31,hi8(rx_ctr)
 931               	.L155:
 932               	.LBB8:
 933 046a 1FB8      		out 47-32,__zero_reg__
 934               	.L154:
 935 046c 779B      		sbis 46-32,7
 936 046e 00C0      		rjmp .L154
 937 0470 8FB1      		in r24,47-32
 938 0472 8193      		st Z+,r24
 939 0474 80E0      		ldi r24,hi8(rx_ctr+4)
 940 0476 E030      		cpi r30,lo8(rx_ctr+4)
 941 0478 F807      		cpc r31,r24
 942 047a 01F4      		brne .L155
 943               	.LBE8:
 944 047c C09A      		sbi 56-32,0
 945               	.LM102:
 946 047e C098      		cbi 56-32,0
 947 0480 89E9      		ldi r24,lo8(-103)
 948 0482 8FB9      		out 47-32,r24
 949               	.L156:
 950 0484 779B      		sbis 46-32,7
 951 0486 00C0      		rjmp .L156
 952 0488 80E8      		ldi r24,lo8(-128)
 953 048a 8FB9      		out 47-32,r24
 954               	.L157:
 955 048c 779B      		sbis 46-32,7
 956 048e 00C0      		rjmp .L157
 957 0490 92E0      		ldi r25,lo8(2)
 958               	.LVL37:
 959               	.L159:
 960 0492 9150      		subi r25,lo8(-(-1))
 961 0494 E92F      		mov r30,r25
 962 0496 F0E0      		ldi r31,lo8(0)
 963 0498 E050      		subi r30,lo8(-(rx_ctr))
 964 049a F040      		sbci r31,hi8(-(rx_ctr))
 965               	.LVL38:
 966 049c 8081      		ld r24,Z
 967 049e 8FB9      		out 47-32,r24
 968               	.L158:
 969 04a0 779B      		sbis 46-32,7
 970 04a2 00C0      		rjmp .L158
 971 04a4 9923      		tst r25
 972 04a6 01F4      		brne .L159
 973               	.LVL39:
 974 04a8 C09A      		sbi 56-32,0
 975               	.LM103:
 976 04aa C098      		cbi 56-32,0
 977 04ac 8BE9      		ldi r24,lo8(-101)
 978 04ae 8FB9      		out 47-32,r24
 979               	.L160:
 980 04b0 779B      		sbis 46-32,7
 981 04b2 00C0      		rjmp .L160
 982 04b4 80E8      		ldi r24,lo8(-128)
 983 04b6 8FB9      		out 47-32,r24
 984               	.L161:
 985 04b8 779B      		sbis 46-32,7
 986 04ba 00C0      		rjmp .L161
 987 04bc 92E0      		ldi r25,lo8(2)
 988               	.LVL40:
 989               	.L163:
 990 04be 9150      		subi r25,lo8(-(-1))
 991 04c0 E92F      		mov r30,r25
 992 04c2 F0E0      		ldi r31,lo8(0)
 993               	.LVL41:
 994 04c4 E050      		subi r30,lo8(-(rx_ctr+2))
 995 04c6 F040      		sbci r31,hi8(-(rx_ctr+2))
 996               	.LVL42:
 997 04c8 8081      		ld r24,Z
 998 04ca 8FB9      		out 47-32,r24
 999               	.L162:
 1000 04cc 779B      		sbis 46-32,7
 1001 04ce 00C0      		rjmp .L162
 1002 04d0 9923      		tst r25
 1003 04d2 01F4      		brne .L163
 1004               	.LVL43:
 1005 04d4 C09A      		sbi 56-32,0
 1006               	.LM104:
 1007 04d6 C098      		cbi 56-32,0
 1008 04d8 8CE0      		ldi r24,lo8(12)
 1009 04da 8FB9      		out 47-32,r24
 1010               	.L164:
 1011 04dc 779B      		sbis 46-32,7
 1012 04de 00C0      		rjmp .L164
 1013 04e0 C09A      		sbi 56-32,0
 1014               	.LM105:
 1015 04e2 81E0      		ldi r24,lo8(1)
 1016 04e4 8093 0000 		sts last_pkt_encrypted,r24
 1017               	.LM106:
 1018 04e8 E091 0000 		lds r30,rfSettings
 1019 04ec F091 0000 		lds r31,(rfSettings)+1
 1020 04f0 8381      		ldd r24,Z+3
 1021 04f2 8450      		subi r24,lo8(-(-4))
 1022 04f4 8383      		std Z+3,r24
 1023               	.LVL44:
 1024               	.L152:
 1025               	.LBE7:
 1026               	.LM107:
 1027 04f6 C098      		cbi 56-32,0
 1028 04f8 8FE7      		ldi r24,lo8(127)
 1029 04fa 8FB9      		out 47-32,r24
 1030               	.L165:
 1031 04fc 779B      		sbis 46-32,7
 1032 04fe 00C0      		rjmp .L165
 1033 0500 40E0      		ldi r20,lo8(0)
 1034               	.LVL45:
 1035 0502 00C0      		rjmp .L166
 1036               	.LVL46:
 1037               	.L168:
 1038               	.LBB9:
 1039 0504 1FB8      		out 47-32,__zero_reg__
 1040               	.L167:
 1041 0506 779B      		sbis 46-32,7
 1042 0508 00C0      		rjmp .L167
 1043 050a E091 0000 		lds r30,rfSettings
 1044 050e F091 0000 		lds r31,(rfSettings)+1
 1045 0512 8FB1      		in r24,47-32
 1046 0514 0580      		ldd __tmp_reg__,Z+5
 1047 0516 F681      		ldd r31,Z+6
 1048 0518 E02D      		mov r30,__tmp_reg__
 1049 051a E40F      		add r30,r20
 1050 051c F11D      		adc r31,__zero_reg__
 1051 051e 8083      		st Z,r24
 1052 0520 4F5F      		subi r20,lo8(-(1))
 1053               	.LVL47:
 1054               	.L166:
 1055 0522 E091 0000 		lds r30,rfSettings
 1056 0526 F091 0000 		lds r31,(rfSettings)+1
 1057 052a 242F      		mov r18,r20
 1058 052c 30E0      		ldi r19,lo8(0)
 1059 052e 8381      		ldd r24,Z+3
 1060 0530 9927      		clr r25
 1061 0532 87FD      		sbrc r24,7
 1062 0534 9095      		com r25
 1063 0536 2817      		cp r18,r24
 1064 0538 3907      		cpc r19,r25
 1065 053a 04F0      		brlt .L168
 1066               	.LVL48:
 1067               	.LBE9:
 1068 053c C09A      		sbi 56-32,0
 1069               	.LM108:
 1070 053e C098      		cbi 56-32,0
 1071 0540 8FE7      		ldi r24,lo8(127)
 1072 0542 8FB9      		out 47-32,r24
 1073               	.L169:
 1074 0544 779B      		sbis 46-32,7
 1075 0546 00C0      		rjmp .L169
 1076               	.LBB10:
 1077 0548 1FB8      		out 47-32,__zero_reg__
 1078               	.L170:
 1079 054a 779B      		sbis 46-32,7
 1080 054c 00C0      		rjmp .L170
 1081 054e 9FB1      		in r25,47-32
 1082               	.LVL49:
 1083               	.LBE10:
 1084 0550 C09A      		sbi 56-32,0
 1085               	.LM109:
 1086 0552 C098      		cbi 56-32,0
 1087 0554 8FE7      		ldi r24,lo8(127)
 1088 0556 8FB9      		out 47-32,r24
 1089               	.L171:
 1090 0558 779B      		sbis 46-32,7
 1091 055a 00C0      		rjmp .L171
 1092               	.LBB11:
 1093               	.LM110:
 1094 055c 9983      		std Y+1,r25
 1095               	.LVL50:
 1096 055e FE01      		movw r30,r28
 1097 0560 3496      		adiw r30,4
 1098               	.LBE11:
 1099               	.LBB12:
 1100               	.LM111:
 1101 0562 9E01      		movw r18,r28
 1102               	.LVL51:
 1103 0564 2A5F      		subi r18,lo8(-(6))
 1104 0566 3F4F      		sbci r19,hi8(-(6))
 1105               	.L173:
 1106 0568 1FB8      		out 47-32,__zero_reg__
 1107               	.L172:
 1108 056a 779B      		sbis 46-32,7
 1109 056c 00C0      		rjmp .L172
 1110 056e 8FB1      		in r24,47-32
 1111 0570 8193      		st Z+,r24
 1112 0572 E217      		cp r30,r18
 1113 0574 F307      		cpc r31,r19
 1114 0576 01F4      		brne .L173
 1115               	.LBE12:
 1116 0578 C09A      		sbi 56-32,0
 1117               	.LM112:
 1118 057a E091 0000 		lds r30,rfSettings
 1119 057e F091 0000 		lds r31,(rfSettings)+1
 1120 0582 8C81      		ldd r24,Y+4
 1121 0584 8087      		std Z+8,r24
 1122 0586 50E0      		ldi r21,lo8(0)
 1123               	.LVL52:
 1124 0588 40E0      		ldi r20,lo8(0)
 1125               	.LVL53:
 1126 058a 00C0      		rjmp .L174
 1127               	.LVL54:
 1128               	.L175:
 1129               	.LM113:
 1130 058c E091 0000 		lds r30,rfSettings
 1131 0590 F091 0000 		lds r31,(rfSettings)+1
 1132 0594 0580      		ldd __tmp_reg__,Z+5
 1133 0596 F681      		ldd r31,Z+6
 1134 0598 E02D      		mov r30,__tmp_reg__
 1135 059a E20F      		add r30,r18
 1136 059c F31F      		adc r31,r19
 1137 059e 8081      		ld r24,Z
 1138 05a0 580F      		add r21,r24
 1139               	.LM114:
 1140 05a2 4F5F      		subi r20,lo8(-(1))
 1141               	.LVL55:
 1142               	.L174:
 1143 05a4 E091 0000 		lds r30,rfSettings
 1144 05a8 F091 0000 		lds r31,(rfSettings)+1
 1145 05ac 242F      		mov r18,r20
 1146 05ae 30E0      		ldi r19,lo8(0)
 1147               	.LVL56:
 1148 05b0 8381      		ldd r24,Z+3
 1149 05b2 9927      		clr r25
 1150 05b4 87FD      		sbrc r24,7
 1151 05b6 9095      		com r25
 1152 05b8 2817      		cp r18,r24
 1153 05ba 3907      		cpc r19,r25
 1154 05bc 04F0      		brlt .L175
 1155               	.LVL57:
 1156               	.LM115:
 1157 05be 8981      		ldd r24,Y+1
 1158 05c0 5817      		cp r21,r24
 1159 05c2 01F0      		breq .L176
 1160               	.LVL58:
 1161               	.LM116:
 1162 05c4 C098      		cbi 56-32,0
 1163 05c6 8FE7      		ldi r24,lo8(127)
 1164               	.LVL59:
 1165 05c8 8FB9      		out 47-32,r24
 1166               	.L177:
 1167 05ca 779B      		sbis 46-32,7
 1168 05cc 00C0      		rjmp .L177
 1169 05ce 1FB8      		out 47-32,__zero_reg__
 1170               	.L178:
 1171 05d0 779B      		sbis 46-32,7
 1172 05d2 00C0      		rjmp .L178
 1173 05d4 8FB1      		in r24,47-32
 1174               	.LVL60:
 1175 05d6 C09A      		sbi 56-32,0
 1176               	.LM117:
 1177 05d8 C098      		cbi 56-32,0
 1178 05da 88E0      		ldi r24,lo8(8)
 1179               	.LVL61:
 1180 05dc 8FB9      		out 47-32,r24
 1181               	.L179:
 1182 05de 779B      		sbis 46-32,7
 1183 05e0 00C0      		rjmp .L179
 1184 05e2 C09A      		sbi 56-32,0
 1185               	.LM118:
 1186 05e4 C098      		cbi 56-32,0
 1187 05e6 88E0      		ldi r24,lo8(8)
 1188 05e8 8FB9      		out 47-32,r24
 1189               	.L180:
 1190 05ea 779B      		sbis 46-32,7
 1191 05ec 00C0      		rjmp .L180
 1192 05ee C09A      		sbi 56-32,0
 1193 05f0 8CEF      		ldi r24,lo8(-4)
 1194 05f2 00C0      		rjmp .L115
 1195               	.LVL62:
 1196               	.L176:
 1197               	.LM119:
 1198 05f4 8D81      		ldd r24,Y+5
 1199               	.LVL63:
 1200 05f6 87FF      		sbrs r24,7
 1201 05f8 00C0      		rjmp .L181
 1202               	.LM120:
 1203 05fa 8091 0000 		lds r24,rx_ready
 1204 05fe 8F5F      		subi r24,lo8(-(1))
 1205 0600 8093 0000 		sts rx_ready,r24
 1206 0604 81E0      		ldi r24,lo8(1)
 1207 0606 00C0      		rjmp .L115
 1208               	.L181:
 1209               	.LM121:
 1210 0608 C098      		cbi 56-32,0
 1211 060a 8FE7      		ldi r24,lo8(127)
 1212 060c 8FB9      		out 47-32,r24
 1213               	.L182:
 1214 060e 779B      		sbis 46-32,7
 1215 0610 00C0      		rjmp .L182
 1216 0612 1FB8      		out 47-32,__zero_reg__
 1217               	.L183:
 1218 0614 779B      		sbis 46-32,7
 1219 0616 00C0      		rjmp .L183
 1220 0618 8FB1      		in r24,47-32
 1221               	.LVL64:
 1222 061a C09A      		sbi 56-32,0
 1223               	.LM122:
 1224 061c C098      		cbi 56-32,0
 1225 061e 88E0      		ldi r24,lo8(8)
 1226               	.LVL65:
 1227 0620 8FB9      		out 47-32,r24
 1228               	.L184:
 1229 0622 779B      		sbis 46-32,7
 1230 0624 00C0      		rjmp .L184
 1231 0626 C09A      		sbi 56-32,0
 1232               	.LM123:
 1233 0628 C098      		cbi 56-32,0
 1234 062a 88E0      		ldi r24,lo8(8)
 1235 062c 8FB9      		out 47-32,r24
 1236               	.L185:
 1237 062e 779B      		sbis 46-32,7
 1238 0630 00C0      		rjmp .L185
 1239 0632 C09A      		sbi 56-32,0
 1240 0634 8BEF      		ldi r24,lo8(-5)
 1241               	.LVL66:
 1242               	.L115:
 1243               	/* epilogue start */
 1244               	.LBE2:
 1245               	.LM124:
 1246 0636 0F90      		pop __tmp_reg__
 1247 0638 0F90      		pop __tmp_reg__
 1248 063a 0F90      		pop __tmp_reg__
 1249 063c 0F90      		pop __tmp_reg__
 1250 063e 0F90      		pop __tmp_reg__
 1251 0640 CF91      		pop r28
 1252 0642 DF91      		pop r29
 1253 0644 0895      		ret
 1254               	.LFE30:
 1256               	.global	rf_rx_packet
 1258               	rf_rx_packet:
 1259               	.LFB31:
 1260               	.LM125:
 1261               	/* prologue: function */
 1262               	/* frame size = 0 */
 1263               	.LM126:
 1264 0646 8091 0000 		lds r24,rx_ready
 1265 064a 8823      		tst r24
 1266 064c 01F0      		breq .L242
 1267               	.LM127:
 1268 064e 8091 0000 		lds r24,rx_ready
 1269               	.LVL67:
 1270               	.LM128:
 1271 0652 1092 0000 		sts rx_ready,__zero_reg__
 1272               	.L242:
 1273               	.LVL68:
 1274               	.LM129:
 1275 0656 0895      		ret
 1276               	.LFE31:
 1278               	.global	rf_flush_rx_fifo
 1280               	rf_flush_rx_fifo:
 1281               	.LFB32:
 1282               	.LM130:
 1283               	/* prologue: function */
 1284               	/* frame size = 0 */
 1285               	.LM131:
 1286 0658 C098      		cbi 56-32,0
 1287 065a 88E0      		ldi r24,lo8(8)
 1288 065c 8FB9      		out 47-32,r24
 1289               	.L245:
 1290 065e 779B      		sbis 46-32,7
 1291 0660 00C0      		rjmp .L245
 1292 0662 C09A      		sbi 56-32,0
 1293               	.LM132:
 1294 0664 C098      		cbi 56-32,0
 1295 0666 88E0      		ldi r24,lo8(8)
 1296 0668 8FB9      		out 47-32,r24
 1297               	.L246:
 1298 066a 779B      		sbis 46-32,7
 1299 066c 00C0      		rjmp .L246
 1300 066e C09A      		sbi 56-32,0
 1301               	/* epilogue start */
 1302               	.LM133:
 1303 0670 0895      		ret
 1304               	.LFE32:
 1306               	.global	rf_set_cca_thresh
 1308               	rf_set_cca_thresh:
 1309               	.LFB33:
 1310               	.LM134:
 1311               	.LVL69:
 1312               	/* prologue: function */
 1313               	/* frame size = 0 */
 1314               	.LM135:
 1315 0672 9927      		clr r25
 1316 0674 87FD      		sbrc r24,7
 1317 0676 9095      		com r25
 1318               	.LVL70:
 1319 0678 382F      		mov r19,r24
 1320 067a 2227      		clr r18
 1321               	.LVL71:
 1322 067c 2068      		ori r18,lo8(128)
 1323               	.LM136:
 1324 067e C098      		cbi 56-32,0
 1325 0680 83E1      		ldi r24,lo8(19)
 1326               	.LVL72:
 1327 0682 8FB9      		out 47-32,r24
 1328               	.L251:
 1329 0684 779B      		sbis 46-32,7
 1330 0686 00C0      		rjmp .L251
 1331 0688 3FB9      		out 47-32,r19
 1332               	.LVL73:
 1333               	.L252:
 1334 068a 779B      		sbis 46-32,7
 1335 068c 00C0      		rjmp .L252
 1336 068e 2FB9      		out 47-32,r18
 1337               	.L253:
 1338 0690 779B      		sbis 46-32,7
 1339 0692 00C0      		rjmp .L253
 1340 0694 C09A      		sbi 56-32,0
 1341               	/* epilogue start */
 1342               	.LM137:
 1343 0696 0895      		ret
 1344               	.LFE33:
 1346               	.global	rf_test_mode
 1348               	rf_test_mode:
 1349               	.LFB34:
 1350               	.LM138:
 1351               	/* prologue: function */
 1352               	/* frame size = 0 */
 1353               	.LM139:
 1354 0698 C098      		cbi 56-32,0
 1355 069a 86E0      		ldi r24,lo8(6)
 1356 069c 8FB9      		out 47-32,r24
 1357               	.L259:
 1358 069e 779B      		sbis 46-32,7
 1359 06a0 00C0      		rjmp .L259
 1360 06a2 C09A      		sbi 56-32,0
 1361               	.LM140:
 1362 06a4 C098      		cbi 56-32,0
 1363 06a6 82E1      		ldi r24,lo8(18)
 1364 06a8 8FB9      		out 47-32,r24
 1365               	.L260:
 1366 06aa 779B      		sbis 46-32,7
 1367 06ac 00C0      		rjmp .L260
 1368 06ae 85E0      		ldi r24,lo8(5)
 1369 06b0 8FB9      		out 47-32,r24
 1370               	.L261:
 1371 06b2 779B      		sbis 46-32,7
 1372 06b4 00C0      		rjmp .L261
 1373 06b6 88E0      		ldi r24,lo8(8)
 1374 06b8 8FB9      		out 47-32,r24
 1375               	.L262:
 1376 06ba 779B      		sbis 46-32,7
 1377 06bc 00C0      		rjmp .L262
 1378 06be C09A      		sbi 56-32,0
 1379               	.LM141:
 1380 06c0 C098      		cbi 56-32,0
 1381 06c2 8EE2      		ldi r24,lo8(46)
 1382 06c4 8FB9      		out 47-32,r24
 1383               	.L263:
 1384 06c6 779B      		sbis 46-32,7
 1385 06c8 00C0      		rjmp .L263
 1386 06ca 88E1      		ldi r24,lo8(24)
 1387 06cc 8FB9      		out 47-32,r24
 1388               	.L264:
 1389 06ce 779B      		sbis 46-32,7
 1390 06d0 00C0      		rjmp .L264
 1391 06d2 1FB8      		out 47-32,__zero_reg__
 1392               	.L265:
 1393 06d4 779B      		sbis 46-32,7
 1394 06d6 00C0      		rjmp .L265
 1395 06d8 C09A      		sbi 56-32,0
 1396               	.LM142:
 1397 06da 0E94 0000 		call rf_flush_rx_fifo
 1398               	/* epilogue start */
 1399               	.LM143:
 1400 06de 0895      		ret
 1401               	.LFE34:
 1403               	.global	rf_data_mode
 1405               	rf_data_mode:
 1406               	.LFB35:
 1407               	.LM144:
 1408               	/* prologue: function */
 1409               	/* frame size = 0 */
 1410               	.LM145:
 1411 06e0 C098      		cbi 56-32,0
 1412 06e2 86E0      		ldi r24,lo8(6)
 1413 06e4 8FB9      		out 47-32,r24
 1414               	.L275:
 1415 06e6 779B      		sbis 46-32,7
 1416 06e8 00C0      		rjmp .L275
 1417 06ea C09A      		sbi 56-32,0
 1418               	.LM146:
 1419 06ec C098      		cbi 56-32,0
 1420 06ee 82E1      		ldi r24,lo8(18)
 1421 06f0 8FB9      		out 47-32,r24
 1422               	.L276:
 1423 06f2 779B      		sbis 46-32,7
 1424 06f4 00C0      		rjmp .L276
 1425 06f6 85E0      		ldi r24,lo8(5)
 1426 06f8 8FB9      		out 47-32,r24
 1427               	.L277:
 1428 06fa 779B      		sbis 46-32,7
 1429 06fc 00C0      		rjmp .L277
 1430 06fe 1FB8      		out 47-32,__zero_reg__
 1431               	.L278:
 1432 0700 779B      		sbis 46-32,7
 1433 0702 00C0      		rjmp .L278
 1434 0704 C09A      		sbi 56-32,0
 1435               	.LM147:
 1436 0706 C098      		cbi 56-32,0
 1437 0708 8EE2      		ldi r24,lo8(46)
 1438 070a 8FB9      		out 47-32,r24
 1439               	.L279:
 1440 070c 779B      		sbis 46-32,7
 1441 070e 00C0      		rjmp .L279
 1442 0710 1FB8      		out 47-32,__zero_reg__
 1443               	.L280:
 1444 0712 779B      		sbis 46-32,7
 1445 0714 00C0      		rjmp .L280
 1446 0716 1FB8      		out 47-32,__zero_reg__
 1447               	.L281:
 1448 0718 779B      		sbis 46-32,7
 1449 071a 00C0      		rjmp .L281
 1450 071c C09A      		sbi 56-32,0
 1451               	.LM148:
 1452 071e 0E94 0000 		call rf_flush_rx_fifo
 1453               	/* epilogue start */
 1454               	.LM149:
 1455 0722 0895      		ret
 1456               	.LFE35:
 1458               	.global	rf_rx_set_serial
 1460               	rf_rx_set_serial:
 1461               	.LFB36:
 1462               	.LM150:
 1463               	/* prologue: function */
 1464               	/* frame size = 0 */
 1465               	.LM151:
 1466 0724 C098      		cbi 56-32,0
 1467 0726 86E0      		ldi r24,lo8(6)
 1468 0728 8FB9      		out 47-32,r24
 1469               	.L291:
 1470 072a 779B      		sbis 46-32,7
 1471 072c 00C0      		rjmp .L291
 1472 072e C09A      		sbi 56-32,0
 1473               	.LM152:
 1474 0730 C098      		cbi 56-32,0
 1475 0732 82E1      		ldi r24,lo8(18)
 1476 0734 8FB9      		out 47-32,r24
 1477               	.L292:
 1478 0736 779B      		sbis 46-32,7
 1479 0738 00C0      		rjmp .L292
 1480 073a 85E0      		ldi r24,lo8(5)
 1481 073c 8FB9      		out 47-32,r24
 1482               	.L293:
 1483 073e 779B      		sbis 46-32,7
 1484 0740 00C0      		rjmp .L293
 1485 0742 81E0      		ldi r24,lo8(1)
 1486 0744 8FB9      		out 47-32,r24
 1487               	.L294:
 1488 0746 779B      		sbis 46-32,7
 1489 0748 00C0      		rjmp .L294
 1490 074a C09A      		sbi 56-32,0
 1491               	.LM153:
 1492 074c 0E94 0000 		call rf_flush_rx_fifo
 1493               	/* epilogue start */
 1494               	.LM154:
 1495 0750 0895      		ret
 1496               	.LFE36:
 1498               	.global	rf_tx_set_serial
 1500               	rf_tx_set_serial:
 1501               	.LFB37:
 1502               	.LM155:
 1503               	/* prologue: function */
 1504               	/* frame size = 0 */
 1505               	.LM156:
 1506 0752 C098      		cbi 56-32,0
 1507 0754 82E1      		ldi r24,lo8(18)
 1508 0756 8FB9      		out 47-32,r24
 1509               	.L301:
 1510 0758 779B      		sbis 46-32,7
 1511 075a 00C0      		rjmp .L301
 1512 075c 85E0      		ldi r24,lo8(5)
 1513 075e 8FB9      		out 47-32,r24
 1514               	.L302:
 1515 0760 779B      		sbis 46-32,7
 1516 0762 00C0      		rjmp .L302
 1517 0764 84E0      		ldi r24,lo8(4)
 1518 0766 8FB9      		out 47-32,r24
 1519               	.L303:
 1520 0768 779B      		sbis 46-32,7
 1521 076a 00C0      		rjmp .L303
 1522 076c C09A      		sbi 56-32,0
 1523               	.LM157:
 1524 076e 0E94 0000 		call rf_flush_rx_fifo
 1525               	/* epilogue start */
 1526               	.LM158:
 1527 0772 0895      		ret
 1528               	.LFE37:
 1530               	.global	rf_set_preamble_length
 1532               	rf_set_preamble_length:
 1533               	.LFB38:
 1534               	.LM159:
 1535               	.LVL74:
 1536               	/* prologue: function */
 1537               	/* frame size = 0 */
 1538               	.LM160:
 1539 0774 282F      		mov r18,r24
 1540 0776 30E0      		ldi r19,lo8(0)
 1541 0778 2F70      		andi r18,lo8(15)
 1542 077a 3070      		andi r19,hi8(15)
 1543 077c 8091 0000 		lds r24,mdmctrl0
 1544 0780 9091 0000 		lds r25,(mdmctrl0)+1
 1545               	.LVL75:
 1546 0784 807F      		andi r24,lo8(-16)
 1547 0786 282B      		or r18,r24
 1548 0788 392B      		or r19,r25
 1549 078a 3093 0000 		sts (mdmctrl0)+1,r19
 1550 078e 2093 0000 		sts mdmctrl0,r18
 1551               	.LM161:
 1552 0792 C098      		cbi 56-32,0
 1553 0794 81E1      		ldi r24,lo8(17)
 1554 0796 8FB9      		out 47-32,r24
 1555               	.L309:
 1556 0798 779B      		sbis 46-32,7
 1557 079a 00C0      		rjmp .L309
 1558 079c 3FB9      		out 47-32,r19
 1559               	.L310:
 1560 079e 779B      		sbis 46-32,7
 1561 07a0 00C0      		rjmp .L310
 1562 07a2 2FB9      		out 47-32,r18
 1563               	.L311:
 1564 07a4 779B      		sbis 46-32,7
 1565 07a6 00C0      		rjmp .L311
 1566 07a8 C09A      		sbi 56-32,0
 1567               	/* epilogue start */
 1568               	.LM162:
 1569 07aa 0895      		ret
 1570               	.LFE38:
 1572               	.global	rf_set_cca_mode
 1574               	rf_set_cca_mode:
 1575               	.LFB39:
 1576               	.LM163:
 1577               	.LVL76:
 1578               	/* prologue: function */
 1579               	/* frame size = 0 */
 1580               	.LM164:
 1581 07ac 282F      		mov r18,r24
 1582 07ae 30E0      		ldi r19,lo8(0)
 1583 07b0 76E0      		ldi r23,6
 1584 07b2 220F      	1:	lsl r18
 1585 07b4 331F      		rol r19
 1586 07b6 7A95      		dec r23
 1587 07b8 01F4      		brne 1b
 1588 07ba 3070      		andi r19,hi8(255)
 1589 07bc 8091 0000 		lds r24,mdmctrl0
 1590 07c0 9091 0000 		lds r25,(mdmctrl0)+1
 1591               	.LVL77:
 1592 07c4 8F73      		andi r24,lo8(-193)
 1593 07c6 282B      		or r18,r24
 1594 07c8 392B      		or r19,r25
 1595 07ca 3093 0000 		sts (mdmctrl0)+1,r19
 1596 07ce 2093 0000 		sts mdmctrl0,r18
 1597               	.LM165:
 1598 07d2 C098      		cbi 56-32,0
 1599 07d4 81E1      		ldi r24,lo8(17)
 1600 07d6 8FB9      		out 47-32,r24
 1601               	.L317:
 1602 07d8 779B      		sbis 46-32,7
 1603 07da 00C0      		rjmp .L317
 1604 07dc 3FB9      		out 47-32,r19
 1605               	.L318:
 1606 07de 779B      		sbis 46-32,7
 1607 07e0 00C0      		rjmp .L318
 1608 07e2 2FB9      		out 47-32,r18
 1609               	.L319:
 1610 07e4 779B      		sbis 46-32,7
 1611 07e6 00C0      		rjmp .L319
 1612 07e8 C09A      		sbi 56-32,0
 1613               	/* epilogue start */
 1614               	.LM166:
 1615 07ea 0895      		ret
 1616               	.LFE39:
 1618               	.global	rf_carrier_on
 1620               	rf_carrier_on:
 1621               	.LFB40:
 1622               	.LM167:
 1623               	/* prologue: function */
 1624               	/* frame size = 0 */
 1625               	.LM168:
 1626 07ec C098      		cbi 56-32,0
 1627 07ee 84E0      		ldi r24,lo8(4)
 1628 07f0 8FB9      		out 47-32,r24
 1629               	.L325:
 1630 07f2 779B      		sbis 46-32,7
 1631 07f4 00C0      		rjmp .L325
 1632 07f6 C09A      		sbi 56-32,0
 1633               	/* epilogue start */
 1634               	.LM169:
 1635 07f8 0895      		ret
 1636               	.LFE40:
 1638               	.global	rf_carrier_off
 1640               	rf_carrier_off:
 1641               	.LFB41:
 1642               	.LM170:
 1643               	/* prologue: function */
 1644               	/* frame size = 0 */
 1645               	.LM171:
 1646 07fa C098      		cbi 56-32,0
 1647 07fc 86E0      		ldi r24,lo8(6)
 1648 07fe 8FB9      		out 47-32,r24
 1649               	.L329:
 1650 0800 779B      		sbis 46-32,7
 1651 0802 00C0      		rjmp .L329
 1652 0804 C09A      		sbi 56-32,0
 1653               	/* epilogue start */
 1654               	.LM172:
 1655 0806 0895      		ret
 1656               	.LFE41:
 1658               	.global	rf_tx_packet
 1660               	rf_tx_packet:
 1661               	.LFB26:
 1662               	.LM173:
 1663               	.LVL78:
 1664 0808 FF92      		push r15
 1665 080a 0F93      		push r16
 1666 080c 1F93      		push r17
 1667 080e DF93      		push r29
 1668 0810 CF93      		push r28
 1669 0812 00D0      		rcall .
 1670 0814 00D0      		rcall .
 1671 0816 CDB7      		in r28,__SP_L__
 1672 0818 DEB7      		in r29,__SP_H__
 1673               	/* prologue: function */
 1674               	/* frame size = 4 */
 1675 081a DC01      		movw r26,r24
 1676               	.LM174:
 1677 081c 4091 0000 		lds r20,security_enable
 1678 0820 4423      		tst r20
 1679 0822 01F0      		breq .L333
 1680               	.LVL79:
 1681               	.LM175:
 1682 0824 C098      		cbi 56-32,0
 1683 0826 8DE0      		ldi r24,lo8(13)
 1684 0828 8FB9      		out 47-32,r24
 1685               	.L334:
 1686 082a 779B      		sbis 46-32,7
 1687 082c 00C0      		rjmp .L334
 1688 082e C09A      		sbi 56-32,0
 1689               	.LVL80:
 1690               	.L333:
 1691               	.LM176:
 1692 0830 1A82      		std Y+2,__zero_reg__
 1693               	.LVL81:
 1694               	.LM177:
 1695 0832 1296      		adiw r26,2
 1696 0834 2C91      		ld r18,X
 1697 0836 1297      		sbiw r26,2
 1698 0838 622F      		mov r22,r18
 1699 083a 7727      		clr r23
 1700 083c 67FD      		sbrc r22,7
 1701 083e 7095      		com r23
 1702 0840 30E0      		ldi r19,lo8(0)
 1703               	.LVL82:
 1704 0842 00C0      		rjmp .L335
 1705               	.LVL83:
 1706               	.L336:
 1707               	.LM178:
 1708 0844 1396      		adiw r26,3
 1709 0846 ED91      		ld r30,X+
 1710 0848 FC91      		ld r31,X
 1711 084a 1497      		sbiw r26,3+1
 1712 084c E80F      		add r30,r24
 1713 084e F91F      		adc r31,r25
 1714 0850 8A81      		ldd r24,Y+2
 1715               	.LVL84:
 1716 0852 9081      		ld r25,Z
 1717               	.LVL85:
 1718 0854 890F      		add r24,r25
 1719               	.LVL86:
 1720 0856 8A83      		std Y+2,r24
 1721               	.LM179:
 1722 0858 3F5F      		subi r19,lo8(-(1))
 1723               	.LVL87:
 1724               	.L335:
 1725 085a 832F      		mov r24,r19
 1726 085c 90E0      		ldi r25,lo8(0)
 1727               	.LVL88:
 1728 085e 8617      		cp r24,r22
 1729 0860 9707      		cpc r25,r23
 1730 0862 04F0      		brlt .L336
 1731               	.LVL89:
 1732               	.LM180:
 1733 0864 245F      		subi r18,lo8(-(12))
 1734 0866 2983      		std Y+1,r18
 1735               	.LVL90:
 1736 0868 2C50      		subi r18,lo8(-(-12))
 1737               	.LM181:
 1738 086a 4423      		tst r20
 1739 086c 01F0      		breq .L337
 1740 086e 205F      		subi r18,lo8(-(16))
 1741 0870 2983      		std Y+1,r18
 1742               	.LVL91:
 1743               	.L337:
 1744               	.LM182:
 1745 0872 C098      		cbi 56-32,0
 1746 0874 88E0      		ldi r24,lo8(8)
 1747               	.LVL92:
 1748 0876 8FB9      		out 47-32,r24
 1749               	.L338:
 1750 0878 779B      		sbis 46-32,7
 1751 087a 00C0      		rjmp .L338
 1752 087c C09A      		sbi 56-32,0
 1753               	.LM183:
 1754 087e C098      		cbi 56-32,0
 1755 0880 88E0      		ldi r24,lo8(8)
 1756 0882 8FB9      		out 47-32,r24
 1757               	.L339:
 1758 0884 779B      		sbis 46-32,7
 1759 0886 00C0      		rjmp .L339
 1760 0888 C09A      		sbi 56-32,0
 1761               	.L439:
 1762               	.LM184:
 1763 088a 0E99      		sbic 33-32,6
 1764 088c 00C0      		rjmp .L439
 1765 088e 8499      		sbic 48-32,4
 1766 0890 00C0      		rjmp .L439
 1767               	.LM185:
 1768               	/* #APP */
 1769               	 ;  699 "../../../src/radio/cc2420/source/basic_rf.c" 1
 1770 0892 F894      		cli
 1771               		
 1772               	 ;  0 "" 2
 1773               	.LM186:
 1774               	/* #NOAPP */
 1775 0894 C098      		cbi 56-32,0
 1776 0896 89E0      		ldi r24,lo8(9)
 1777 0898 8FB9      		out 47-32,r24
 1778               	.L341:
 1779 089a 779B      		sbis 46-32,7
 1780 089c 00C0      		rjmp .L341
 1781 089e C09A      		sbi 56-32,0
 1782               	.LM187:
 1783 08a0 C098      		cbi 56-32,0
 1784 08a2 89E0      		ldi r24,lo8(9)
 1785 08a4 8FB9      		out 47-32,r24
 1786               	.L342:
 1787 08a6 779B      		sbis 46-32,7
 1788 08a8 00C0      		rjmp .L342
 1789 08aa C09A      		sbi 56-32,0
 1790               	.LM188:
 1791 08ac C098      		cbi 56-32,0
 1792 08ae 8EE3      		ldi r24,lo8(62)
 1793 08b0 8FB9      		out 47-32,r24
 1794               	.L343:
 1795 08b2 779B      		sbis 46-32,7
 1796 08b4 00C0      		rjmp .L343
 1797               	.LBB13:
 1798 08b6 8981      		ldd r24,Y+1
 1799 08b8 8FB9      		out 47-32,r24
 1800               	.L344:
 1801 08ba 779B      		sbis 46-32,7
 1802 08bc 00C0      		rjmp .L344
 1803               	.LBE13:
 1804 08be C09A      		sbi 56-32,0
 1805               	.LM189:
 1806 08c0 81E4      		ldi r24,lo8(-30655)
 1807 08c2 98E8      		ldi r25,hi8(-30655)
 1808 08c4 9C83      		std Y+4,r25
 1809 08c6 8B83      		std Y+3,r24
 1810               	.LVL93:
 1811               	.LM190:
 1812 08c8 8091 0000 		lds r24,auto_ack_enable
 1813 08cc 8823      		tst r24
 1814 08ce 01F0      		breq .L345
 1815 08d0 81E6      		ldi r24,lo8(-30623)
 1816 08d2 98E8      		ldi r25,hi8(-30623)
 1817 08d4 9C83      		std Y+4,r25
 1818 08d6 8B83      		std Y+3,r24
 1819               	.LVL94:
 1820               	.L345:
 1821               	.LM191:
 1822 08d8 4423      		tst r20
 1823 08da 01F0      		breq .L346
 1824 08dc 8B81      		ldd r24,Y+3
 1825 08de 9C81      		ldd r25,Y+4
 1826 08e0 8860      		ori r24,lo8(8)
 1827               	.LVL95:
 1828 08e2 9C83      		std Y+4,r25
 1829 08e4 8B83      		std Y+3,r24
 1830               	.LVL96:
 1831               	.L346:
 1832               	.LM192:
 1833 08e6 C098      		cbi 56-32,0
 1834 08e8 8EE3      		ldi r24,lo8(62)
 1835 08ea 8FB9      		out 47-32,r24
 1836               	.L347:
 1837 08ec 779B      		sbis 46-32,7
 1838 08ee 00C0      		rjmp .L347
 1839 08f0 FE01      		movw r30,r28
 1840 08f2 3396      		adiw r30,3
 1841               	.LBB14:
 1842 08f4 9E01      		movw r18,r28
 1843 08f6 2B5F      		subi r18,lo8(-(5))
 1844 08f8 3F4F      		sbci r19,hi8(-(5))
 1845               	.L349:
 1846 08fa 8081      		ld r24,Z
 1847 08fc 8FB9      		out 47-32,r24
 1848               	.L348:
 1849 08fe 779B      		sbis 46-32,7
 1850 0900 00C0      		rjmp .L348
 1851 0902 3196      		adiw r30,1
 1852 0904 E217      		cp r30,r18
 1853 0906 F307      		cpc r31,r19
 1854 0908 01F4      		brne .L349
 1855               	.LBE14:
 1856 090a C09A      		sbi 56-32,0
 1857               	.LM193:
 1858 090c C098      		cbi 56-32,0
 1859 090e 8EE3      		ldi r24,lo8(62)
 1860 0910 8FB9      		out 47-32,r24
 1861               	.L350:
 1862 0912 779B      		sbis 46-32,7
 1863 0914 00C0      		rjmp .L350
 1864               	.LBB15:
 1865 0916 8091 0000 		lds r24,rfSettings+2
 1866 091a 8FB9      		out 47-32,r24
 1867               	.L351:
 1868 091c 779B      		sbis 46-32,7
 1869 091e 00C0      		rjmp .L351
 1870               	.LBE15:
 1871 0920 C09A      		sbi 56-32,0
 1872               	.LM194:
 1873 0922 C098      		cbi 56-32,0
 1874 0924 8EE3      		ldi r24,lo8(62)
 1875 0926 8FB9      		out 47-32,r24
 1876               	.L352:
 1877 0928 779B      		sbis 46-32,7
 1878 092a 00C0      		rjmp .L352
 1879 092c 20E0      		ldi r18,lo8(0)
 1880 092e 30E0      		ldi r19,hi8(0)
 1881               	.L354:
 1882               	.LBB16:
 1883 0930 F901      		movw r30,r18
 1884 0932 E050      		subi r30,lo8(-(rfSettings))
 1885 0934 F040      		sbci r31,hi8(-(rfSettings))
 1886 0936 8481      		ldd r24,Z+4
 1887 0938 8FB9      		out 47-32,r24
 1888               	.L353:
 1889 093a 779B      		sbis 46-32,7
 1890 093c 00C0      		rjmp .L353
 1891 093e 2F5F      		subi r18,lo8(-(1))
 1892 0940 3F4F      		sbci r19,hi8(-(1))
 1893 0942 2230      		cpi r18,2
 1894 0944 3105      		cpc r19,__zero_reg__
 1895 0946 01F4      		brne .L354
 1896               	.LBE16:
 1897 0948 C09A      		sbi 56-32,0
 1898               	.LM195:
 1899 094a C098      		cbi 56-32,0
 1900 094c 8EE3      		ldi r24,lo8(62)
 1901 094e 8FB9      		out 47-32,r24
 1902               	.L355:
 1903 0950 779B      		sbis 46-32,7
 1904 0952 00C0      		rjmp .L355
 1905               	.LBB17:
 1906 0954 FD01      		movw r30,r26
 1907 0956 9D01      		movw r18,r26
 1908 0958 2E5F      		subi r18,lo8(-(2))
 1909 095a 3F4F      		sbci r19,hi8(-(2))
 1910               	.L357:
 1911 095c 8081      		ld r24,Z
 1912 095e 8FB9      		out 47-32,r24
 1913               	.L356:
 1914 0960 779B      		sbis 46-32,7
 1915 0962 00C0      		rjmp .L356
 1916 0964 3196      		adiw r30,1
 1917 0966 E217      		cp r30,r18
 1918 0968 F307      		cpc r31,r19
 1919 096a 01F4      		brne .L357
 1920               	.LBE17:
 1921 096c C09A      		sbi 56-32,0
 1922               	.LM196:
 1923 096e C098      		cbi 56-32,0
 1924 0970 8EE3      		ldi r24,lo8(62)
 1925 0972 8FB9      		out 47-32,r24
 1926               	.L358:
 1927 0974 779B      		sbis 46-32,7
 1928 0976 00C0      		rjmp .L358
 1929 0978 20E0      		ldi r18,lo8(0)
 1930 097a 30E0      		ldi r19,hi8(0)
 1931               	.L360:
 1932               	.LBB18:
 1933 097c F901      		movw r30,r18
 1934 097e E050      		subi r30,lo8(-(rfSettings))
 1935 0980 F040      		sbci r31,hi8(-(rfSettings))
 1936 0982 8681      		ldd r24,Z+6
 1937 0984 8FB9      		out 47-32,r24
 1938               	.L359:
 1939 0986 779B      		sbis 46-32,7
 1940 0988 00C0      		rjmp .L359
 1941 098a 2F5F      		subi r18,lo8(-(1))
 1942 098c 3F4F      		sbci r19,hi8(-(1))
 1943 098e 2230      		cpi r18,2
 1944 0990 3105      		cpc r19,__zero_reg__
 1945 0992 01F4      		brne .L360
 1946               	.LBE18:
 1947 0994 C09A      		sbi 56-32,0
 1948               	.LM197:
 1949 0996 4423      		tst r20
 1950 0998 01F0      		breq .L361
 1951               	.LM198:
 1952 099a C098      		cbi 56-32,0
 1953 099c 8EE3      		ldi r24,lo8(62)
 1954 099e 8FB9      		out 47-32,r24
 1955               	.L362:
 1956 09a0 779B      		sbis 46-32,7
 1957 09a2 00C0      		rjmp .L362
 1958 09a4 E0E0      		ldi r30,lo8(tx_ctr)
 1959 09a6 F0E0      		ldi r31,hi8(tx_ctr)
 1960               	.L364:
 1961               	.LBB19:
 1962 09a8 8081      		ld r24,Z
 1963 09aa 8FB9      		out 47-32,r24
 1964               	.L363:
 1965 09ac 779B      		sbis 46-32,7
 1966 09ae 00C0      		rjmp .L363
 1967 09b0 3196      		adiw r30,1
 1968 09b2 80E0      		ldi r24,hi8(tx_ctr+4)
 1969 09b4 E030      		cpi r30,lo8(tx_ctr+4)
 1970 09b6 F807      		cpc r31,r24
 1971 09b8 01F4      		brne .L364
 1972               	.LBE19:
 1973 09ba C09A      		sbi 56-32,0
 1974               	.L361:
 1975               	.LM199:
 1976 09bc C098      		cbi 56-32,0
 1977 09be 8EE3      		ldi r24,lo8(62)
 1978 09c0 8FB9      		out 47-32,r24
 1979               	.L365:
 1980 09c2 779B      		sbis 46-32,7
 1981 09c4 00C0      		rjmp .L365
 1982 09c6 20E0      		ldi r18,lo8(0)
 1983               	.LVL97:
 1984 09c8 00C0      		rjmp .L366
 1985               	.LVL98:
 1986               	.L368:
 1987               	.LBB20:
 1988 09ca 1396      		adiw r26,3
 1989 09cc ED91      		ld r30,X+
 1990 09ce FC91      		ld r31,X
 1991 09d0 1497      		sbiw r26,3+1
 1992 09d2 E80F      		add r30,r24
 1993 09d4 F91F      		adc r31,r25
 1994 09d6 8081      		ld r24,Z
 1995               	.LVL99:
 1996 09d8 8FB9      		out 47-32,r24
 1997               	.L367:
 1998 09da 779B      		sbis 46-32,7
 1999 09dc 00C0      		rjmp .L367
 2000 09de 2F5F      		subi r18,lo8(-(1))
 2001               	.LVL100:
 2002               	.L366:
 2003 09e0 822F      		mov r24,r18
 2004 09e2 90E0      		ldi r25,lo8(0)
 2005               	.LVL101:
 2006 09e4 8617      		cp r24,r22
 2007 09e6 9707      		cpc r25,r23
 2008 09e8 04F0      		brlt .L368
 2009               	.LVL102:
 2010               	.LBE20:
 2011 09ea C09A      		sbi 56-32,0
 2012               	.LM200:
 2013 09ec C098      		cbi 56-32,0
 2014 09ee 8EE3      		ldi r24,lo8(62)
 2015               	.LVL103:
 2016 09f0 8FB9      		out 47-32,r24
 2017               	.L369:
 2018 09f2 779B      		sbis 46-32,7
 2019 09f4 00C0      		rjmp .L369
 2020               	.LBB21:
 2021 09f6 8A81      		ldd r24,Y+2
 2022 09f8 8FB9      		out 47-32,r24
 2023               	.L370:
 2024 09fa 779B      		sbis 46-32,7
 2025 09fc 00C0      		rjmp .L370
 2026               	.LBE21:
 2027 09fe C09A      		sbi 56-32,0
 2028               	.LM201:
 2029 0a00 1596      		adiw r26,5
 2030 0a02 8C91      		ld r24,X
 2031 0a04 8823      		tst r24
 2032 0a06 01F0      		breq .L371
 2033               	.LBB22:
 2034               	.LM202:
 2035 0a08 8091 0000 		lds r24,rfSettings+8
 2036 0a0c 8823      		tst r24
 2037 0a0e 01F4      		brne .L395
 2038               	.LM203:
 2039 0a10 C098      		cbi 56-32,0
 2040 0a12 83E0      		ldi r24,lo8(3)
 2041 0a14 8FB9      		out 47-32,r24
 2042               	.L373:
 2043 0a16 779B      		sbis 46-32,7
 2044 0a18 00C0      		rjmp .L373
 2045 0a1a C09A      		sbi 56-32,0
 2046               	.LVL104:
 2047               	.L395:
 2048               	.LM204:
 2049 0a1c C098      		cbi 56-32,0
 2050 0a1e 1FB8      		out 47-32,__zero_reg__
 2051               	.L374:
 2052 0a20 779B      		sbis 46-32,7
 2053 0a22 00C0      		rjmp .L374
 2054 0a24 8FB1      		in r24,47-32
 2055 0a26 C09A      		sbi 56-32,0
 2056               	.LM205:
 2057 0a28 81FF      		sbrs r24,1
 2058 0a2a 00C0      		rjmp .L395
 2059 0a2c 10E0      		ldi r17,lo8(0)
 2060               	.LVL105:
 2061               	.LM206:
 2062 0a2e E5E0      		ldi r30,lo8(5)
 2063 0a30 FE2E      		mov r15,r30
 2064               	.LVL106:
 2065               	.L379:
 2066 0a32 C098      		cbi 56-32,0
 2067 0a34 FFB8      		out 47-32,r15
 2068               	.L375:
 2069 0a36 779B      		sbis 46-32,7
 2070 0a38 00C0      		rjmp .L375
 2071 0a3a C09A      		sbi 56-32,0
 2072               	.LM207:
 2073 0a3c C098      		cbi 56-32,0
 2074 0a3e 1FB8      		out 47-32,__zero_reg__
 2075               	.L376:
 2076 0a40 779B      		sbis 46-32,7
 2077 0a42 00C0      		rjmp .L376
 2078 0a44 0FB1      		in r16,47-32
 2079               	.LVL107:
 2080 0a46 C09A      		sbi 56-32,0
 2081               	.LM208:
 2082 0a48 1F5F      		subi r17,lo8(-(1))
 2083               	.LM209:
 2084 0a4a 1536      		cpi r17,lo8(101)
 2085 0a4c 01F4      		brne .L377
 2086               	.LM210:
 2087               	/* #APP */
 2088               	 ;  760 "../../../src/radio/cc2420/source/basic_rf.c" 1
 2089 0a4e 7894      		sei
 2090               		
 2091               	 ;  0 "" 2
 2092               	.LM211:
 2093               	/* #NOAPP */
 2094 0a50 8091 0000 		lds r24,radio_sem
 2095 0a54 9091 0000 		lds r25,(radio_sem)+1
 2096 0a58 0E94 0000 		call nrk_sem_post
 2097               	.LVL108:
 2098 0a5c 90E0      		ldi r25,lo8(0)
 2099               	.LVL109:
 2100 0a5e 00C0      		rjmp .L378
 2101               	.LVL110:
 2102               	.L377:
 2103               	.LM212:
 2104 0a60 84E6      		ldi r24,lo8(100)
 2105 0a62 90E0      		ldi r25,hi8(100)
 2106 0a64 0E94 0000 		call halWait
 2107               	.LVL111:
 2108               	.LM213:
 2109 0a68 03FF      		sbrs r16,3
 2110 0a6a 00C0      		rjmp .L379
 2111 0a6c 00C0      		rjmp .L380
 2112               	.LVL112:
 2113               	.L371:
 2114               	.LBE22:
 2115               	.LM214:
 2116 0a6e C098      		cbi 56-32,0
 2117 0a70 84E0      		ldi r24,lo8(4)
 2118 0a72 8FB9      		out 47-32,r24
 2119               	.L381:
 2120 0a74 779B      		sbis 46-32,7
 2121 0a76 00C0      		rjmp .L381
 2122 0a78 C09A      		sbi 56-32,0
 2123               	.LVL113:
 2124               	.L380:
 2125               	.LM215:
 2126               	/* #APP */
 2127               	 ;  771 "../../../src/radio/cc2420/source/basic_rf.c" 1
 2128 0a7a 7894      		sei
 2129               		
 2130               	 ;  0 "" 2
 2131               	/* #NOAPP */
 2132               	.L382:
 2133               	.LM216:
 2134 0a7c 849B      		sbis 48-32,4
 2135 0a7e 00C0      		rjmp .L382
 2136               	.L394:
 2137               	.LM217:
 2138 0a80 8499      		sbic 48-32,4
 2139 0a82 00C0      		rjmp .L394
 2140               	.LM218:
 2141 0a84 8091 0000 		lds r24,auto_ack_enable
 2142 0a88 8823      		tst r24
 2143 0a8a 01F0      		breq .L440
 2144               	.L384:
 2145               	.LM219:
 2146 0a8c 84EA      		ldi r24,lo8(676)
 2147 0a8e 92E0      		ldi r25,hi8(676)
 2148 0a90 0E94 0000 		call halWait
 2149               	.LVL114:
 2150               	.LM220:
 2151 0a94 B79B      		sbis 54-32,7
 2152 0a96 00C0      		rjmp .L386
 2153               	.LM221:
 2154 0a98 C098      		cbi 56-32,0
 2155 0a9a 8FE7      		ldi r24,lo8(127)
 2156 0a9c 8FB9      		out 47-32,r24
 2157               	.L387:
 2158 0a9e 779B      		sbis 46-32,7
 2159 0aa0 00C0      		rjmp .L387
 2160 0aa2 1FB8      		out 47-32,__zero_reg__
 2161               	.L388:
 2162 0aa4 779B      		sbis 46-32,7
 2163 0aa6 00C0      		rjmp .L388
 2164 0aa8 8FB1      		in r24,47-32
 2165               	.LVL115:
 2166 0aaa C09A      		sbi 56-32,0
 2167               	.LVL116:
 2168               	.L440:
 2169 0aac 91E0      		ldi r25,lo8(1)
 2170               	.LVL117:
 2171 0aae 00C0      		rjmp .L385
 2172               	.LVL118:
 2173               	.L386:
 2174               	.LM222:
 2175 0ab0 C098      		cbi 56-32,0
 2176 0ab2 88E0      		ldi r24,lo8(8)
 2177 0ab4 8FB9      		out 47-32,r24
 2178               	.L389:
 2179 0ab6 779B      		sbis 46-32,7
 2180 0ab8 00C0      		rjmp .L389
 2181 0aba C09A      		sbi 56-32,0
 2182               	.LM223:
 2183 0abc C098      		cbi 56-32,0
 2184 0abe 88E0      		ldi r24,lo8(8)
 2185 0ac0 8FB9      		out 47-32,r24
 2186               	.L390:
 2187 0ac2 779B      		sbis 46-32,7
 2188 0ac4 00C0      		rjmp .L390
 2189 0ac6 C09A      		sbi 56-32,0
 2190 0ac8 90E0      		ldi r25,lo8(0)
 2191               	.LVL119:
 2192               	.L385:
 2193               	.LM224:
 2194               	/* #APP */
 2195               	 ;  814 "../../../src/radio/cc2420/source/basic_rf.c" 1
 2196 0aca F894      		cli
 2197               		
 2198               	 ;  0 "" 2
 2199               	.LM225:
 2200               	/* #NOAPP */
 2201 0acc C098      		cbi 56-32,0
 2202 0ace 86E0      		ldi r24,lo8(6)
 2203               	.LVL120:
 2204 0ad0 8FB9      		out 47-32,r24
 2205               	.L391:
 2206 0ad2 779B      		sbis 46-32,7
 2207 0ad4 00C0      		rjmp .L391
 2208 0ad6 C09A      		sbi 56-32,0
 2209               	.LM226:
 2210               	/* #APP */
 2211               	 ;  824 "../../../src/radio/cc2420/source/basic_rf.c" 1
 2212 0ad8 7894      		sei
 2213               		
 2214               	 ;  0 "" 2
 2215               	.LM227:
 2216               	/* #NOAPP */
 2217 0ada 8091 0000 		lds r24,rfSettings+2
 2218 0ade 8F5F      		subi r24,lo8(-(1))
 2219 0ae0 8093 0000 		sts rfSettings+2,r24
 2220               	.L378:
 2221               	.LM228:
 2222 0ae4 892F      		mov r24,r25
 2223               	/* epilogue start */
 2224 0ae6 0F90      		pop __tmp_reg__
 2225 0ae8 0F90      		pop __tmp_reg__
 2226 0aea 0F90      		pop __tmp_reg__
 2227 0aec 0F90      		pop __tmp_reg__
 2228 0aee CF91      		pop r28
 2229 0af0 DF91      		pop r29
 2230 0af2 1F91      		pop r17
 2231               	.LVL121:
 2232 0af4 0F91      		pop r16
 2233               	.LVL122:
 2234 0af6 FF90      		pop r15
 2235 0af8 0895      		ret
 2236               	.LFE26:
 2238               	.global	rf_tx_tdma_packet
 2240               	rf_tx_tdma_packet:
 2241               	.LFB25:
 2242               	.LM229:
 2243               	.LVL123:
 2244 0afa CF92      		push r12
 2245 0afc DF92      		push r13
 2246 0afe EF92      		push r14
 2247 0b00 FF92      		push r15
 2248 0b02 0F93      		push r16
 2249 0b04 1F93      		push r17
 2250 0b06 DF93      		push r29
 2251 0b08 CF93      		push r28
 2252 0b0a 00D0      		rcall .
 2253 0b0c 00D0      		rcall .
 2254 0b0e CDB7      		in r28,__SP_L__
 2255 0b10 DEB7      		in r29,__SP_H__
 2256               	/* prologue: function */
 2257               	/* frame size = 4 */
 2258 0b12 7C01      		movw r14,r24
 2259 0b14 8B01      		movw r16,r22
 2260 0b16 6A01      		movw r12,r20
 2261               	.LM230:
 2262 0b18 0E94 0000 		call _nrk_os_timer_get
 2263               	.LVL124:
 2264               	.LM231:
 2265 0b1c C098      		cbi 56-32,0
 2266 0b1e 88E0      		ldi r24,lo8(8)
 2267 0b20 8FB9      		out 47-32,r24
 2268               	.L442:
 2269 0b22 779B      		sbis 46-32,7
 2270 0b24 00C0      		rjmp .L442
 2271 0b26 C09A      		sbi 56-32,0
 2272               	.LM232:
 2273 0b28 C098      		cbi 56-32,0
 2274 0b2a 88E0      		ldi r24,lo8(8)
 2275 0b2c 8FB9      		out 47-32,r24
 2276               	.L443:
 2277 0b2e 779B      		sbis 46-32,7
 2278 0b30 00C0      		rjmp .L443
 2279 0b32 C09A      		sbi 56-32,0
 2280               	.L533:
 2281               	.LM233:
 2282 0b34 0E99      		sbic 33-32,6
 2283 0b36 00C0      		rjmp .L533
 2284 0b38 8499      		sbic 48-32,4
 2285 0b3a 00C0      		rjmp .L533
 2286               	.LM234:
 2287               	/* #APP */
 2288               	 ;  478 "../../../src/radio/cc2420/source/basic_rf.c" 1
 2289 0b3c F894      		cli
 2290               		
 2291               	 ;  0 "" 2
 2292               	.LM235:
 2293               	/* #NOAPP */
 2294 0b3e C098      		cbi 56-32,0
 2295 0b40 89E0      		ldi r24,lo8(9)
 2296 0b42 8FB9      		out 47-32,r24
 2297               	.L445:
 2298 0b44 779B      		sbis 46-32,7
 2299 0b46 00C0      		rjmp .L445
 2300 0b48 C09A      		sbi 56-32,0
 2301               	.LM236:
 2302 0b4a C098      		cbi 56-32,0
 2303 0b4c 89E0      		ldi r24,lo8(9)
 2304 0b4e 8FB9      		out 47-32,r24
 2305               	.L446:
 2306 0b50 779B      		sbis 46-32,7
 2307 0b52 00C0      		rjmp .L446
 2308 0b54 C09A      		sbi 56-32,0
 2309               	.LM237:
 2310 0b56 1A82      		std Y+2,__zero_reg__
 2311               	.LVL125:
 2312               	.LM238:
 2313 0b58 D701      		movw r26,r14
 2314 0b5a 1296      		adiw r26,2
 2315 0b5c 3C91      		ld r19,X
 2316 0b5e 432F      		mov r20,r19
 2317 0b60 5527      		clr r21
 2318 0b62 47FD      		sbrc r20,7
 2319 0b64 5095      		com r21
 2320 0b66 20E0      		ldi r18,lo8(0)
 2321               	.LVL126:
 2322 0b68 00C0      		rjmp .L447
 2323               	.LVL127:
 2324               	.L448:
 2325               	.LM239:
 2326 0b6a D701      		movw r26,r14
 2327 0b6c 1396      		adiw r26,3
 2328 0b6e ED91      		ld r30,X+
 2329 0b70 FC91      		ld r31,X
 2330 0b72 1497      		sbiw r26,3+1
 2331 0b74 E80F      		add r30,r24
 2332 0b76 F91F      		adc r31,r25
 2333 0b78 8A81      		ldd r24,Y+2
 2334               	.LVL128:
 2335 0b7a 9081      		ld r25,Z
 2336               	.LVL129:
 2337 0b7c 890F      		add r24,r25
 2338               	.LVL130:
 2339 0b7e 8A83      		std Y+2,r24
 2340               	.LM240:
 2341 0b80 2F5F      		subi r18,lo8(-(1))
 2342               	.LVL131:
 2343               	.L447:
 2344 0b82 822F      		mov r24,r18
 2345 0b84 90E0      		ldi r25,lo8(0)
 2346               	.LVL132:
 2347 0b86 8417      		cp r24,r20
 2348 0b88 9507      		cpc r25,r21
 2349 0b8a 04F0      		brlt .L448
 2350               	.LVL133:
 2351               	.LM241:
 2352 0b8c 932F      		mov r25,r19
 2353               	.LVL134:
 2354 0b8e 945F      		subi r25,lo8(-(12))
 2355 0b90 9983      		std Y+1,r25
 2356               	.LM242:
 2357 0b92 C098      		cbi 56-32,0
 2358 0b94 8EE3      		ldi r24,lo8(62)
 2359               	.LVL135:
 2360 0b96 8FB9      		out 47-32,r24
 2361               	.LVL136:
 2362               	.L449:
 2363 0b98 779B      		sbis 46-32,7
 2364 0b9a 00C0      		rjmp .L449
 2365               	.LBB23:
 2366 0b9c 9FB9      		out 47-32,r25
 2367               	.LVL137:
 2368               	.L450:
 2369 0b9e 779B      		sbis 46-32,7
 2370 0ba0 00C0      		rjmp .L450
 2371               	.LBE23:
 2372 0ba2 C09A      		sbi 56-32,0
 2373               	.LM243:
 2374 0ba4 F701      		movw r30,r14
 2375 0ba6 8681      		ldd r24,Z+6
 2376 0ba8 8823      		tst r24
 2377 0baa 01F4      		brne .L451
 2378 0bac 81E4      		ldi r24,lo8(-30655)
 2379 0bae 98E8      		ldi r25,hi8(-30655)
 2380               	.LVL138:
 2381 0bb0 00C0      		rjmp .L452
 2382               	.LVL139:
 2383               	.L451:
 2384 0bb2 81E6      		ldi r24,lo8(-30623)
 2385 0bb4 98E8      		ldi r25,hi8(-30623)
 2386               	.LVL140:
 2387               	.L452:
 2388 0bb6 9C83      		std Y+4,r25
 2389 0bb8 8B83      		std Y+3,r24
 2390               	.LM244:
 2391 0bba C098      		cbi 56-32,0
 2392 0bbc 8EE3      		ldi r24,lo8(62)
 2393               	.LVL141:
 2394 0bbe 8FB9      		out 47-32,r24
 2395               	.L453:
 2396 0bc0 779B      		sbis 46-32,7
 2397 0bc2 00C0      		rjmp .L453
 2398 0bc4 FE01      		movw r30,r28
 2399 0bc6 3396      		adiw r30,3
 2400               	.LBB24:
 2401 0bc8 9E01      		movw r18,r28
 2402               	.LVL142:
 2403 0bca 2B5F      		subi r18,lo8(-(5))
 2404 0bcc 3F4F      		sbci r19,hi8(-(5))
 2405               	.L455:
 2406 0bce 8081      		ld r24,Z
 2407 0bd0 8FB9      		out 47-32,r24
 2408               	.L454:
 2409 0bd2 779B      		sbis 46-32,7
 2410 0bd4 00C0      		rjmp .L454
 2411 0bd6 3196      		adiw r30,1
 2412 0bd8 E217      		cp r30,r18
 2413 0bda F307      		cpc r31,r19
 2414 0bdc 01F4      		brne .L455
 2415               	.LBE24:
 2416 0bde C09A      		sbi 56-32,0
 2417               	.LM245:
 2418 0be0 C098      		cbi 56-32,0
 2419 0be2 8EE3      		ldi r24,lo8(62)
 2420 0be4 8FB9      		out 47-32,r24
 2421               	.L456:
 2422 0be6 779B      		sbis 46-32,7
 2423 0be8 00C0      		rjmp .L456
 2424               	.LBB25:
 2425 0bea 8091 0000 		lds r24,rfSettings+2
 2426 0bee 8FB9      		out 47-32,r24
 2427               	.L457:
 2428 0bf0 779B      		sbis 46-32,7
 2429 0bf2 00C0      		rjmp .L457
 2430               	.LBE25:
 2431 0bf4 C09A      		sbi 56-32,0
 2432               	.LM246:
 2433 0bf6 C098      		cbi 56-32,0
 2434 0bf8 8EE3      		ldi r24,lo8(62)
 2435 0bfa 8FB9      		out 47-32,r24
 2436               	.L458:
 2437 0bfc 779B      		sbis 46-32,7
 2438 0bfe 00C0      		rjmp .L458
 2439 0c00 20E0      		ldi r18,lo8(0)
 2440 0c02 30E0      		ldi r19,hi8(0)
 2441               	.L460:
 2442               	.LBB26:
 2443 0c04 F901      		movw r30,r18
 2444 0c06 E050      		subi r30,lo8(-(rfSettings))
 2445 0c08 F040      		sbci r31,hi8(-(rfSettings))
 2446 0c0a 8481      		ldd r24,Z+4
 2447 0c0c 8FB9      		out 47-32,r24
 2448               	.L459:
 2449 0c0e 779B      		sbis 46-32,7
 2450 0c10 00C0      		rjmp .L459
 2451 0c12 2F5F      		subi r18,lo8(-(1))
 2452 0c14 3F4F      		sbci r19,hi8(-(1))
 2453 0c16 2230      		cpi r18,2
 2454 0c18 3105      		cpc r19,__zero_reg__
 2455 0c1a 01F4      		brne .L460
 2456               	.LBE26:
 2457 0c1c C09A      		sbi 56-32,0
 2458               	.LM247:
 2459 0c1e C098      		cbi 56-32,0
 2460 0c20 8EE3      		ldi r24,lo8(62)
 2461 0c22 8FB9      		out 47-32,r24
 2462               	.L461:
 2463 0c24 779B      		sbis 46-32,7
 2464 0c26 00C0      		rjmp .L461
 2465               	.LBB27:
 2466 0c28 F701      		movw r30,r14
 2467 0c2a 9701      		movw r18,r14
 2468 0c2c 2E5F      		subi r18,lo8(-(2))
 2469 0c2e 3F4F      		sbci r19,hi8(-(2))
 2470               	.L463:
 2471 0c30 8081      		ld r24,Z
 2472 0c32 8FB9      		out 47-32,r24
 2473               	.L462:
 2474 0c34 779B      		sbis 46-32,7
 2475 0c36 00C0      		rjmp .L462
 2476 0c38 3196      		adiw r30,1
 2477 0c3a E217      		cp r30,r18
 2478 0c3c F307      		cpc r31,r19
 2479 0c3e 01F4      		brne .L463
 2480               	.LBE27:
 2481 0c40 C09A      		sbi 56-32,0
 2482               	.LM248:
 2483 0c42 C098      		cbi 56-32,0
 2484 0c44 8EE3      		ldi r24,lo8(62)
 2485 0c46 8FB9      		out 47-32,r24
 2486               	.L464:
 2487 0c48 779B      		sbis 46-32,7
 2488 0c4a 00C0      		rjmp .L464
 2489 0c4c 20E0      		ldi r18,lo8(0)
 2490 0c4e 30E0      		ldi r19,hi8(0)
 2491               	.L466:
 2492               	.LBB28:
 2493 0c50 F901      		movw r30,r18
 2494 0c52 E050      		subi r30,lo8(-(rfSettings))
 2495 0c54 F040      		sbci r31,hi8(-(rfSettings))
 2496 0c56 8681      		ldd r24,Z+6
 2497 0c58 8FB9      		out 47-32,r24
 2498               	.L465:
 2499 0c5a 779B      		sbis 46-32,7
 2500 0c5c 00C0      		rjmp .L465
 2501 0c5e 2F5F      		subi r18,lo8(-(1))
 2502 0c60 3F4F      		sbci r19,hi8(-(1))
 2503 0c62 2230      		cpi r18,2
 2504 0c64 3105      		cpc r19,__zero_reg__
 2505 0c66 01F4      		brne .L466
 2506               	.LBE28:
 2507 0c68 C09A      		sbi 56-32,0
 2508               	.LM249:
 2509 0c6a C801      		movw r24,r16
 2510 0c6c B601      		movw r22,r12
 2511 0c6e 0E94 0000 		call nrk_high_speed_timer_wait
 2512               	.LVL143:
 2513               	.LM250:
 2514 0c72 D701      		movw r26,r14
 2515 0c74 1596      		adiw r26,5
 2516 0c76 8C91      		ld r24,X
 2517 0c78 8823      		tst r24
 2518 0c7a 01F0      		breq .L467
 2519               	.LBB29:
 2520               	.LM251:
 2521 0c7c 8091 0000 		lds r24,rfSettings+8
 2522 0c80 8823      		tst r24
 2523 0c82 01F4      		brne .L493
 2524               	.LM252:
 2525 0c84 C098      		cbi 56-32,0
 2526 0c86 83E0      		ldi r24,lo8(3)
 2527 0c88 8FB9      		out 47-32,r24
 2528               	.L469:
 2529 0c8a 779B      		sbis 46-32,7
 2530 0c8c 00C0      		rjmp .L469
 2531 0c8e C09A      		sbi 56-32,0
 2532               	.LVL144:
 2533               	.L493:
 2534               	.LM253:
 2535 0c90 C098      		cbi 56-32,0
 2536 0c92 1FB8      		out 47-32,__zero_reg__
 2537               	.L470:
 2538 0c94 779B      		sbis 46-32,7
 2539 0c96 00C0      		rjmp .L470
 2540 0c98 8FB1      		in r24,47-32
 2541 0c9a C09A      		sbi 56-32,0
 2542               	.LM254:
 2543 0c9c 81FF      		sbrs r24,1
 2544 0c9e 00C0      		rjmp .L493
 2545 0ca0 10E0      		ldi r17,lo8(0)
 2546               	.LVL145:
 2547               	.LM255:
 2548 0ca2 F5E0      		ldi r31,lo8(5)
 2549 0ca4 DF2E      		mov r13,r31
 2550               	.LVL146:
 2551               	.L475:
 2552 0ca6 C098      		cbi 56-32,0
 2553 0ca8 DFB8      		out 47-32,r13
 2554               	.L471:
 2555 0caa 779B      		sbis 46-32,7
 2556 0cac 00C0      		rjmp .L471
 2557 0cae C09A      		sbi 56-32,0
 2558               	.LM256:
 2559 0cb0 C098      		cbi 56-32,0
 2560 0cb2 1FB8      		out 47-32,__zero_reg__
 2561               	.L472:
 2562 0cb4 779B      		sbis 46-32,7
 2563 0cb6 00C0      		rjmp .L472
 2564 0cb8 0FB1      		in r16,47-32
 2565               	.LVL147:
 2566 0cba C09A      		sbi 56-32,0
 2567               	.LM257:
 2568 0cbc 1F5F      		subi r17,lo8(-(1))
 2569               	.LM258:
 2570 0cbe 1536      		cpi r17,lo8(101)
 2571 0cc0 01F4      		brne .L473
 2572               	.LM259:
 2573               	/* #APP */
 2574               	 ;  567 "../../../src/radio/cc2420/source/basic_rf.c" 1
 2575 0cc2 7894      		sei
 2576               		
 2577               	 ;  0 "" 2
 2578               	.LM260:
 2579               	/* #NOAPP */
 2580 0cc4 8091 0000 		lds r24,radio_sem
 2581 0cc8 9091 0000 		lds r25,(radio_sem)+1
 2582 0ccc 0E94 0000 		call nrk_sem_post
 2583 0cd0 80E0      		ldi r24,lo8(0)
 2584               	.LVL148:
 2585 0cd2 00C0      		rjmp .L474
 2586               	.LVL149:
 2587               	.L473:
 2588               	.LM261:
 2589 0cd4 84E6      		ldi r24,lo8(100)
 2590 0cd6 90E0      		ldi r25,hi8(100)
 2591 0cd8 0E94 0000 		call halWait
 2592               	.LM262:
 2593 0cdc 03FF      		sbrs r16,3
 2594 0cde 00C0      		rjmp .L475
 2595 0ce0 00C0      		rjmp .L476
 2596               	.LVL150:
 2597               	.L467:
 2598               	.LBE29:
 2599               	.LM263:
 2600 0ce2 C098      		cbi 56-32,0
 2601 0ce4 84E0      		ldi r24,lo8(4)
 2602 0ce6 8FB9      		out 47-32,r24
 2603               	.L477:
 2604 0ce8 779B      		sbis 46-32,7
 2605 0cea 00C0      		rjmp .L477
 2606 0cec C09A      		sbi 56-32,0
 2607               	.LVL151:
 2608               	.L476:
 2609               	.LM264:
 2610 0cee C098      		cbi 56-32,0
 2611 0cf0 8EE3      		ldi r24,lo8(62)
 2612 0cf2 8FB9      		out 47-32,r24
 2613               	.L478:
 2614 0cf4 779B      		sbis 46-32,7
 2615 0cf6 00C0      		rjmp .L478
 2616               	.LBB30:
 2617 0cf8 F701      		movw r30,r14
 2618 0cfa 8281      		ldd r24,Z+2
 2619 0cfc 482F      		mov r20,r24
 2620 0cfe 5527      		clr r21
 2621 0d00 47FD      		sbrc r20,7
 2622 0d02 5095      		com r21
 2623 0d04 20E0      		ldi r18,lo8(0)
 2624               	.LVL152:
 2625 0d06 00C0      		rjmp .L479
 2626               	.LVL153:
 2627               	.L481:
 2628 0d08 D701      		movw r26,r14
 2629 0d0a 1396      		adiw r26,3
 2630 0d0c ED91      		ld r30,X+
 2631 0d0e FC91      		ld r31,X
 2632 0d10 1497      		sbiw r26,3+1
 2633 0d12 E80F      		add r30,r24
 2634 0d14 F91F      		adc r31,r25
 2635 0d16 8081      		ld r24,Z
 2636               	.LVL154:
 2637 0d18 8FB9      		out 47-32,r24
 2638               	.L480:
 2639 0d1a 779B      		sbis 46-32,7
 2640 0d1c 00C0      		rjmp .L480
 2641 0d1e 2F5F      		subi r18,lo8(-(1))
 2642               	.L479:
 2643 0d20 822F      		mov r24,r18
 2644 0d22 90E0      		ldi r25,lo8(0)
 2645 0d24 8417      		cp r24,r20
 2646 0d26 9507      		cpc r25,r21
 2647 0d28 04F0      		brlt .L481
 2648               	.LVL155:
 2649               	.LBE30:
 2650 0d2a C09A      		sbi 56-32,0
 2651               	.LM265:
 2652 0d2c C098      		cbi 56-32,0
 2653 0d2e 8EE3      		ldi r24,lo8(62)
 2654               	.LVL156:
 2655 0d30 8FB9      		out 47-32,r24
 2656               	.L482:
 2657 0d32 779B      		sbis 46-32,7
 2658 0d34 00C0      		rjmp .L482
 2659               	.LBB31:
 2660 0d36 8A81      		ldd r24,Y+2
 2661 0d38 8FB9      		out 47-32,r24
 2662               	.L483:
 2663 0d3a 779B      		sbis 46-32,7
 2664 0d3c 00C0      		rjmp .L483
 2665               	.LBE31:
 2666 0d3e C09A      		sbi 56-32,0
 2667               	.L484:
 2668               	.LM266:
 2669 0d40 849B      		sbis 48-32,4
 2670 0d42 00C0      		rjmp .L484
 2671               	.LM267:
 2672               	/* #APP */
 2673               	 ;  612 "../../../src/radio/cc2420/source/basic_rf.c" 1
 2674 0d44 F894      		cli
 2675               		
 2676               	 ;  0 "" 2
 2677               	/* #NOAPP */
 2678               	.L485:
 2679               	.LM268:
 2680 0d46 8499      		sbic 48-32,4
 2681 0d48 00C0      		rjmp .L485
 2682               	.LM269:
 2683 0d4a C098      		cbi 56-32,0
 2684 0d4c 88E0      		ldi r24,lo8(8)
 2685 0d4e 8FB9      		out 47-32,r24
 2686               	.L486:
 2687 0d50 779B      		sbis 46-32,7
 2688 0d52 00C0      		rjmp .L486
 2689 0d54 C09A      		sbi 56-32,0
 2690               	.LM270:
 2691 0d56 C098      		cbi 56-32,0
 2692 0d58 88E0      		ldi r24,lo8(8)
 2693 0d5a 8FB9      		out 47-32,r24
 2694               	.L487:
 2695 0d5c 779B      		sbis 46-32,7
 2696 0d5e 00C0      		rjmp .L487
 2697 0d60 C09A      		sbi 56-32,0
 2698               	.LM271:
 2699 0d62 C098      		cbi 56-32,0
 2700 0d64 89E0      		ldi r24,lo8(9)
 2701 0d66 8FB9      		out 47-32,r24
 2702               	.L488:
 2703 0d68 779B      		sbis 46-32,7
 2704 0d6a 00C0      		rjmp .L488
 2705 0d6c C09A      		sbi 56-32,0
 2706               	.LM272:
 2707 0d6e C098      		cbi 56-32,0
 2708 0d70 89E0      		ldi r24,lo8(9)
 2709 0d72 8FB9      		out 47-32,r24
 2710               	.L489:
 2711 0d74 779B      		sbis 46-32,7
 2712 0d76 00C0      		rjmp .L489
 2713 0d78 C09A      		sbi 56-32,0
 2714               	.LM273:
 2715 0d7a C098      		cbi 56-32,0
 2716 0d7c 86E0      		ldi r24,lo8(6)
 2717 0d7e 8FB9      		out 47-32,r24
 2718               	.L490:
 2719 0d80 779B      		sbis 46-32,7
 2720 0d82 00C0      		rjmp .L490
 2721 0d84 C09A      		sbi 56-32,0
 2722               	.LM274:
 2723               	/* #APP */
 2724               	 ;  627 "../../../src/radio/cc2420/source/basic_rf.c" 1
 2725 0d86 7894      		sei
 2726               		
 2727               	 ;  0 "" 2
 2728               	.LM275:
 2729               	/* #NOAPP */
 2730 0d88 8091 0000 		lds r24,rfSettings+2
 2731 0d8c 8F5F      		subi r24,lo8(-(1))
 2732 0d8e 8093 0000 		sts rfSettings+2,r24
 2733 0d92 81E0      		ldi r24,lo8(1)
 2734               	.LVL157:
 2735               	.L474:
 2736               	.LVL158:
 2737               	/* epilogue start */
 2738               	.LM276:
 2739 0d94 0F90      		pop __tmp_reg__
 2740 0d96 0F90      		pop __tmp_reg__
 2741 0d98 0F90      		pop __tmp_reg__
 2742 0d9a 0F90      		pop __tmp_reg__
 2743 0d9c CF91      		pop r28
 2744 0d9e DF91      		pop r29
 2745 0da0 1F91      		pop r17
 2746               	.LVL159:
 2747 0da2 0F91      		pop r16
 2748               	.LVL160:
 2749 0da4 FF90      		pop r15
 2750 0da6 EF90      		pop r14
 2751               	.LVL161:
 2752 0da8 DF90      		pop r13
 2753 0daa CF90      		pop r12
 2754               	.LVL162:
 2755 0dac 0895      		ret
 2756               	.LFE25:
 2758               	.global	rf_addr_decode_set_my_mac
 2760               	rf_addr_decode_set_my_mac:
 2761               	.LFB19:
 2762               	.LM277:
 2763               	.LVL163:
 2764 0dae DF93      		push r29
 2765 0db0 CF93      		push r28
 2766 0db2 00D0      		rcall .
 2767 0db4 CDB7      		in r28,__SP_L__
 2768 0db6 DEB7      		in r29,__SP_H__
 2769               	/* prologue: function */
 2770               	/* frame size = 2 */
 2771 0db8 9A83      		std Y+2,r25
 2772 0dba 8983      		std Y+1,r24
 2773               	.LM278:
 2774 0dbc 9093 0000 		sts (rfSettings+6)+1,r25
 2775 0dc0 8093 0000 		sts rfSettings+6,r24
 2776               	.LVL164:
 2777               	.LM279:
 2778 0dc4 84EF      		ldi r24,lo8(500)
 2779 0dc6 91E0      		ldi r25,hi8(500)
 2780 0dc8 0E94 0000 		call nrk_spin_wait_us
 2781               	.LM280:
 2782 0dcc C098      		cbi 56-32,0
 2783 0dce 8AEE      		ldi r24,lo8(-22)
 2784 0dd0 8FB9      		out 47-32,r24
 2785               	.L535:
 2786 0dd2 779B      		sbis 46-32,7
 2787 0dd4 00C0      		rjmp .L535
 2788 0dd6 80E8      		ldi r24,lo8(-128)
 2789 0dd8 8FB9      		out 47-32,r24
 2790               	.L536:
 2791 0dda 779B      		sbis 46-32,7
 2792 0ddc 00C0      		rjmp .L536
 2793 0dde FE01      		movw r30,r28
 2794 0de0 3196      		adiw r30,1
 2795 0de2 9E01      		movw r18,r28
 2796 0de4 2D5F      		subi r18,lo8(-(3))
 2797 0de6 3F4F      		sbci r19,hi8(-(3))
 2798               	.L538:
 2799 0de8 8081      		ld r24,Z
 2800 0dea 8FB9      		out 47-32,r24
 2801               	.L537:
 2802 0dec 779B      		sbis 46-32,7
 2803 0dee 00C0      		rjmp .L537
 2804 0df0 3196      		adiw r30,1
 2805 0df2 E217      		cp r30,r18
 2806 0df4 F307      		cpc r31,r19
 2807 0df6 01F4      		brne .L538
 2808 0df8 C09A      		sbi 56-32,0
 2809               	.LM281:
 2810 0dfa 84EF      		ldi r24,lo8(500)
 2811 0dfc 91E0      		ldi r25,hi8(500)
 2812 0dfe 0E94 0000 		call nrk_spin_wait_us
 2813               	/* epilogue start */
 2814               	.LM282:
 2815 0e02 0F90      		pop __tmp_reg__
 2816 0e04 0F90      		pop __tmp_reg__
 2817 0e06 CF91      		pop r28
 2818 0e08 DF91      		pop r29
 2819 0e0a 0895      		ret
 2820               	.LFE19:
 2822               	.global	rf_security_set_key
 2824               	rf_security_set_key:
 2825               	.LFB9:
 2826               	.LM283:
 2827               	.LVL165:
 2828 0e0c 4F92      		push r4
 2829 0e0e 5F92      		push r5
 2830 0e10 6F92      		push r6
 2831 0e12 7F92      		push r7
 2832 0e14 8F92      		push r8
 2833 0e16 9F92      		push r9
 2834 0e18 AF92      		push r10
 2835 0e1a BF92      		push r11
 2836 0e1c CF92      		push r12
 2837 0e1e DF92      		push r13
 2838 0e20 EF92      		push r14
 2839 0e22 FF92      		push r15
 2840 0e24 0F93      		push r16
 2841 0e26 1F93      		push r17
 2842 0e28 DF93      		push r29
 2843 0e2a CF93      		push r28
 2844 0e2c 00D0      		rcall .
 2845 0e2e CDB7      		in r28,__SP_L__
 2846 0e30 DEB7      		in r29,__SP_H__
 2847               	/* prologue: function */
 2848               	/* frame size = 2 */
 2849 0e32 182F      		mov r17,r24
 2850 0e34 092F      		mov r16,r25
 2851               	.LVL166:
 2852               	.LM284:
 2853 0e36 84E6      		ldi r24,lo8(100)
 2854 0e38 90E0      		ldi r25,hi8(100)
 2855               	.LVL167:
 2856 0e3a 0E94 0000 		call nrk_spin_wait_us
 2857               	.LVL168:
 2858 0e3e 212F      		mov r18,r17
 2859 0e40 302F      		mov r19,r16
 2860 0e42 C901      		movw r24,r18
 2861 0e44 6C01      		movw r12,r24
 2862 0e46 00E0      		ldi r16,lo8(256)
 2863 0e48 11E0      		ldi r17,hi8(256)
 2864               	.LVL169:
 2865               	.LM285:
 2866 0e4a 3E01      		movw r6,r28
 2867 0e4c 0894      		sec
 2868 0e4e 611C      		adc r6,__zero_reg__
 2869 0e50 711C      		adc r7,__zero_reg__
 2870               	.LM286:
 2871 0e52 33E0      		ldi r19,lo8(3)
 2872 0e54 432E      		mov r4,r19
 2873 0e56 512C      		mov r5,__zero_reg__
 2874 0e58 4C0E      		add r4,r28
 2875 0e5a 5D1E      		adc r5,r29
 2876               	.LVL170:
 2877               	.L549:
 2878               	.LM287:
 2879 0e5c F601      		movw r30,r12
 2880 0e5e F080      		ld r15,Z
 2881 0e60 EE24      		clr r14
 2882 0e62 8181      		ldd r24,Z+1
 2883 0e64 90E0      		ldi r25,lo8(0)
 2884 0e66 8E29      		or r24,r14
 2885 0e68 9F29      		or r25,r15
 2886 0e6a 9A83      		std Y+2,r25
 2887 0e6c 8983      		std Y+1,r24
 2888               	.LVL171:
 2889               	.LM288:
 2890 0e6e 84E6      		ldi r24,lo8(100)
 2891 0e70 90E0      		ldi r25,hi8(100)
 2892 0e72 0E94 0000 		call nrk_spin_wait_us
 2893               	.LM289:
 2894 0e76 C098      		cbi 56-32,0
 2895 0e78 802F      		mov r24,r16
 2896 0e7a 8068      		ori r24,lo8(-128)
 2897 0e7c 8FB9      		out 47-32,r24
 2898               	.L545:
 2899 0e7e 779B      		sbis 46-32,7
 2900 0e80 00C0      		rjmp .L545
 2901 0e82 C801      		movw r24,r16
 2902 0e84 9595      		asr r25
 2903 0e86 8795      		ror r24
 2904 0e88 807C      		andi r24,lo8(-64)
 2905 0e8a 8FB9      		out 47-32,r24
 2906               	.L546:
 2907 0e8c 779B      		sbis 46-32,7
 2908 0e8e 00C0      		rjmp .L546
 2909 0e90 4301      		movw r8,r6
 2910 0e92 5301      		movw r10,r6
 2911               	.L548:
 2912 0e94 F501      		movw r30,r10
 2913 0e96 8081      		ld r24,Z
 2914 0e98 8FB9      		out 47-32,r24
 2915               	.L547:
 2916 0e9a 779B      		sbis 46-32,7
 2917 0e9c 00C0      		rjmp .L547
 2918 0e9e 0894      		sec
 2919 0ea0 A11C      		adc r10,__zero_reg__
 2920 0ea2 B11C      		adc r11,__zero_reg__
 2921 0ea4 4A14      		cp r4,r10
 2922 0ea6 5B04      		cpc r5,r11
 2923 0ea8 01F4      		brne .L548
 2924 0eaa C09A      		sbi 56-32,0
 2925 0eac 0894      		sec
 2926 0eae C11C      		adc r12,__zero_reg__
 2927 0eb0 D11C      		adc r13,__zero_reg__
 2928 0eb2 0E5F      		subi r16,lo8(-(2))
 2929 0eb4 1F4F      		sbci r17,hi8(-(2))
 2930               	.LM290:
 2931 0eb6 F1E0      		ldi r31,hi8(272)
 2932 0eb8 0031      		cpi r16,lo8(272)
 2933 0eba 1F07      		cpc r17,r31
 2934 0ebc 01F4      		brne .L549
 2935               	.LM291:
 2936 0ebe 84E6      		ldi r24,lo8(100)
 2937 0ec0 90E0      		ldi r25,hi8(100)
 2938 0ec2 0E94 0000 		call nrk_spin_wait_us
 2939 0ec6 20E1      		ldi r18,lo8(272)
 2940 0ec8 31E0      		ldi r19,hi8(272)
 2941 0eca 40E4      		ldi r20,lo8(320)
 2942 0ecc 51E0      		ldi r21,hi8(320)
 2943               	.L558:
 2944               	.LM292:
 2945 0ece 1A82      		std Y+2,__zero_reg__
 2946 0ed0 1982      		std Y+1,__zero_reg__
 2947               	.LVL172:
 2948               	.LM293:
 2949 0ed2 C098      		cbi 56-32,0
 2950 0ed4 842F      		mov r24,r20
 2951 0ed6 8068      		ori r24,lo8(-128)
 2952 0ed8 8FB9      		out 47-32,r24
 2953               	.L550:
 2954 0eda 779B      		sbis 46-32,7
 2955 0edc 00C0      		rjmp .L550
 2956 0ede CA01      		movw r24,r20
 2957 0ee0 9595      		asr r25
 2958 0ee2 8795      		ror r24
 2959 0ee4 807C      		andi r24,lo8(-64)
 2960 0ee6 8FB9      		out 47-32,r24
 2961               	.L551:
 2962 0ee8 779B      		sbis 46-32,7
 2963 0eea 00C0      		rjmp .L551
 2964 0eec F301      		movw r30,r6
 2965               	.L553:
 2966 0eee 8081      		ld r24,Z
 2967 0ef0 8FB9      		out 47-32,r24
 2968               	.L552:
 2969 0ef2 779B      		sbis 46-32,7
 2970 0ef4 00C0      		rjmp .L552
 2971 0ef6 3196      		adiw r30,1
 2972 0ef8 EA15      		cp r30,r10
 2973 0efa FB05      		cpc r31,r11
 2974 0efc 01F4      		brne .L553
 2975 0efe C09A      		sbi 56-32,0
 2976               	.LM294:
 2977 0f00 C098      		cbi 56-32,0
 2978 0f02 822F      		mov r24,r18
 2979 0f04 8068      		ori r24,lo8(-128)
 2980 0f06 8FB9      		out 47-32,r24
 2981               	.L554:
 2982 0f08 779B      		sbis 46-32,7
 2983 0f0a 00C0      		rjmp .L554
 2984 0f0c C901      		movw r24,r18
 2985 0f0e 9595      		asr r25
 2986 0f10 8795      		ror r24
 2987 0f12 807C      		andi r24,lo8(-64)
 2988 0f14 8FB9      		out 47-32,r24
 2989               	.L555:
 2990 0f16 779B      		sbis 46-32,7
 2991 0f18 00C0      		rjmp .L555
 2992 0f1a F301      		movw r30,r6
 2993               	.L557:
 2994 0f1c 8081      		ld r24,Z
 2995 0f1e 8FB9      		out 47-32,r24
 2996               	.L556:
 2997 0f20 779B      		sbis 46-32,7
 2998 0f22 00C0      		rjmp .L556
 2999 0f24 3196      		adiw r30,1
 3000 0f26 EA15      		cp r30,r10
 3001 0f28 FB05      		cpc r31,r11
 3002 0f2a 01F4      		brne .L557
 3003 0f2c C09A      		sbi 56-32,0
 3004 0f2e 2E5F      		subi r18,lo8(-(2))
 3005 0f30 3F4F      		sbci r19,hi8(-(2))
 3006 0f32 4E5F      		subi r20,lo8(-(2))
 3007 0f34 5F4F      		sbci r21,hi8(-(2))
 3008               	.LM295:
 3009 0f36 81E0      		ldi r24,hi8(286)
 3010 0f38 2E31      		cpi r18,lo8(286)
 3011 0f3a 3807      		cpc r19,r24
 3012 0f3c 01F4      		brne .L558
 3013               	.LM296:
 3014 0f3e 81E0      		ldi r24,lo8(1)
 3015 0f40 90E0      		ldi r25,hi8(1)
 3016 0f42 9A83      		std Y+2,r25
 3017 0f44 8983      		std Y+1,r24
 3018               	.LVL173:
 3019               	.LM297:
 3020 0f46 C098      		cbi 56-32,0
 3021 0f48 8EEC      		ldi r24,lo8(-50)
 3022 0f4a 8FB9      		out 47-32,r24
 3023               	.L559:
 3024 0f4c 779B      		sbis 46-32,7
 3025 0f4e 00C0      		rjmp .L559
 3026 0f50 80E8      		ldi r24,lo8(-128)
 3027 0f52 8FB9      		out 47-32,r24
 3028               	.L560:
 3029 0f54 779B      		sbis 46-32,7
 3030 0f56 00C0      		rjmp .L560
 3031 0f58 F301      		movw r30,r6
 3032               	.L562:
 3033 0f5a 8081      		ld r24,Z
 3034 0f5c 8FB9      		out 47-32,r24
 3035               	.L561:
 3036 0f5e 779B      		sbis 46-32,7
 3037 0f60 00C0      		rjmp .L561
 3038 0f62 3196      		adiw r30,1
 3039 0f64 4E16      		cp r4,r30
 3040 0f66 5F06      		cpc r5,r31
 3041 0f68 01F4      		brne .L562
 3042 0f6a C09A      		sbi 56-32,0
 3043               	.LM298:
 3044 0f6c C098      		cbi 56-32,0
 3045 0f6e 8EE9      		ldi r24,lo8(-98)
 3046 0f70 8FB9      		out 47-32,r24
 3047               	.L563:
 3048 0f72 779B      		sbis 46-32,7
 3049 0f74 00C0      		rjmp .L563
 3050 0f76 80E8      		ldi r24,lo8(-128)
 3051 0f78 8FB9      		out 47-32,r24
 3052               	.L564:
 3053 0f7a 779B      		sbis 46-32,7
 3054 0f7c 00C0      		rjmp .L564
 3055               	.L568:
 3056 0f7e F401      		movw r30,r8
 3057 0f80 8081      		ld r24,Z
 3058 0f82 8FB9      		out 47-32,r24
 3059               	.L565:
 3060 0f84 779B      		sbis 46-32,7
 3061 0f86 00C0      		rjmp .L565
 3062 0f88 0894      		sec
 3063 0f8a 811C      		adc r8,__zero_reg__
 3064 0f8c 911C      		adc r9,__zero_reg__
 3065 0f8e 4814      		cp r4,r8
 3066 0f90 5904      		cpc r5,r9
 3067 0f92 01F4      		brne .L568
 3068 0f94 C09A      		sbi 56-32,0
 3069               	/* epilogue start */
 3070               	.LM299:
 3071 0f96 0F90      		pop __tmp_reg__
 3072 0f98 0F90      		pop __tmp_reg__
 3073 0f9a CF91      		pop r28
 3074 0f9c DF91      		pop r29
 3075 0f9e 1F91      		pop r17
 3076               	.LVL174:
 3077 0fa0 0F91      		pop r16
 3078 0fa2 FF90      		pop r15
 3079 0fa4 EF90      		pop r14
 3080 0fa6 DF90      		pop r13
 3081 0fa8 CF90      		pop r12
 3082 0faa BF90      		pop r11
 3083 0fac AF90      		pop r10
 3084 0fae 9F90      		pop r9
 3085 0fb0 8F90      		pop r8
 3086 0fb2 7F90      		pop r7
 3087 0fb4 6F90      		pop r6
 3088 0fb6 5F90      		pop r5
 3089 0fb8 4F90      		pop r4
 3090 0fba 0895      		ret
 3091               	.LFE9:
 3093               	.global	rf_power_up
 3095               	rf_power_up:
 3096               	.LFB6:
 3097               	.LM300:
 3098               	/* prologue: function */
 3099               	/* frame size = 0 */
 3100               	.LM301:
 3101               	/* #APP */
 3102               	 ;  77 "../../../src/radio/cc2420/source/basic_rf.c" 1
 3103 0fbc F894      		cli
 3104               		
 3105               	 ;  0 "" 2
 3106               	.LM302:
 3107               	/* #NOAPP */
 3108 0fbe C098      		cbi 56-32,0
 3109 0fc0 81E0      		ldi r24,lo8(1)
 3110 0fc2 8FB9      		out 47-32,r24
 3111               	.L592:
 3112 0fc4 779B      		sbis 46-32,7
 3113 0fc6 00C0      		rjmp .L592
 3114 0fc8 C09A      		sbi 56-32,0
 3115               	.LM303:
 3116 0fca 88EE      		ldi r24,lo8(1000)
 3117 0fcc 93E0      		ldi r25,hi8(1000)
 3118 0fce 0E94 0000 		call nrk_spin_wait_us
 3119               	.LM304:
 3120               	/* #APP */
 3121               	 ;  80 "../../../src/radio/cc2420/source/basic_rf.c" 1
 3122 0fd2 7894      		sei
 3123               		
 3124               	 ;  0 "" 2
 3125               	/* epilogue start */
 3126               	.LM305:
 3127               	/* #NOAPP */
 3128 0fd4 0895      		ret
 3129               	.LFE6:
 3131               	.global	rf_set_rx
 3133               	rf_set_rx:
 3134               	.LFB20:
 3135               	.LM306:
 3136               	.LVL175:
 3137 0fd6 CF93      		push r28
 3138 0fd8 DF93      		push r29
 3139               	/* prologue: function */
 3140               	/* frame size = 0 */
 3141 0fda EC01      		movw r28,r24
 3142               	.LM307:
 3143 0fdc C098      		cbi 56-32,0
 3144 0fde 88E0      		ldi r24,lo8(8)
 3145               	.LVL176:
 3146 0fe0 8FB9      		out 47-32,r24
 3147               	.L596:
 3148 0fe2 779B      		sbis 46-32,7
 3149 0fe4 00C0      		rjmp .L596
 3150 0fe6 C09A      		sbi 56-32,0
 3151               	.LM308:
 3152 0fe8 C098      		cbi 56-32,0
 3153 0fea 88E0      		ldi r24,lo8(8)
 3154 0fec 8FB9      		out 47-32,r24
 3155               	.L597:
 3156 0fee 779B      		sbis 46-32,7
 3157 0ff0 00C0      		rjmp .L597
 3158 0ff2 C09A      		sbi 56-32,0
 3159               	.LM309:
 3160 0ff4 862F      		mov r24,r22
 3161 0ff6 0E94 0000 		call halRfSetChannel
 3162               	.LVL177:
 3163               	.LM310:
 3164 0ffa D093 0000 		sts (rfSettings)+1,r29
 3165 0ffe C093 0000 		sts rfSettings,r28
 3166               	/* epilogue start */
 3167               	.LM311:
 3168 1002 DF91      		pop r29
 3169 1004 CF91      		pop r28
 3170               	.LVL178:
 3171 1006 0895      		ret
 3172               	.LFE20:
 3174               	.global	rf_set_channel
 3176               	rf_set_channel:
 3177               	.LFB14:
 3178               	.LM312:
 3179               	.LVL179:
 3180               	/* prologue: function */
 3181               	/* frame size = 0 */
 3182               	.LM313:
 3183 1008 0E94 0000 		call halRfSetChannel
 3184               	.LVL180:
 3185               	/* epilogue start */
 3186               	.LM314:
 3187 100c 0895      		ret
 3188               	.LFE14:
 3190               	.global	rf_init
 3192               	rf_init:
 3193               	.LFB21:
 3194               	.LM315:
 3195               	.LVL181:
 3196 100e DF92      		push r13
 3197 1010 EF92      		push r14
 3198 1012 FF92      		push r15
 3199 1014 0F93      		push r16
 3200 1016 1F93      		push r17
 3201 1018 DF93      		push r29
 3202 101a CF93      		push r28
 3203 101c 00D0      		rcall .
 3204 101e CDB7      		in r28,__SP_L__
 3205 1020 DEB7      		in r29,__SP_H__
 3206               	/* prologue: function */
 3207               	/* frame size = 2 */
 3208 1022 8C01      		movw r16,r24
 3209 1024 D62E      		mov r13,r22
 3210 1026 5A83      		std Y+2,r21
 3211 1028 4983      		std Y+1,r20
 3212 102a 7901      		movw r14,r18
 3213               	.LM316:
 3214 102c DD9A      		sbi 59-32,5
 3215               	.LM317:
 3216 102e 88EE      		ldi r24,lo8(1000)
 3217 1030 93E0      		ldi r25,hi8(1000)
 3218               	.LVL182:
 3219 1032 0E94 0000 		call halWait
 3220               	.LVL183:
 3221               	.LM318:
 3222 1036 DE98      		cbi 59-32,6
 3223               	.LM319:
 3224 1038 81E0      		ldi r24,lo8(1)
 3225 103a 90E0      		ldi r25,hi8(1)
 3226 103c 0E94 0000 		call halWait
 3227               	.LM320:
 3228 1040 DE9A      		sbi 59-32,6
 3229               	.LM321:
 3230 1042 84E6      		ldi r24,lo8(100)
 3231 1044 90E0      		ldi r25,hi8(100)
 3232 1046 0E94 0000 		call halWait
 3233               	.LM322:
 3234               	/* #APP */
 3235               	 ;  292 "../../../src/radio/cc2420/source/basic_rf.c" 1
 3236 104a F894      		cli
 3237               		
 3238               	 ;  0 "" 2
 3239               	.LM323:
 3240               	/* #NOAPP */
 3241 104c C098      		cbi 56-32,0
 3242 104e 81E0      		ldi r24,lo8(1)
 3243 1050 8FB9      		out 47-32,r24
 3244               	.L604:
 3245 1052 779B      		sbis 46-32,7
 3246 1054 00C0      		rjmp .L604
 3247 1056 C09A      		sbi 56-32,0
 3248               	.LM324:
 3249 1058 82EE      		ldi r24,lo8(738)
 3250 105a 92E0      		ldi r25,hi8(738)
 3251 105c 9093 0000 		sts (mdmctrl0)+1,r25
 3252 1060 8093 0000 		sts mdmctrl0,r24
 3253               	.LM325:
 3254 1064 C098      		cbi 56-32,0
 3255 1066 81E1      		ldi r24,lo8(17)
 3256 1068 8FB9      		out 47-32,r24
 3257               	.L605:
 3258 106a 779B      		sbis 46-32,7
 3259 106c 00C0      		rjmp .L605
 3260 106e 82E0      		ldi r24,lo8(2)
 3261 1070 8FB9      		out 47-32,r24
 3262               	.L606:
 3263 1072 779B      		sbis 46-32,7
 3264 1074 00C0      		rjmp .L606
 3265 1076 82EE      		ldi r24,lo8(-30)
 3266 1078 8FB9      		out 47-32,r24
 3267               	.L607:
 3268 107a 779B      		sbis 46-32,7
 3269 107c 00C0      		rjmp .L607
 3270 107e C09A      		sbi 56-32,0
 3271               	.LM326:
 3272 1080 C098      		cbi 56-32,0
 3273 1082 82E1      		ldi r24,lo8(18)
 3274 1084 8FB9      		out 47-32,r24
 3275               	.L608:
 3276 1086 779B      		sbis 46-32,7
 3277 1088 00C0      		rjmp .L608
 3278 108a 85E0      		ldi r24,lo8(5)
 3279 108c 8FB9      		out 47-32,r24
 3280               	.L609:
 3281 108e 779B      		sbis 46-32,7
 3282 1090 00C0      		rjmp .L609
 3283 1092 1FB8      		out 47-32,__zero_reg__
 3284               	.L610:
 3285 1094 779B      		sbis 46-32,7
 3286 1096 00C0      		rjmp .L610
 3287 1098 C09A      		sbi 56-32,0
 3288               	.LM327:
 3289 109a C098      		cbi 56-32,0
 3290 109c 8CE1      		ldi r24,lo8(28)
 3291 109e 8FB9      		out 47-32,r24
 3292               	.L611:
 3293 10a0 779B      		sbis 46-32,7
 3294 10a2 00C0      		rjmp .L611
 3295 10a4 1FB8      		out 47-32,__zero_reg__
 3296               	.L612:
 3297 10a6 779B      		sbis 46-32,7
 3298 10a8 00C0      		rjmp .L612
 3299 10aa 8FE7      		ldi r24,lo8(127)
 3300 10ac 8FB9      		out 47-32,r24
 3301               	.L613:
 3302 10ae 779B      		sbis 46-32,7
 3303 10b0 00C0      		rjmp .L613
 3304 10b2 C09A      		sbi 56-32,0
 3305               	.LM328:
 3306 10b4 C098      		cbi 56-32,0
 3307 10b6 89E1      		ldi r24,lo8(25)
 3308 10b8 8FB9      		out 47-32,r24
 3309               	.L614:
 3310 10ba 779B      		sbis 46-32,7
 3311 10bc 00C0      		rjmp .L614
 3312 10be 81E0      		ldi r24,lo8(1)
 3313 10c0 8FB9      		out 47-32,r24
 3314               	.L615:
 3315 10c2 779B      		sbis 46-32,7
 3316 10c4 00C0      		rjmp .L615
 3317 10c6 84EC      		ldi r24,lo8(-60)
 3318 10c8 8FB9      		out 47-32,r24
 3319               	.L616:
 3320 10ca 779B      		sbis 46-32,7
 3321 10cc 00C0      		rjmp .L616
 3322 10ce C09A      		sbi 56-32,0
 3323               	.LM329:
 3324 10d0 C098      		cbi 56-32,0
 3325 10d2 87E1      		ldi r24,lo8(23)
 3326 10d4 8FB9      		out 47-32,r24
 3327               	.L617:
 3328 10d6 779B      		sbis 46-32,7
 3329 10d8 00C0      		rjmp .L617
 3330 10da 8AE1      		ldi r24,lo8(26)
 3331 10dc 8FB9      		out 47-32,r24
 3332               	.L618:
 3333 10de 779B      		sbis 46-32,7
 3334 10e0 00C0      		rjmp .L618
 3335 10e2 86E5      		ldi r24,lo8(86)
 3336 10e4 8FB9      		out 47-32,r24
 3337               	.L619:
 3338 10e6 779B      		sbis 46-32,7
 3339 10e8 00C0      		rjmp .L619
 3340 10ea C09A      		sbi 56-32,0
 3341               	.LM330:
 3342 10ec 84EF      		ldi r24,lo8(500)
 3343 10ee 91E0      		ldi r25,hi8(500)
 3344 10f0 0E94 0000 		call nrk_spin_wait_us
 3345               	.LM331:
 3346 10f4 C098      		cbi 56-32,0
 3347 10f6 88EE      		ldi r24,lo8(-24)
 3348 10f8 8FB9      		out 47-32,r24
 3349               	.L620:
 3350 10fa 779B      		sbis 46-32,7
 3351 10fc 00C0      		rjmp .L620
 3352 10fe 80E8      		ldi r24,lo8(-128)
 3353 1100 8FB9      		out 47-32,r24
 3354               	.L621:
 3355 1102 779B      		sbis 46-32,7
 3356 1104 00C0      		rjmp .L621
 3357 1106 FE01      		movw r30,r28
 3358 1108 3196      		adiw r30,1
 3359 110a 9E01      		movw r18,r28
 3360 110c 2D5F      		subi r18,lo8(-(3))
 3361 110e 3F4F      		sbci r19,hi8(-(3))
 3362               	.L623:
 3363 1110 8081      		ld r24,Z
 3364 1112 8FB9      		out 47-32,r24
 3365               	.L622:
 3366 1114 779B      		sbis 46-32,7
 3367 1116 00C0      		rjmp .L622
 3368 1118 3196      		adiw r30,1
 3369 111a E217      		cp r30,r18
 3370 111c F307      		cpc r31,r19
 3371 111e 01F4      		brne .L623
 3372 1120 C09A      		sbi 56-32,0
 3373               	.LM332:
 3374 1122 84EF      		ldi r24,lo8(500)
 3375 1124 91E0      		ldi r25,hi8(500)
 3376 1126 0E94 0000 		call nrk_spin_wait_us
 3377               	.LM333:
 3378               	/* #APP */
 3379               	 ;  326 "../../../src/radio/cc2420/source/basic_rf.c" 1
 3380 112a 7894      		sei
 3381               		
 3382               	 ;  0 "" 2
 3383               	.LM334:
 3384               	/* #NOAPP */
 3385 112c 8D2D      		mov r24,r13
 3386 112e 0E94 0000 		call halRfSetChannel
 3387               	.LM335:
 3388               	/* #APP */
 3389               	 ;  332 "../../../src/radio/cc2420/source/basic_rf.c" 1
 3390 1132 7894      		sei
 3391               		
 3392               	 ;  0 "" 2
 3393               	.LM336:
 3394               	/* #NOAPP */
 3395 1134 1093 0000 		sts (rfSettings)+1,r17
 3396 1138 0093 0000 		sts rfSettings,r16
 3397               	.LM337:
 3398 113c 8981      		ldd r24,Y+1
 3399 113e 9A81      		ldd r25,Y+2
 3400 1140 9093 0000 		sts (rfSettings+4)+1,r25
 3401 1144 8093 0000 		sts rfSettings+4,r24
 3402               	.LM338:
 3403 1148 F092 0000 		sts (rfSettings+6)+1,r15
 3404 114c E092 0000 		sts rfSettings+6,r14
 3405               	.LM339:
 3406 1150 1092 0000 		sts rfSettings+2,__zero_reg__
 3407               	.LM340:
 3408 1154 1092 0000 		sts rfSettings+8,__zero_reg__
 3409               	.LM341:
 3410 1158 0E94 0000 		call halRfWaitForCrystalOscillator
 3411               	.LM342:
 3412 115c 1092 0000 		sts auto_ack_enable,__zero_reg__
 3413               	.LM343:
 3414 1160 1092 0000 		sts security_enable,__zero_reg__
 3415               	.LM344:
 3416 1164 1092 0000 		sts last_pkt_encrypted,__zero_reg__
 3417               	/* epilogue start */
 3418               	.LM345:
 3419 1168 0F90      		pop __tmp_reg__
 3420 116a 0F90      		pop __tmp_reg__
 3421 116c CF91      		pop r28
 3422 116e DF91      		pop r29
 3423 1170 1F91      		pop r17
 3424 1172 0F91      		pop r16
 3425               	.LVL184:
 3426 1174 FF90      		pop r15
 3427 1176 EF90      		pop r14
 3428               	.LVL185:
 3429 1178 DF90      		pop r13
 3430               	.LVL186:
 3431 117a 0895      		ret
 3432               	.LFE21:
 3434               	.global	cc259x_tx
 3436               	cc259x_tx:
 3437               	.LFB4:
 3438               	.LM346:
 3439               	/* prologue: function */
 3440               	/* frame size = 0 */
 3441               	.LM347:
 3442 117c 8091 0000 		lds r24,NRK_DEBUG_1
 3443 1180 0E94 0000 		call nrk_gpio_set
 3444               	.LM348:
 3445 1184 8091 0000 		lds r24,NRK_DEBUG_0
 3446 1188 0E94 0000 		call nrk_gpio_set
 3447               	/* epilogue start */
 3448               	.LM349:
 3449 118c 0895      		ret
 3450               	.LFE4:
 3452               	.global	cc259x_rx
 3454               	cc259x_rx:
 3455               	.LFB3:
 3456               	.LM350:
 3457               	/* prologue: function */
 3458               	/* frame size = 0 */
 3459               	.LM351:
 3460 118e 8091 0000 		lds r24,NRK_DEBUG_1
 3461 1192 0E94 0000 		call nrk_gpio_set
 3462               	.LM352:
 3463 1196 8091 0000 		lds r24,NRK_DEBUG_0
 3464 119a 0E94 0000 		call nrk_gpio_clr
 3465               	/* epilogue start */
 3466               	.LM353:
 3467 119e 0895      		ret
 3468               	.LFE3:
 3470               		.comm _nrk_signal_list,4,1
 3471               		.comm rfSettings,9,1
 3472               		.comm nrk_idle_task_stk,128,1
 3473               		.comm nrk_kernel_stk_ptr,2,1
 3474               		.comm error_task,1,1
 3475               		.comm error_num,1,1
 3476               		.comm _nrk_prev_timer_val,1,1
 3477               		.comm _nrk_time_trigger,1,1
 3478               		.comm app_timer0_callback,2,1
 3479               		.comm app_timer0_prescale,1,1
 3480               		.comm radio_sem,2,1
 3481               		.comm auto_ack_enable,1,1
 3482               		.comm security_enable,1,1
 3483               		.comm last_pkt_encrypted,1,1
 3484               		.comm mdmctrl0,2,1
 3485               		.comm tx_ctr,4,1
 3486               		.comm rx_ctr,4,1
 3487               		.comm rx_ready,1,1
 3488               		.comm tmp_blah,2,1
 3817               	.Letext0:
DEFINED SYMBOLS
                            *ABS*:00000000 basic_rf.c
C:\cygwin\tmp/ccBYJcWy.s:2      *ABS*:0000003f __SREG__
C:\cygwin\tmp/ccBYJcWy.s:3      *ABS*:0000003e __SP_H__
C:\cygwin\tmp/ccBYJcWy.s:4      *ABS*:0000003d __SP_L__
C:\cygwin\tmp/ccBYJcWy.s:5      *ABS*:00000034 __CCP__
C:\cygwin\tmp/ccBYJcWy.s:6      *ABS*:00000000 __tmp_reg__
C:\cygwin\tmp/ccBYJcWy.s:7      *ABS*:00000001 __zero_reg__
C:\cygwin\tmp/ccBYJcWy.s:18     .text:00000000 rf_power_down
C:\cygwin\tmp/ccBYJcWy.s:60     .text:0000001e rf_security_last_pkt_status
                            *COM*:00000001 last_pkt_encrypted
C:\cygwin\tmp/ccBYJcWy.s:73     .text:00000024 rf_security_set_ctr_counter
                            *COM*:00000004 tx_ctr
C:\cygwin\tmp/ccBYJcWy.s:159    .text:0000009e rf_security_enable
                            *COM*:00000001 security_enable
C:\cygwin\tmp/ccBYJcWy.s:212    .text:000000de rf_security_disable
C:\cygwin\tmp/ccBYJcWy.s:244    .text:00000100 rf_get_sem
                            *COM*:00000002 radio_sem
C:\cygwin\tmp/ccBYJcWy.s:258    .text:0000010a rf_tx_power
C:\cygwin\tmp/ccBYJcWy.s:298    .text:00000130 rf_addr_decode_enable
                            *COM*:00000002 mdmctrl0
C:\cygwin\tmp/ccBYJcWy.s:332    .text:0000015c rf_addr_decode_disable
C:\cygwin\tmp/ccBYJcWy.s:366    .text:00000188 rf_auto_ack_enable
                            *COM*:00000001 auto_ack_enable
C:\cygwin\tmp/ccBYJcWy.s:403    .text:000001ba rf_auto_ack_disable
C:\cygwin\tmp/ccBYJcWy.s:439    .text:000001ea rf_rx_on
                            *COM*:00000009 rfSettings
                            *COM*:00000001 rx_ready
C:\cygwin\tmp/ccBYJcWy.s:472    .text:0000020e rf_polling_rx_on
C:\cygwin\tmp/ccBYJcWy.s:505    .text:00000232 rf_rx_off
C:\cygwin\tmp/ccBYJcWy.s:529    .text:00000248 rf_busy
C:\cygwin\tmp/ccBYJcWy.s:550    .text:0000025a rf_rx_check_fifop
C:\cygwin\tmp/ccBYJcWy.s:571    .text:0000026c rf_rx_check_sfd
C:\cygwin\tmp/ccBYJcWy.s:592    .text:0000027e rf_polling_rx_packet
                            *COM*:00000004 rx_ctr
C:\cygwin\tmp/ccBYJcWy.s:1258   .text:00000646 rf_rx_packet
C:\cygwin\tmp/ccBYJcWy.s:1280   .text:00000658 rf_flush_rx_fifo
C:\cygwin\tmp/ccBYJcWy.s:1308   .text:00000672 rf_set_cca_thresh
C:\cygwin\tmp/ccBYJcWy.s:1348   .text:00000698 rf_test_mode
C:\cygwin\tmp/ccBYJcWy.s:1405   .text:000006e0 rf_data_mode
C:\cygwin\tmp/ccBYJcWy.s:1460   .text:00000724 rf_rx_set_serial
C:\cygwin\tmp/ccBYJcWy.s:1500   .text:00000752 rf_tx_set_serial
C:\cygwin\tmp/ccBYJcWy.s:1532   .text:00000774 rf_set_preamble_length
C:\cygwin\tmp/ccBYJcWy.s:1574   .text:000007ac rf_set_cca_mode
C:\cygwin\tmp/ccBYJcWy.s:1620   .text:000007ec rf_carrier_on
C:\cygwin\tmp/ccBYJcWy.s:1640   .text:000007fa rf_carrier_off
C:\cygwin\tmp/ccBYJcWy.s:1660   .text:00000808 rf_tx_packet
C:\cygwin\tmp/ccBYJcWy.s:2240   .text:00000afa rf_tx_tdma_packet
C:\cygwin\tmp/ccBYJcWy.s:2760   .text:00000dae rf_addr_decode_set_my_mac
C:\cygwin\tmp/ccBYJcWy.s:2824   .text:00000e0c rf_security_set_key
C:\cygwin\tmp/ccBYJcWy.s:3095   .text:00000fbc rf_power_up
C:\cygwin\tmp/ccBYJcWy.s:3133   .text:00000fd6 rf_set_rx
C:\cygwin\tmp/ccBYJcWy.s:3176   .text:00001008 rf_set_channel
C:\cygwin\tmp/ccBYJcWy.s:3192   .text:0000100e rf_init
C:\cygwin\tmp/ccBYJcWy.s:3436   .text:0000117c cc259x_tx
C:\cygwin\tmp/ccBYJcWy.s:3454   .text:0000118e cc259x_rx
                            *COM*:00000004 _nrk_signal_list
                            *COM*:00000080 nrk_idle_task_stk
                            *COM*:00000002 nrk_kernel_stk_ptr
                            *COM*:00000001 error_task
                            *COM*:00000001 error_num
                            *COM*:00000001 _nrk_prev_timer_val
                            *COM*:00000001 _nrk_time_trigger
                            *COM*:00000002 app_timer0_callback
                            *COM*:00000001 app_timer0_prescale
                            *COM*:00000002 tmp_blah

UNDEFINED SYMBOLS
nrk_sem_post
halWait
_nrk_os_timer_get
nrk_high_speed_timer_wait
nrk_spin_wait_us
halRfSetChannel
halRfWaitForCrystalOscillator
NRK_DEBUG_1
nrk_gpio_set
NRK_DEBUG_0
nrk_gpio_clr
__do_clear_bss
